
c:/Users/IoTPa/Documents/jarvis/BoronGPS/target/1.5.2/boron/BoronGPS.elf:     file format elf32-littlearm

Sections:
Idx Name          Size      VMA       LMA       File off  Algn
  0 .module_info  00000018  000d4000  000d4000  00004000  2**2
                  CONTENTS, ALLOC, LOAD, READONLY, DATA
  1 .dynalib      00000004  000d4018  000d4018  00004018  2**2
                  CONTENTS, ALLOC, LOAD, READONLY, DATA
  2 .text         00004b50  000d4020  000d4020  00004020  2**3
                  CONTENTS, ALLOC, LOAD, READONLY, CODE
  3 .backup       00000004  2003f400  000d8b70  0000f400  2**2
                  CONTENTS, ALLOC, LOAD, DATA
  4 .data         0000047c  2003de1c  000d8b74  0001de1c  2**2
                  CONTENTS, ALLOC, LOAD, DATA
  5 .bss          00000558  2003e298  2003e298  0002e298  2**2
                  ALLOC
  6 .module_info_suffix 00000028  000d8ff0  000d8ff0  00028ff0  2**0
                  CONTENTS, ALLOC, LOAD, READONLY, DATA
  7 .module_info_crc 00000004  000d9018  000d9018  00029018  2**0
                  CONTENTS, ALLOC, LOAD, READONLY, DATA
  8 .debug_info   000f76eb  00000000  00000000  0002901c  2**0
                  CONTENTS, READONLY, DEBUGGING
  9 .debug_abbrev 00013cbb  00000000  00000000  00120707  2**0
                  CONTENTS, READONLY, DEBUGGING
 10 .debug_loc    00023cc9  00000000  00000000  001343c2  2**0
                  CONTENTS, READONLY, DEBUGGING
 11 .debug_aranges 000029d0  00000000  00000000  0015808b  2**0
                  CONTENTS, READONLY, DEBUGGING
 12 .debug_ranges 00004dd0  00000000  00000000  0015aa5b  2**0
                  CONTENTS, READONLY, DEBUGGING
 13 .debug_macro  0003a0c8  00000000  00000000  0015f82b  2**0
                  CONTENTS, READONLY, DEBUGGING
 14 .debug_line   000319ec  00000000  00000000  001998f3  2**0
                  CONTENTS, READONLY, DEBUGGING
 15 .debug_str    001098aa  00000000  00000000  001cb2df  2**0
                  CONTENTS, READONLY, DEBUGGING
 16 .debug_frame  0000df20  00000000  00000000  002d4b8c  2**2
                  CONTENTS, READONLY, DEBUGGING

Disassembly of section .text:

000d4020 <module_user_pre_init>:
/**
 * Initializes this user module. Returns the start of the heap.
 */
void* module_user_pre_init() {

    if ( (&link_global_data_start!=&link_global_data_initial_values) && (link_global_data_size != 0))
   d4020:	4809      	ldr	r0, [pc, #36]	; (d4048 <module_user_pre_init+0x28>)
   d4022:	490a      	ldr	r1, [pc, #40]	; (d404c <module_user_pre_init+0x2c>)
   d4024:	4288      	cmp	r0, r1
extern constructor_ptr_t link_constructors_end;

/**
 * Initializes this user module. Returns the start of the heap.
 */
void* module_user_pre_init() {
   d4026:	b508      	push	{r3, lr}

    if ( (&link_global_data_start!=&link_global_data_initial_values) && (link_global_data_size != 0))
   d4028:	d005      	beq.n	d4036 <module_user_pre_init+0x16>
   d402a:	4a09      	ldr	r2, [pc, #36]	; (d4050 <module_user_pre_init+0x30>)
   d402c:	4282      	cmp	r2, r0
   d402e:	d002      	beq.n	d4036 <module_user_pre_init+0x16>
    {
        memcpy(&link_global_data_start, &link_global_data_initial_values, link_global_data_size);
   d4030:	1a12      	subs	r2, r2, r0
   d4032:	f003 feab 	bl	d7d8c <memcpy>
    }

    memset(&link_bss_location, 0, link_bss_size );
   d4036:	4807      	ldr	r0, [pc, #28]	; (d4054 <module_user_pre_init+0x34>)
   d4038:	4a07      	ldr	r2, [pc, #28]	; (d4058 <module_user_pre_init+0x38>)
   d403a:	2100      	movs	r1, #0
   d403c:	1a12      	subs	r2, r2, r0
   d403e:	f003 feb0 	bl	d7da2 <memset>
    return &link_global_data_start;
}
   d4042:	4801      	ldr	r0, [pc, #4]	; (d4048 <module_user_pre_init+0x28>)
   d4044:	bd08      	pop	{r3, pc}
   d4046:	bf00      	nop
   d4048:	2003de1c 	.word	0x2003de1c
   d404c:	000d8b74 	.word	0x000d8b74
   d4050:	2003e298 	.word	0x2003e298
   d4054:	2003e298 	.word	0x2003e298
   d4058:	2003e7f0 	.word	0x2003e7f0

000d405c <module_user_init>:
extern constructor_ptr_t link_constructors_location[];
extern constructor_ptr_t link_constructors_end;
#define link_constructors_size   ((unsigned long)&link_constructors_end  -  (unsigned long)&link_constructors_location )

void module_user_init()
{
   d405c:	b570      	push	{r4, r5, r6, lr}
    module_user_init_hook();
   d405e:	f002 f989 	bl	d6374 <module_user_init_hook>
   d4062:	4c07      	ldr	r4, [pc, #28]	; (d4080 <module_user_init+0x24>)
   d4064:	4b07      	ldr	r3, [pc, #28]	; (d4084 <module_user_init+0x28>)
   d4066:	1ae4      	subs	r4, r4, r3
   d4068:	08a4      	lsrs	r4, r4, #2

    // invoke constructors
    int ctor_num;
    for (ctor_num=0; ctor_num < link_constructors_size/sizeof(constructor_ptr_t); ctor_num++ )
   d406a:	2500      	movs	r5, #0
   d406c:	461e      	mov	r6, r3
   d406e:	42a5      	cmp	r5, r4
   d4070:	d004      	beq.n	d407c <module_user_init+0x20>
    {
        link_constructors_location[ctor_num]();
   d4072:	f856 3025 	ldr.w	r3, [r6, r5, lsl #2]
   d4076:	4798      	blx	r3
{
    module_user_init_hook();

    // invoke constructors
    int ctor_num;
    for (ctor_num=0; ctor_num < link_constructors_size/sizeof(constructor_ptr_t); ctor_num++ )
   d4078:	3501      	adds	r5, #1
   d407a:	e7f8      	b.n	d406e <module_user_init+0x12>
    {
        link_constructors_location[ctor_num]();
    }
}
   d407c:	bd70      	pop	{r4, r5, r6, pc}
   d407e:	bf00      	nop
   d4080:	000d8b70 	.word	0x000d8b70
   d4084:	000d8b28 	.word	0x000d8b28

000d4088 <module_user_setup>:

/**
 * Export these functions with a fuller name so they don't clash with the setup/loop wrappers in the system module.
 */
void module_user_setup() {
    setup();
   d4088:	f000 b85c 	b.w	d4144 <setup>

000d408c <module_user_loop>:
}

void module_user_loop() {
   d408c:	b508      	push	{r3, lr}
    loop();
   d408e:	f000 fa35 	bl	d44fc <loop>
    _post_loop();
}
   d4092:	e8bd 4008 	ldmia.w	sp!, {r3, lr}
    setup();
}

void module_user_loop() {
    loop();
    _post_loop();
   d4096:	f002 b92f 	b.w	d62f8 <_post_loop>

000d409a <_Znwj>:
   d409a:	f001 beab 	b.w	d5df4 <malloc>

000d409e <_ZdlPv>:
   d409e:	f001 beb1 	b.w	d5e04 <free>

000d40a2 <_ZdaPv>:
	free(p);
}

void operator delete[](void *p)
{
	free(p);
   d40a2:	f001 beaf 	b.w	d5e04 <free>
	...

000d40a8 <__cxa_pure_virtual>:
char* strerror(int errnum) {
    return (char*)"";
}

/* Default implementation for call made to pure virtual function. */
void __cxa_pure_virtual() {
   d40a8:	b508      	push	{r3, lr}
  PANIC(PureVirtualCall,"Call on pure virtual");
   d40aa:	4a03      	ldr	r2, [pc, #12]	; (d40b8 <__cxa_pure_virtual+0x10>)
   d40ac:	2100      	movs	r1, #0
   d40ae:	200c      	movs	r0, #12
   d40b0:	f001 fdf4 	bl	d5c9c <panic_>
   d40b4:	e7fe      	b.n	d40b4 <__cxa_pure_virtual+0xc>
   d40b6:	bf00      	nop
   d40b8:	000d5a7d 	.word	0x000d5a7d

000d40bc <__cxa_guard_acquire>:

/* Provide default implemenation for __cxa_guard_acquire() and
 * __cxa_guard_release(). Note: these must be revisited if a multitasking
 * OS is ported to this platform. */
__extension__ typedef int __guard __attribute__((mode (__DI__)));
int __cxa_guard_acquire(__guard *g) {return !*(char *)(g);};
   d40bc:	7800      	ldrb	r0, [r0, #0]
   d40be:	fab0 f080 	clz	r0, r0
   d40c2:	0940      	lsrs	r0, r0, #5
   d40c4:	4770      	bx	lr

000d40c6 <__cxa_guard_release>:
void __cxa_guard_release (__guard *g) {*(char *)g = 1;};
   d40c6:	2301      	movs	r3, #1
   d40c8:	7003      	strb	r3, [r0, #0]
   d40ca:	4770      	bx	lr

000d40cc <_ZN16Adafruit_SSD1306D1Ev>:
#define SSD1306_RIGHT_HORIZONTAL_SCROLL 0x26
#define SSD1306_LEFT_HORIZONTAL_SCROLL 0x27
#define SSD1306_VERTICAL_AND_RIGHT_HORIZONTAL_SCROLL 0x29
#define SSD1306_VERTICAL_AND_LEFT_HORIZONTAL_SCROLL 0x2A

class Adafruit_SSD1306 : public Adafruit_GFX {
   d40cc:	4770      	bx	lr
	...

000d40d0 <_ZN16JsonWriterStaticILj256EED1Ev>:
 * variable.
 *
 * @param BUFFER_SIZE The size of the buffer to reserve.
 */
template <size_t BUFFER_SIZE>
class JsonWriterStatic : public JsonWriter {
   d40d0:	b510      	push	{r4, lr}
   d40d2:	4b03      	ldr	r3, [pc, #12]	; (d40e0 <_ZN16JsonWriterStaticILj256EED1Ev+0x10>)
   d40d4:	6003      	str	r3, [r0, #0]
   d40d6:	4604      	mov	r4, r0
   d40d8:	f000 ffc8 	bl	d506c <_ZN10JsonWriterD1Ev>
   d40dc:	4620      	mov	r0, r4
   d40de:	bd10      	pop	{r4, pc}
   d40e0:	000d8044 	.word	0x000d8044

000d40e4 <_ZN16JsonWriterStaticILj256EED0Ev>:
   d40e4:	b510      	push	{r4, lr}
   d40e6:	4604      	mov	r4, r0
   d40e8:	f7ff fff2 	bl	d40d0 <_ZN16JsonWriterStaticILj256EED1Ev>
   d40ec:	4620      	mov	r0, r4
   d40ee:	f44f 7198 	mov.w	r1, #304	; 0x130
   d40f2:	f003 f8c1 	bl	d7278 <_ZdlPvj>
   d40f6:	4620      	mov	r0, r4
   d40f8:	bd10      	pop	{r4, pc}
	...

000d40fc <_Z10helloWorldv>:
			}
		}
	}
}

void helloWorld() {
   d40fc:	b510      	push	{r4, lr}
	display.clearDisplay();
   d40fe:	4c0f      	ldr	r4, [pc, #60]	; (d413c <_Z10helloWorldv+0x40>)
   d4100:	4620      	mov	r0, r4
   d4102:	f000 fc17 	bl	d4934 <_ZN16Adafruit_SSD130612clearDisplayEv>
	display.setTextSize(2);
   d4106:	4620      	mov	r0, r4
   d4108:	2102      	movs	r1, #2
   d410a:	f000 ff85 	bl	d5018 <_ZN12Adafruit_GFX11setTextSizeEh>
  	display.setTextColor(WHITE);
   d410e:	4620      	mov	r0, r4
   d4110:	2101      	movs	r1, #1
   d4112:	f000 ff86 	bl	d5022 <_ZN12Adafruit_GFX12setTextColorEt>
  	display.setCursor(20,5);
   d4116:	2205      	movs	r2, #5
   d4118:	4620      	mov	r0, r4
   d411a:	2114      	movs	r1, #20
   d411c:	f000 ff79 	bl	d5012 <_ZN12Adafruit_GFX9setCursorEss>
  	display.println("  GPS\n Starting");
   d4120:	4907      	ldr	r1, [pc, #28]	; (d4140 <_Z10helloWorldv+0x44>)
   d4122:	4620      	mov	r0, r4
   d4124:	f002 f823 	bl	d616e <_ZN5Print7printlnEPKc>
	display.display();
   d4128:	4620      	mov	r0, r4
   d412a:	f000 fd3d 	bl	d4ba8 <_ZN16Adafruit_SSD13067displayEv>
	display.setTextSize(1);
   d412e:	4620      	mov	r0, r4
   d4130:	2101      	movs	r1, #1
}
   d4132:	e8bd 4010 	ldmia.w	sp!, {r4, lr}
	display.setTextSize(2);
  	display.setTextColor(WHITE);
  	display.setCursor(20,5);
  	display.println("  GPS\n Starting");
	display.display();
	display.setTextSize(1);
   d4136:	f000 bf6f 	b.w	d5018 <_ZN12Adafruit_GFX11setTextSizeEh>
   d413a:	bf00      	nop
   d413c:	2003e378 	.word	0x2003e378
   d4140:	000d804c 	.word	0x000d804c

000d4144 <setup>:

float lat,lon,alt;
float lat_ref, lon_ref;

void setup()
{
   d4144:	b508      	push	{r3, lr}
	Serial.begin(9600);
   d4146:	f002 fcd9 	bl	d6afc <_Z16_fetch_usbserialv>
   d414a:	f44f 5116 	mov.w	r1, #9600	; 0x2580
   d414e:	f002 fcc9 	bl	d6ae4 <_ZN9USBSerial5beginEl>

	// The GPS module initialization
	Serial1.begin(9600);
   d4152:	f002 fda7 	bl	d6ca4 <_Z22__fetch_global_Serial1v>
   d4156:	f44f 5116 	mov.w	r1, #9600	; 0x2580
   d415a:	f002 fd9d 	bl	d6c98 <_ZN11USARTSerial5beginEm>

#ifdef __cplusplus
extern "C" {
#endif

inline system_tick_t millis(void) { return HAL_Timer_Get_Milli_Seconds(); }
   d415e:	f001 fc95 	bl	d5a8c <HAL_Timer_Get_Milli_Seconds>
    startFix = millis();
   d4162:	4b09      	ldr	r3, [pc, #36]	; (d4188 <setup+0x44>)
   d4164:	6018      	str	r0, [r3, #0]
    gettingFix = true;
   d4166:	4b09      	ldr	r3, [pc, #36]	; (d418c <setup+0x48>)
	
	// OLED Display initialization
	display.begin(SSD1306_SWITCHCAPVCC, 0x3C);
   d4168:	4809      	ldr	r0, [pc, #36]	; (d4190 <setup+0x4c>)
	Serial.begin(9600);

	// The GPS module initialization
	Serial1.begin(9600);
    startFix = millis();
    gettingFix = true;
   d416a:	2201      	movs	r2, #1
   d416c:	701a      	strb	r2, [r3, #0]
	
	// OLED Display initialization
	display.begin(SSD1306_SWITCHCAPVCC, 0x3C);
   d416e:	2102      	movs	r1, #2
   d4170:	223c      	movs	r2, #60	; 0x3c
   d4172:	f000 fc47 	bl	d4a04 <_ZN16Adafruit_SSD13065beginEhh>
	helloWorld();
   d4176:	f7ff ffc1 	bl	d40fc <_Z10helloWorldv>

	pinMode(D2,INPUT_PULLDOWN);
   d417a:	2103      	movs	r1, #3
   d417c:	2002      	movs	r0, #2
}
   d417e:	e8bd 4008 	ldmia.w	sp!, {r3, lr}
	
	// OLED Display initialization
	display.begin(SSD1306_SWITCHCAPVCC, 0x3C);
	helloWorld();

	pinMode(D2,INPUT_PULLDOWN);
   d4182:	f002 bfcb 	b.w	d711c <pinMode>
   d4186:	bf00      	nop
   d4188:	2003e3a0 	.word	0x2003e3a0
   d418c:	2003e39c 	.word	0x2003e39c
   d4190:	2003e378 	.word	0x2003e378

000d4194 <_ZN10JsonWriter14insertKeyValueIfEEvPKcT_>:
	 *
	 * Uses templates so you can pass any type object that's supported by insertValue() overloads,
	 * for example: bool, int, float, double, const char *.
	 */
	template<class T>
	void insertKeyValue(const char *key, T value) {
   d4194:	b538      	push	{r3, r4, r5, lr}
   d4196:	4604      	mov	r4, r0
   d4198:	ed2d 8b02 	vpush	{d8}
   d419c:	460d      	mov	r5, r1
   d419e:	eeb0 8a40 	vmov.f32	s16, s0
		insertCheckSeparator();
   d41a2:	f001 f86b 	bl	d527c <_ZN10JsonWriter20insertCheckSeparatorEv>
	 * @brief Inserts a quoted string value. This escapes special characters and encodes utf-8.
	 *
	 * You would normally use insertKeyValue() or insertArrayValue() instead of calling this directly
	 * as those functions take care of inserting the separtators between items.
	 */
	void insertValue(const char *value) { insertString(value, true); }
   d41a6:	4629      	mov	r1, r5
   d41a8:	4620      	mov	r0, r4
   d41aa:	2201      	movs	r2, #1
   d41ac:	f000 ffda 	bl	d5164 <_ZN10JsonWriter12insertStringEPKcb>
	 */
	template<class T>
	void insertKeyValue(const char *key, T value) {
		insertCheckSeparator();
		insertValue(key);
		insertChar(':');
   d41b0:	4620      	mov	r0, r4
   d41b2:	213a      	movs	r1, #58	; 0x3a
   d41b4:	f000 ff8a 	bl	d50cc <_ZN10JsonWriter10insertCharEc>
		insertValue(value);
   d41b8:	eeb0 0a48 	vmov.f32	s0, s16
	}
   d41bc:	ecbd 8b02 	vpop	{d8}
	template<class T>
	void insertKeyValue(const char *key, T value) {
		insertCheckSeparator();
		insertValue(key);
		insertChar(':');
		insertValue(value);
   d41c0:	4620      	mov	r0, r4
	}
   d41c2:	e8bd 4038 	ldmia.w	sp!, {r3, r4, r5, lr}
	template<class T>
	void insertKeyValue(const char *key, T value) {
		insertCheckSeparator();
		insertValue(key);
		insertChar(':');
		insertValue(value);
   d41c6:	f001 b87d 	b.w	d52c4 <_ZN10JsonWriter11insertValueEf>
	...

000d41cc <_Z8sendJSONfff>:
  	display.println("  GPS\n Starting");
	display.display();
	display.setTextSize(1);
}

void sendJSON(float jlat, float jlon, float jalt) {
   d41cc:	b510      	push	{r4, lr}
   d41ce:	ed2d 8b04 	vpush	{d8-d9}
   d41d2:	b0d2      	sub	sp, #328	; 0x148
 * @param BUFFER_SIZE The size of the buffer to reserve.
 */
template <size_t BUFFER_SIZE>
class JsonWriterStatic : public JsonWriter {
public:
	explicit JsonWriterStatic() : JsonWriter(staticBuffer, BUFFER_SIZE) {};
   d41d4:	f44f 7280 	mov.w	r2, #256	; 0x100
   d41d8:	a912      	add	r1, sp, #72	; 0x48
   d41da:	a806      	add	r0, sp, #24
   d41dc:	eef0 8a60 	vmov.f32	s17, s1
   d41e0:	eeb0 8a41 	vmov.f32	s16, s2
   d41e4:	eeb0 9a40 	vmov.f32	s18, s0
   d41e8:	f000 ff5e 	bl	d50a8 <_ZN10JsonWriterC1EPcj>
   d41ec:	4b38      	ldr	r3, [pc, #224]	; (d42d0 <_Z8sendJSONfff+0x104>)
   d41ee:	9306      	str	r3, [sp, #24]
	JsonWriterStatic<256> jw;
	int vibration;

	vibration = random(1,11);
   d41f0:	210b      	movs	r1, #11
   d41f2:	2001      	movs	r0, #1
   d41f4:	f002 fdf1 	bl	d6dda <_Z6randomii>
	void init();

	/**
	 * @brief Start a new JSON object. Make sure you finish it with finishObjectOrArray()
	 */
	bool startObject() { return startObjectOrArray('{', '}'); };
   d41f8:	227d      	movs	r2, #125	; 0x7d
   d41fa:	4604      	mov	r4, r0
   d41fc:	217b      	movs	r1, #123	; 0x7b
   d41fe:	a806      	add	r0, sp, #24
   d4200:	f001 f847 	bl	d5292 <_ZN10JsonWriter18startObjectOrArrayEcc>

    JsonWriterAutoObject obj(&jw);

    jw.insertKeyValue("Latitude", jlat);
   d4204:	eeb0 0a49 	vmov.f32	s0, s18
   d4208:	4932      	ldr	r1, [pc, #200]	; (d42d4 <_Z8sendJSONfff+0x108>)
   d420a:	a806      	add	r0, sp, #24
   d420c:	f7ff ffc2 	bl	d4194 <_ZN10JsonWriter14insertKeyValueIfEEvPKcT_>
    jw.insertKeyValue("Longitude", jlon);
   d4210:	eeb0 0a68 	vmov.f32	s0, s17
   d4214:	4930      	ldr	r1, [pc, #192]	; (d42d8 <_Z8sendJSONfff+0x10c>)
   d4216:	a806      	add	r0, sp, #24
   d4218:	f7ff ffbc 	bl	d4194 <_ZN10JsonWriter14insertKeyValueIfEEvPKcT_>
    jw.insertKeyValue("Altitude", jalt);
   d421c:	eeb0 0a48 	vmov.f32	s0, s16
   d4220:	492e      	ldr	r1, [pc, #184]	; (d42dc <_Z8sendJSONfff+0x110>)
   d4222:	a806      	add	r0, sp, #24
   d4224:	f7ff ffb6 	bl	d4194 <_ZN10JsonWriter14insertKeyValueIfEEvPKcT_>
	 * Uses templates so you can pass any type object that's supported by insertValue() overloads,
	 * for example: bool, int, float, double, const char *.
	 */
	template<class T>
	void insertKeyValue(const char *key, T value) {
		insertCheckSeparator();
   d4228:	a806      	add	r0, sp, #24
   d422a:	f001 f827 	bl	d527c <_ZN10JsonWriter20insertCheckSeparatorEv>
	 * @brief Inserts a quoted string value. This escapes special characters and encodes utf-8.
	 *
	 * You would normally use insertKeyValue() or insertArrayValue() instead of calling this directly
	 * as those functions take care of inserting the separtators between items.
	 */
	void insertValue(const char *value) { insertString(value, true); }
   d422e:	2201      	movs	r2, #1
   d4230:	492b      	ldr	r1, [pc, #172]	; (d42e0 <_Z8sendJSONfff+0x114>)
   d4232:	a806      	add	r0, sp, #24
   d4234:	f000 ff96 	bl	d5164 <_ZN10JsonWriter12insertStringEPKcb>
	 */
	template<class T>
	void insertKeyValue(const char *key, T value) {
		insertCheckSeparator();
		insertValue(key);
		insertChar(':');
   d4238:	213a      	movs	r1, #58	; 0x3a
   d423a:	a806      	add	r0, sp, #24
   d423c:	f000 ff46 	bl	d50cc <_ZN10JsonWriter10insertCharEc>
	 * @brief Inserts an integer value.
	 *
	 * You would normally use insertKeyValue() or insertArrayValue() instead of calling this directly
	 * as those functions take care of inserting the separators between items.
	 */
	void insertValue(int value) { insertsprintf("%d", value); }
   d4240:	4622      	mov	r2, r4
   d4242:	4928      	ldr	r1, [pc, #160]	; (d42e4 <_Z8sendJSONfff+0x118>)
   d4244:	a806      	add	r0, sp, #24
   d4246:	f000 ff80 	bl	d514a <_ZN10JsonWriter13insertsprintfEPKcz>
   d424a:	9b07      	ldr	r3, [sp, #28]
   d424c:	9303      	str	r3, [sp, #12]
   d424e:	4b26      	ldr	r3, [pc, #152]	; (d42e8 <_Z8sendJSONfff+0x11c>)
        return publish(eventName, eventData, DEFAULT_CLOUD_EVENT_TTL, flags1, flags2);
    }

    inline particle::Future<bool> publish(const char *eventName, const char *eventData, int ttl, PublishFlags flags1, PublishFlags flags2 = PublishFlags())
    {
        return publish_event(eventName, eventData, ttl, flags1 | flags2);
   d4250:	9a03      	ldr	r2, [sp, #12]
   d4252:	781b      	ldrb	r3, [r3, #0]
   d4254:	f88d 3000 	strb.w	r3, [sp]
   d4258:	4924      	ldr	r1, [pc, #144]	; (d42ec <_Z8sendJSONfff+0x120>)
   d425a:	233c      	movs	r3, #60	; 0x3c
   d425c:	a804      	add	r0, sp, #16
   d425e:	f002 f9f7 	bl	d6650 <_ZN10CloudClass13publish_eventEPKcS1_iN8particle5FlagsI15PublishFlagTypehEE>
      // Does not throw if __r._M_get_use_count() == 0, caller must check.
      explicit __shared_count(const __weak_count<_Lp>& __r, std::nothrow_t);

      ~__shared_count() noexcept
      {
	if (_M_pi != nullptr)
   d4262:	9c05      	ldr	r4, [sp, #20]
   d4264:	b17c      	cbz	r4, d4286 <_Z8sendJSONfff+0xba>

  template<>
    inline void
    _Sp_counted_base<_S_single>::_M_release() noexcept
    {
      if (--_M_use_count == 0)
   d4266:	6863      	ldr	r3, [r4, #4]
   d4268:	3b01      	subs	r3, #1
   d426a:	6063      	str	r3, [r4, #4]
   d426c:	b95b      	cbnz	r3, d4286 <_Z8sendJSONfff+0xba>
        {
          _M_dispose();
   d426e:	6823      	ldr	r3, [r4, #0]
   d4270:	4620      	mov	r0, r4
   d4272:	689b      	ldr	r3, [r3, #8]
   d4274:	4798      	blx	r3
          if (--_M_weak_count == 0)
   d4276:	68a3      	ldr	r3, [r4, #8]
   d4278:	3b01      	subs	r3, #1
   d427a:	60a3      	str	r3, [r4, #8]
   d427c:	b91b      	cbnz	r3, d4286 <_Z8sendJSONfff+0xba>
            _M_destroy();
   d427e:	6823      	ldr	r3, [r4, #0]
   d4280:	4620      	mov	r0, r4
   d4282:	68db      	ldr	r3, [r3, #12]
   d4284:	4798      	blx	r3
    jw.insertKeyValue("Vibration", vibration);
  
	Particle.publish("gps_data",jw.getBuffer(), PRIVATE);

	display.clearDisplay();
   d4286:	481a      	ldr	r0, [pc, #104]	; (d42f0 <_Z8sendJSONfff+0x124>)
   d4288:	f000 fb54 	bl	d4934 <_ZN16Adafruit_SSD130612clearDisplayEv>
	display.setTextSize(2);
   d428c:	2102      	movs	r1, #2
   d428e:	4818      	ldr	r0, [pc, #96]	; (d42f0 <_Z8sendJSONfff+0x124>)
   d4290:	f000 fec2 	bl	d5018 <_ZN12Adafruit_GFX11setTextSizeEh>
  	display.setTextColor(WHITE);
   d4294:	2101      	movs	r1, #1
   d4296:	4816      	ldr	r0, [pc, #88]	; (d42f0 <_Z8sendJSONfff+0x124>)
   d4298:	f000 fec3 	bl	d5022 <_ZN12Adafruit_GFX12setTextColorEt>
  	display.setCursor(20,5);
   d429c:	2205      	movs	r2, #5
   d429e:	2114      	movs	r1, #20
   d42a0:	4813      	ldr	r0, [pc, #76]	; (d42f0 <_Z8sendJSONfff+0x124>)
   d42a2:	f000 feb6 	bl	d5012 <_ZN12Adafruit_GFX9setCursorEss>
  	display.println("Publish");
   d42a6:	4913      	ldr	r1, [pc, #76]	; (d42f4 <_Z8sendJSONfff+0x128>)
   d42a8:	4811      	ldr	r0, [pc, #68]	; (d42f0 <_Z8sendJSONfff+0x124>)
   d42aa:	f001 ff60 	bl	d616e <_ZN5Print7printlnEPKc>
	display.display();
   d42ae:	4810      	ldr	r0, [pc, #64]	; (d42f0 <_Z8sendJSONfff+0x124>)
   d42b0:	f000 fc7a 	bl	d4ba8 <_ZN16Adafruit_SSD13067displayEv>
	display.setTextSize(1);
   d42b4:	2101      	movs	r1, #1
   d42b6:	480e      	ldr	r0, [pc, #56]	; (d42f0 <_Z8sendJSONfff+0x124>)
   d42b8:	f000 feae 	bl	d5018 <_ZN12Adafruit_GFX11setTextSizeEh>

	/**
	 * @brief End the object
	 */
	~JsonWriterAutoObject() {
		jw->finishObjectOrArray();
   d42bc:	a806      	add	r0, sp, #24
   d42be:	f000 ff13 	bl	d50e8 <_ZN10JsonWriter19finishObjectOrArrayEv>
	display.display();
	display.setTextSize(1);
}

void sendJSON(float jlat, float jlon, float jalt) {
	JsonWriterStatic<256> jw;
   d42c2:	a806      	add	r0, sp, #24
   d42c4:	f7ff ff04 	bl	d40d0 <_ZN16JsonWriterStaticILj256EED1Ev>
  	display.setCursor(20,5);
  	display.println("Publish");
	display.display();
	display.setTextSize(1);

   d42c8:	b052      	add	sp, #328	; 0x148
   d42ca:	ecbd 8b04 	vpop	{d8-d9}
   d42ce:	bd10      	pop	{r4, pc}
   d42d0:	000d8044 	.word	0x000d8044
   d42d4:	000d805c 	.word	0x000d805c
   d42d8:	000d8065 	.word	0x000d8065
   d42dc:	000d806f 	.word	0x000d806f
   d42e0:	000d8078 	.word	0x000d8078
   d42e4:	000d8082 	.word	0x000d8082
   d42e8:	2003e374 	.word	0x2003e374
   d42ec:	000d8085 	.word	0x000d8085
   d42f0:	2003e378 	.word	0x2003e378
   d42f4:	000d808e 	.word	0x000d808e

000d42f8 <_Z11displayInfov>:
			displayInfo();
		}
	}
}

void displayInfo() {
   d42f8:	e92d 4ff0 	stmdb	sp!, {r4, r5, r6, r7, r8, r9, sl, fp, lr}
	float lat,lon,alt;
	uint8_t hr,mn,se,cs,sat;
	if (millis() - lastSerial >= SERIAL_PERIOD) {
   d42fc:	4c72      	ldr	r4, [pc, #456]	; (d44c8 <_Z11displayInfov+0x1d0>)
			displayInfo();
		}
	}
}

void displayInfo() {
   d42fe:	b0ad      	sub	sp, #180	; 0xb4
   d4300:	f001 fbc4 	bl	d5a8c <HAL_Timer_Get_Milli_Seconds>
	float lat,lon,alt;
	uint8_t hr,mn,se,cs,sat;
	if (millis() - lastSerial >= SERIAL_PERIOD) {
   d4304:	6823      	ldr	r3, [r4, #0]
   d4306:	1ac0      	subs	r0, r0, r3
   d4308:	f241 3387 	movw	r3, #4999	; 0x1387
   d430c:	4298      	cmp	r0, r3
   d430e:	f240 80d7 	bls.w	d44c0 <_Z11displayInfov+0x1c8>
   d4312:	f001 fbbb 	bl	d5a8c <HAL_Timer_Get_Milli_Seconds>
		lastSerial = millis();
   d4316:	6020      	str	r0, [r4, #0]
   d4318:	4c6c      	ldr	r4, [pc, #432]	; (d44cc <_Z11displayInfov+0x1d4>)

		char buf[128];
		if (gps.location.isValid() && gps.location.age() < MAX_GPS_AGE_MS) {
   d431a:	7823      	ldrb	r3, [r4, #0]
   d431c:	2b00      	cmp	r3, #0
   d431e:	f000 80c2 	beq.w	d44a6 <_Z11displayInfov+0x1ae>
   d4322:	f001 fbb3 	bl	d5a8c <HAL_Timer_Get_Milli_Seconds>
   d4326:	6b63      	ldr	r3, [r4, #52]	; 0x34
   d4328:	1ac0      	subs	r0, r0, r3
   d432a:	f242 730f 	movw	r3, #9999	; 0x270f
   d432e:	4298      	cmp	r0, r3
   d4330:	f200 80b9 	bhi.w	d44a6 <_Z11displayInfov+0x1ae>
			lat = gps.location.lat();
   d4334:	4620      	mov	r0, r4
   d4336:	f001 f8bb 	bl	d54b0 <_ZN15TinyGPSLocation3latEv>
   d433a:	ec51 0b10 	vmov	r0, r1, d0
   d433e:	f003 fcc3 	bl	d7cc8 <__aeabi_d2f>
   d4342:	4605      	mov	r5, r0
			lon = gps.location.lng(); 
   d4344:	4620      	mov	r0, r4
   d4346:	f001 f8db 	bl	d5500 <_ZN15TinyGPSLocation3lngEv>
   d434a:	ec51 0b10 	vmov	r0, r1, d0
   d434e:	f003 fcbb 	bl	d7cc8 <__aeabi_d2f>
   friend class TinyGPSPlus;
public:
   bool isValid() const    { return valid; }
   bool isUpdated() const  { return updated; }
   uint32_t age() const    { return valid ? millis() - lastCommitTime : (uint32_t)ULONG_MAX; }
   int32_t value()         { updated = false; return val; }
   d4352:	f04f 0a00 	mov.w	sl, #0
   d4356:	f884 a079 	strb.w	sl, [r4, #121]	; 0x79
   d435a:	4606      	mov	r6, r0
			alt = gps.altitude.meters();
   d435c:	f8d4 0080 	ldr.w	r0, [r4, #128]	; 0x80
   d4360:	f003 fa3a 	bl	d77d8 <__aeabi_i2d>
   d4364:	4b5a      	ldr	r3, [pc, #360]	; (d44d0 <_Z11displayInfov+0x1d8>)
   d4366:	2200      	movs	r2, #0
   d4368:	f003 fbc6 	bl	d7af8 <__aeabi_ddiv>
   d436c:	f003 fcac 	bl	d7cc8 <__aeabi_d2f>
   d4370:	4607      	mov	r7, r0
			hr = gps.time.hour();
   d4372:	f104 0048 	add.w	r0, r4, #72	; 0x48
   d4376:	f001 f90f 	bl	d5598 <_ZN11TinyGPSTime4hourEv>
   d437a:	4683      	mov	fp, r0
			mn = gps.time.minute();
   d437c:	f104 0048 	add.w	r0, r4, #72	; 0x48
   d4380:	f001 f914 	bl	d55ac <_ZN11TinyGPSTime6minuteEv>
   d4384:	4680      	mov	r8, r0
			se = gps.time.second();
   d4386:	f104 0048 	add.w	r0, r4, #72	; 0x48
   d438a:	f001 f91d 	bl	d55c8 <_ZN11TinyGPSTime6secondEv>
   d438e:	4681      	mov	r9, r0
			cs = gps.time.centisecond();
   d4390:	f104 0048 	add.w	r0, r4, #72	; 0x48
   d4394:	f001 f924 	bl	d55e0 <_ZN11TinyGPSTime11centisecondEv>
			sat = gps.satellites.value();

			if(hr > 7) {
   d4398:	f1bb 0f07 	cmp.w	fp, #7
   friend class TinyGPSPlus;
public:
   bool isValid() const    { return valid; }
   bool isUpdated() const  { return updated; }
   uint32_t age() const    { return valid ? millis() - lastCommitTime : (uint32_t)ULONG_MAX; }
   uint32_t value()        { updated = false; return val; }
   d439c:	f884 a089 	strb.w	sl, [r4, #137]	; 0x89
			lon = gps.location.lng(); 
			alt = gps.altitude.meters();
			hr = gps.time.hour();
			mn = gps.time.minute();
			se = gps.time.second();
			cs = gps.time.centisecond();
   d43a0:	4603      	mov	r3, r0
   d43a2:	f8d4 a090 	ldr.w	sl, [r4, #144]	; 0x90
			sat = gps.satellites.value();

			if(hr > 7) {
   d43a6:	d902      	bls.n	d43ae <_Z11displayInfov+0xb6>
				hr = hr + UTC_offset;
   d43a8:	f1ab 0407 	sub.w	r4, fp, #7
   d43ac:	e001      	b.n	d43b2 <_Z11displayInfov+0xba>
			}
			else {
				hr = hr + 24 + UTC_offset;
   d43ae:	f10b 0411 	add.w	r4, fp, #17
   d43b2:	9306      	str	r3, [sp, #24]
   d43b4:	b2e4      	uxtb	r4, r4
			}
			Serial.printf("Time: %02i:%02i:%02i:%02i --- ",hr,mn,se,cs);
   d43b6:	f002 fba1 	bl	d6afc <_Z16_fetch_usbserialv>
    size_t println(const __FlashStringHelper*);

    template <typename... Args>
    inline size_t printf(const char* format, Args... args)
    {
        return this->printf_impl(false, format, args...);
   d43ba:	9b06      	ldr	r3, [sp, #24]
   d43bc:	4a45      	ldr	r2, [pc, #276]	; (d44d4 <_Z11displayInfov+0x1dc>)
   d43be:	9302      	str	r3, [sp, #8]
   d43c0:	2100      	movs	r1, #0
   d43c2:	4623      	mov	r3, r4
   d43c4:	e88d 0300 	stmia.w	sp, {r8, r9}
   d43c8:	f001 fefb 	bl	d61c2 <_ZN5Print11printf_implEbPKcz>
			Serial.printf("lat: %f, long: %f, alt: %f \n", lat,lon,alt);
   d43cc:	f002 fb96 	bl	d6afc <_Z16_fetch_usbserialv>
   d43d0:	4683      	mov	fp, r0
   d43d2:	4628      	mov	r0, r5
   d43d4:	f003 fa12 	bl	d77fc <__aeabi_f2d>
   d43d8:	e9cd 0106 	strd	r0, r1, [sp, #24]
   d43dc:	4630      	mov	r0, r6
   d43de:	f003 fa0d 	bl	d77fc <__aeabi_f2d>
   d43e2:	e9cd 0108 	strd	r0, r1, [sp, #32]
   d43e6:	4638      	mov	r0, r7
   d43e8:	f003 fa08 	bl	d77fc <__aeabi_f2d>
   d43ec:	ed9d 7b08 	vldr	d7, [sp, #32]
   d43f0:	ed8d 7b02 	vstr	d7, [sp, #8]
   d43f4:	ed9d 7b06 	vldr	d7, [sp, #24]
   d43f8:	e9cd 010a 	strd	r0, r1, [sp, #40]	; 0x28
   d43fc:	e9cd 0104 	strd	r0, r1, [sp, #16]
   d4400:	4a35      	ldr	r2, [pc, #212]	; (d44d8 <_Z11displayInfov+0x1e0>)
   d4402:	ed8d 7b00 	vstr	d7, [sp]
   d4406:	2100      	movs	r1, #0
   d4408:	4658      	mov	r0, fp
   d440a:	f001 feda 	bl	d61c2 <_ZN5Print11printf_implEbPKcz>
			if (gettingFix) {
   d440e:	4b33      	ldr	r3, [pc, #204]	; (d44dc <_Z11displayInfov+0x1e4>)
   d4410:	781a      	ldrb	r2, [r3, #0]
   d4412:	b172      	cbz	r2, d4432 <_Z11displayInfov+0x13a>
				gettingFix = false;
   d4414:	2200      	movs	r2, #0
   d4416:	701a      	strb	r2, [r3, #0]
   d4418:	f001 fb38 	bl	d5a8c <HAL_Timer_Get_Milli_Seconds>
				unsigned long elapsed = millis() - startFix;
   d441c:	4b30      	ldr	r3, [pc, #192]	; (d44e0 <_Z11displayInfov+0x1e8>)
   d441e:	681b      	ldr	r3, [r3, #0]
   d4420:	ebc3 0b00 	rsb	fp, r3, r0
				Serial.printlnf("%lu milliseconds to get GPS fix", elapsed);
   d4424:	f002 fb6a 	bl	d6afc <_Z16_fetch_usbserialv>
    }

    template <typename... Args>
    inline size_t printlnf(const char* format, Args... args)
    {
        return this->printf_impl(true, format, args...);
   d4428:	465b      	mov	r3, fp
   d442a:	4a2e      	ldr	r2, [pc, #184]	; (d44e4 <_Z11displayInfov+0x1ec>)
   d442c:	2101      	movs	r1, #1
   d442e:	f001 fec8 	bl	d61c2 <_ZN5Print11printf_implEbPKcz>
			}
			display.clearDisplay();
   d4432:	482d      	ldr	r0, [pc, #180]	; (d44e8 <_Z11displayInfov+0x1f0>)
   d4434:	f000 fa7e 	bl	d4934 <_ZN16Adafruit_SSD130612clearDisplayEv>
			display.setCursor(0,0);
   d4438:	2200      	movs	r2, #0
   d443a:	4611      	mov	r1, r2
   d443c:	482a      	ldr	r0, [pc, #168]	; (d44e8 <_Z11displayInfov+0x1f0>)
   d443e:	f000 fde8 	bl	d5012 <_ZN12Adafruit_GFX9setCursorEss>
    size_t println(const __FlashStringHelper*);

    template <typename... Args>
    inline size_t printf(const char* format, Args... args)
    {
        return this->printf_impl(false, format, args...);
   d4442:	4623      	mov	r3, r4
   d4444:	4a29      	ldr	r2, [pc, #164]	; (d44ec <_Z11displayInfov+0x1f4>)
   d4446:	4828      	ldr	r0, [pc, #160]	; (d44e8 <_Z11displayInfov+0x1f0>)
   d4448:	2100      	movs	r1, #0
   d444a:	e88d 0300 	stmia.w	sp, {r8, r9}
   d444e:	f001 feb8 	bl	d61c2 <_ZN5Print11printf_implEbPKcz>
   d4452:	ed9d 7b0a 	vldr	d7, [sp, #40]	; 0x28
   d4456:	ed8d 7b04 	vstr	d7, [sp, #16]
   d445a:	ed9d 7b08 	vldr	d7, [sp, #32]
   d445e:	ed8d 7b02 	vstr	d7, [sp, #8]
   d4462:	ed9d 7b06 	vldr	d7, [sp, #24]
   d4466:	4a22      	ldr	r2, [pc, #136]	; (d44f0 <_Z11displayInfov+0x1f8>)
   d4468:	481f      	ldr	r0, [pc, #124]	; (d44e8 <_Z11displayInfov+0x1f0>)
   d446a:	ed8d 7b00 	vstr	d7, [sp]
   d446e:	2100      	movs	r1, #0
   d4470:	f001 fea7 	bl	d61c2 <_ZN5Print11printf_implEbPKcz>
   d4474:	fa5f f38a 	uxtb.w	r3, sl
   d4478:	4a1e      	ldr	r2, [pc, #120]	; (d44f4 <_Z11displayInfov+0x1fc>)
   d447a:	481b      	ldr	r0, [pc, #108]	; (d44e8 <_Z11displayInfov+0x1f0>)
   d447c:	2100      	movs	r1, #0
   d447e:	f001 fea0 	bl	d61c2 <_ZN5Print11printf_implEbPKcz>
			display.printf("Time: %02i:%02i:%02i \n",hr,mn,se);
			display.printf("lat    %f \nlong %f \nalt %f\n", lat,lon,alt);
			display.printf("satelites %i \n", sat);
			display.display();
   d4482:	4819      	ldr	r0, [pc, #100]	; (d44e8 <_Z11displayInfov+0x1f0>)
   d4484:	f000 fb90 	bl	d4ba8 <_ZN16Adafruit_SSD13067displayEv>

			if(digitalRead(D2)) {
   d4488:	2002      	movs	r0, #2
   d448a:	f002 fe71 	bl	d7170 <digitalRead>
   d448e:	b1b8      	cbz	r0, d44c0 <_Z11displayInfov+0x1c8>
				sendJSON(lat,lon,alt);
   d4490:	ee01 7a10 	vmov	s2, r7
   d4494:	ee00 6a90 	vmov	s1, r6
   d4498:	ee00 5a10 	vmov	s0, r5
				gettingFix = true;
				startFix = millis();
			}
		}
	}
}
   d449c:	b02d      	add	sp, #180	; 0xb4
   d449e:	e8bd 4ff0 	ldmia.w	sp!, {r4, r5, r6, r7, r8, r9, sl, fp, lr}
			display.printf("lat    %f \nlong %f \nalt %f\n", lat,lon,alt);
			display.printf("satelites %i \n", sat);
			display.display();

			if(digitalRead(D2)) {
				sendJSON(lat,lon,alt);
   d44a2:	f7ff be93 	b.w	d41cc <_Z8sendJSONfff>
			}
		}
		else {
			strcpy(buf, "no location");
   d44a6:	4914      	ldr	r1, [pc, #80]	; (d44f8 <_Z11displayInfov+0x200>)
   d44a8:	a80c      	add	r0, sp, #48	; 0x30
   d44aa:	f003 fcef 	bl	d7e8c <strcpy>
			if (!gettingFix) {
   d44ae:	4b0b      	ldr	r3, [pc, #44]	; (d44dc <_Z11displayInfov+0x1e4>)
   d44b0:	781a      	ldrb	r2, [r3, #0]
   d44b2:	b92a      	cbnz	r2, d44c0 <_Z11displayInfov+0x1c8>
				gettingFix = true;
   d44b4:	2201      	movs	r2, #1
   d44b6:	701a      	strb	r2, [r3, #0]
   d44b8:	f001 fae8 	bl	d5a8c <HAL_Timer_Get_Milli_Seconds>
				startFix = millis();
   d44bc:	4b08      	ldr	r3, [pc, #32]	; (d44e0 <_Z11displayInfov+0x1e8>)
   d44be:	6018      	str	r0, [r3, #0]
			}
		}
	}
}
   d44c0:	b02d      	add	sp, #180	; 0xb4
   d44c2:	e8bd 8ff0 	ldmia.w	sp!, {r4, r5, r6, r7, r8, r9, sl, fp, pc}
   d44c6:	bf00      	nop
   d44c8:	2003e3a4 	.word	0x2003e3a4
   d44cc:	2003e29c 	.word	0x2003e29c
   d44d0:	40590000 	.word	0x40590000
   d44d4:	000d8096 	.word	0x000d8096
   d44d8:	000d80b5 	.word	0x000d80b5
   d44dc:	2003e39c 	.word	0x2003e39c
   d44e0:	2003e3a0 	.word	0x2003e3a0
   d44e4:	000d80d2 	.word	0x000d80d2
   d44e8:	2003e378 	.word	0x2003e378
   d44ec:	000d80f2 	.word	0x000d80f2
   d44f0:	000d8109 	.word	0x000d8109
   d44f4:	000d8125 	.word	0x000d8125
   d44f8:	000d8134 	.word	0x000d8134

000d44fc <loop>:

	pinMode(D2,INPUT_PULLDOWN);
}

void loop()
{
   d44fc:	b508      	push	{r3, lr}
	while (Serial1.available() > 0) {
   d44fe:	f002 fbd1 	bl	d6ca4 <_Z22__fetch_global_Serial1v>
   d4502:	6803      	ldr	r3, [r0, #0]
   d4504:	691b      	ldr	r3, [r3, #16]
   d4506:	4798      	blx	r3
   d4508:	2800      	cmp	r0, #0
   d450a:	dd0d      	ble.n	d4528 <loop+0x2c>
		if (gps.encode(Serial1.read())) {
   d450c:	f002 fbca 	bl	d6ca4 <_Z22__fetch_global_Serial1v>
   d4510:	6803      	ldr	r3, [r0, #0]
   d4512:	695b      	ldr	r3, [r3, #20]
   d4514:	4798      	blx	r3
   d4516:	b2c1      	uxtb	r1, r0
   d4518:	4804      	ldr	r0, [pc, #16]	; (d452c <loop+0x30>)
   d451a:	f001 f9c5 	bl	d58a8 <_ZN11TinyGPSPlus6encodeEc>
   d451e:	2800      	cmp	r0, #0
   d4520:	d0ed      	beq.n	d44fe <loop+0x2>
			displayInfo();
   d4522:	f7ff fee9 	bl	d42f8 <_Z11displayInfov>
   d4526:	e7ea      	b.n	d44fe <loop+0x2>
   d4528:	bd08      	pop	{r3, pc}
   d452a:	bf00      	nop
   d452c:	2003e29c 	.word	0x2003e29c

000d4530 <_ZN16Adafruit_SSD1306D0Ev>:
   d4530:	b510      	push	{r4, lr}
   d4532:	2124      	movs	r1, #36	; 0x24
   d4534:	4604      	mov	r4, r0
   d4536:	f002 fe9f 	bl	d7278 <_ZdlPvj>
   d453a:	4620      	mov	r0, r4
   d453c:	bd10      	pop	{r4, pc}
	...

000d4540 <_GLOBAL__sub_I_display>:
  	display.setCursor(20,5);
  	display.println("Publish");
	display.display();
	display.setTextSize(1);

   d4540:	b538      	push	{r3, r4, r5, lr}
} // namespace particle

// particle::Flag<TagT, ValueT>
template<typename TagT, typename ValueT>
inline particle::Flag<TagT, ValueT>::Flag(ValueT val) :
        val_(val) {
   d4542:	4b0c      	ldr	r3, [pc, #48]	; (d4574 <_GLOBAL__sub_I_display+0x34>)

#include "Adafruit_GFX.h"
#include "Adafruit_SSD1306.h"

#define OLED_RESET D4
Adafruit_SSD1306 display(OLED_RESET);
   d4544:	4d0c      	ldr	r5, [pc, #48]	; (d4578 <_GLOBAL__sub_I_display+0x38>)
   d4546:	2401      	movs	r4, #1
   d4548:	701c      	strb	r4, [r3, #0]

inline void pinSetFast(pin_t _pin) __attribute__((always_inline));
inline void pinResetFast(pin_t _pin) __attribute__((always_inline));
inline int32_t pinReadFast(pin_t _pin) __attribute__((always_inline));

static Hal_Pin_Info* PIN_MAP = HAL_Pin_Map();
   d454a:	f001 fa17 	bl	d597c <HAL_Pin_Map>
   d454e:	2104      	movs	r1, #4
   d4550:	4628      	mov	r0, r5
   d4552:	f000 f9d9 	bl	d4908 <_ZN16Adafruit_SSD1306C1Ea>
   d4556:	4a09      	ldr	r2, [pc, #36]	; (d457c <_GLOBAL__sub_I_display+0x3c>)
   d4558:	4909      	ldr	r1, [pc, #36]	; (d4580 <_GLOBAL__sub_I_display+0x40>)
   d455a:	4628      	mov	r0, r5
   d455c:	f002 fe7e 	bl	d725c <__aeabi_atexit>

SYSTEM_THREAD(ENABLED);
   d4560:	4620      	mov	r0, r4
   d4562:	2100      	movs	r1, #0
   d4564:	f001 fbb2 	bl	d5ccc <system_thread_set_state>
const unsigned long PUBLISH_PERIOD = 120000;
const unsigned long SERIAL_PERIOD = 5000;
const unsigned long MAX_GPS_AGE_MS = 10000; // GPS location must be newer than this to be considered valid

// The TinyGPS++ object
TinyGPSPlus gps;
   d4568:	4806      	ldr	r0, [pc, #24]	; (d4584 <_GLOBAL__sub_I_display+0x44>)
  	display.setCursor(20,5);
  	display.println("Publish");
	display.display();
	display.setTextSize(1);

   d456a:	e8bd 4038 	ldmia.w	sp!, {r3, r4, r5, lr}
const unsigned long PUBLISH_PERIOD = 120000;
const unsigned long SERIAL_PERIOD = 5000;
const unsigned long MAX_GPS_AGE_MS = 10000; // GPS location must be newer than this to be considered valid

// The TinyGPS++ object
TinyGPSPlus gps;
   d456e:	f000 becd 	b.w	d530c <_ZN11TinyGPSPlusC1Ev>
   d4572:	bf00      	nop
   d4574:	2003e374 	.word	0x2003e374
   d4578:	2003e378 	.word	0x2003e378
   d457c:	2003e298 	.word	0x2003e298
   d4580:	000d40cd 	.word	0x000d40cd
   d4584:	2003e29c 	.word	0x2003e29c

000d4588 <_ZN16Adafruit_SSD130613drawFastHLineEssst>:
  } else {
    shiftOut(sid, sclk, MSBFIRST, d);		// SSD1306 specs show MSB out first
  }
}

void Adafruit_SSD1306::drawFastHLine(int16_t x, int16_t y, int16_t w, uint16_t color) {
   d4588:	b5f0      	push	{r4, r5, r6, r7, lr}
  boolean bSwap = false;
  switch(rotation) { 
   d458a:	7e44      	ldrb	r4, [r0, #25]
  } else {
    shiftOut(sid, sclk, MSBFIRST, d);		// SSD1306 specs show MSB out first
  }
}

void Adafruit_SSD1306::drawFastHLine(int16_t x, int16_t y, int16_t w, uint16_t color) {
   d458c:	f8bd 5014 	ldrh.w	r5, [sp, #20]
  boolean bSwap = false;
  switch(rotation) { 
   d4590:	2c02      	cmp	r4, #2
   d4592:	d008      	beq.n	d45a6 <_ZN16Adafruit_SSD130613drawFastHLineEssst+0x1e>
   d4594:	2c03      	cmp	r4, #3
   d4596:	d00f      	beq.n	d45b8 <_ZN16Adafruit_SSD130613drawFastHLineEssst+0x30>
   d4598:	2c01      	cmp	r4, #1
   d459a:	d170      	bne.n	d467e <_ZN16Adafruit_SSD130613drawFastHLineEssst+0xf6>
      break;
    case 1:
      // 90 degree rotation, swap x & y for rotation, then invert x
      bSwap = true;
      swap(x, y);
      x = WIDTH - x - 1;
   d459c:	8904      	ldrh	r4, [r0, #8]
   d459e:	3c01      	subs	r4, #1
   d45a0:	1aa2      	subs	r2, r4, r2
   d45a2:	b212      	sxth	r2, r2
      break;
   d45a4:	e00c      	b.n	d45c0 <_ZN16Adafruit_SSD130613drawFastHLineEssst+0x38>
    case 2:
      // 180 degree rotation, invert x and y - then shift y around for height.
      x = WIDTH - x - 1;
      y = HEIGHT - y - 1;
   d45a6:	8944      	ldrh	r4, [r0, #10]
   d45a8:	3c01      	subs	r4, #1
   d45aa:	1aa2      	subs	r2, r4, r2
      x -= (w-1);
   d45ac:	8904      	ldrh	r4, [r0, #8]
   d45ae:	1ae4      	subs	r4, r4, r3
   d45b0:	1a61      	subs	r1, r4, r1
      x = WIDTH - x - 1;
      break;
    case 2:
      // 180 degree rotation, invert x and y - then shift y around for height.
      x = WIDTH - x - 1;
      y = HEIGHT - y - 1;
   d45b2:	b212      	sxth	r2, r2
      x -= (w-1);
   d45b4:	b209      	sxth	r1, r1
      break;
   d45b6:	e062      	b.n	d467e <_ZN16Adafruit_SSD130613drawFastHLineEssst+0xf6>
    case 3:
      // 270 degree rotation, swap x & y for rotation, then invert y  and adjust y for w (not to become h)
      bSwap = true;
      swap(x, y);
      y = HEIGHT - y - 1;
      y -= (w-1);
   d45b8:	8944      	ldrh	r4, [r0, #10]
   d45ba:	1ae4      	subs	r4, r4, r3
   d45bc:	1a61      	subs	r1, r4, r1
   d45be:	b209      	sxth	r1, r1


void Adafruit_SSD1306::drawFastVLineInternal(int16_t x, int16_t __y, int16_t __h, uint16_t color) {

  // do nothing if we're off the left or right side of the screen
  if(x < 0 || x >= WIDTH) { return; }
   d45c0:	2a00      	cmp	r2, #0
   d45c2:	db5b      	blt.n	d467c <_ZN16Adafruit_SSD130613drawFastHLineEssst+0xf4>
   d45c4:	f9b0 4008 	ldrsh.w	r4, [r0, #8]
   d45c8:	4294      	cmp	r4, r2
   d45ca:	f340 8090 	ble.w	d46ee <_ZN16Adafruit_SSD130613drawFastHLineEssst+0x166>

  // make sure we don't try to draw below 0
  if(__y < 0) { 
   d45ce:	2900      	cmp	r1, #0
    // __y is negative, this will subtract enough from __h to account for __y being 0
    __h += __y;
   d45d0:	bfbe      	ittt	lt
   d45d2:	185b      	addlt	r3, r3, r1
   d45d4:	b21b      	sxthlt	r3, r3
    __y = 0;
   d45d6:	2100      	movlt	r1, #0

  } 

  // make sure we don't go past the height of the display
  if( (__y + __h) > HEIGHT) { 
   d45d8:	f9b0 000a 	ldrsh.w	r0, [r0, #10]
   d45dc:	18cc      	adds	r4, r1, r3
   d45de:	4284      	cmp	r4, r0
    __h = (HEIGHT - __y);
   d45e0:	bfc4      	itt	gt
   d45e2:	1a43      	subgt	r3, r0, r1
   d45e4:	b21b      	sxthgt	r3, r3
  }

  // if our height is now negative, punt 
  if(__h <= 0) { 
   d45e6:	2b00      	cmp	r3, #0
   d45e8:	f340 8081 	ble.w	d46ee <_ZN16Adafruit_SSD130613drawFastHLineEssst+0x166>
    return;
  }

  // this display doesn't need ints for coordinates, use local byte registers for faster juggling
  register uint8_t y = __y;
   d45ec:	b2c9      	uxtb	r1, r1


  // set up the pointer for fast movement through the buffer
  register uint8_t *pBuf = buffer;
  // adjust the buffer pointer for the current row
  pBuf += ((y/8) * SSD1306_LCDWIDTH);
   d45ee:	08c8      	lsrs	r0, r1, #3
  // and offset x columns in
  pBuf += x;
   d45f0:	4f3f      	ldr	r7, [pc, #252]	; (d46f0 <_ZN16Adafruit_SSD130613drawFastHLineEssst+0x168>)
   d45f2:	eb02 12c0 	add.w	r2, r2, r0, lsl #7

  // do the first partial byte, if necessary - this requires some masking
  register uint8_t mod = (y&7);
  if(mod) {
   d45f6:	f011 0107 	ands.w	r1, r1, #7
    return;
  }

  // this display doesn't need ints for coordinates, use local byte registers for faster juggling
  register uint8_t y = __y;
  register uint8_t h = __h;
   d45fa:	b2db      	uxtb	r3, r3
  // set up the pointer for fast movement through the buffer
  register uint8_t *pBuf = buffer;
  // adjust the buffer pointer for the current row
  pBuf += ((y/8) * SSD1306_LCDWIDTH);
  // and offset x columns in
  pBuf += x;
   d45fc:	eb07 0402 	add.w	r4, r7, r2

  // do the first partial byte, if necessary - this requires some masking
  register uint8_t mod = (y&7);
  if(mod) {
   d4600:	d017      	beq.n	d4632 <_ZN16Adafruit_SSD130613drawFastHLineEssst+0xaa>
    // mask off the high n bits we want to set 
    mod = 8-mod;
   d4602:	f1c1 0108 	rsb	r1, r1, #8
   d4606:	b2c8      	uxtb	r0, r1

    // note - lookup table results in a nearly 10% performance improvement in fill* functions
    // register uint8_t mask = ~(0xFF >> (mod));
    static uint8_t premask[8] = {0x00, 0x80, 0xC0, 0xE0, 0xF0, 0xF8, 0xFC, 0xFE };
    register uint8_t mask = premask[mod];
   d4608:	493a      	ldr	r1, [pc, #232]	; (d46f4 <_ZN16Adafruit_SSD130613drawFastHLineEssst+0x16c>)

    // adjust the mask if we're not going to reach the end of this byte
    if( h < mod) { 
   d460a:	4283      	cmp	r3, r0
    mod = 8-mod;

    // note - lookup table results in a nearly 10% performance improvement in fill* functions
    // register uint8_t mask = ~(0xFF >> (mod));
    static uint8_t premask[8] = {0x00, 0x80, 0xC0, 0xE0, 0xF0, 0xF8, 0xFC, 0xFE };
    register uint8_t mask = premask[mod];
   d460c:	5c0e      	ldrb	r6, [r1, r0]

    // adjust the mask if we're not going to reach the end of this byte
    if( h < mod) { 
      mask &= (0XFF >> (mod-h));
   d460e:	bf3f      	itttt	cc
   d4610:	ebc3 0e00 	rsbcc	lr, r3, r0
   d4614:	21ff      	movcc	r1, #255	; 0xff
   d4616:	fa41 f10e 	asrcc.w	r1, r1, lr
   d461a:	400e      	andcc	r6, r1
   d461c:	5cb9      	ldrb	r1, [r7, r2]
    }

    if(color == WHITE) { 
   d461e:	2d01      	cmp	r5, #1
      *pBuf |= mask;
   d4620:	bf0c      	ite	eq
   d4622:	4331      	orreq	r1, r6
    } else {
      *pBuf &= ~mask;
   d4624:	43b1      	bicne	r1, r6
    }

    // fast exit if we're done here!
    if(h<mod) { return; }
   d4626:	4283      	cmp	r3, r0
    }

    if(color == WHITE) { 
      *pBuf |= mask;
    } else {
      *pBuf &= ~mask;
   d4628:	54b9      	strb	r1, [r7, r2]
    }

    // fast exit if we're done here!
    if(h<mod) { return; }
   d462a:	d360      	bcc.n	d46ee <_ZN16Adafruit_SSD130613drawFastHLineEssst+0x166>

    h -= mod;
   d462c:	1a18      	subs	r0, r3, r0
   d462e:	b2c3      	uxtb	r3, r0

    pBuf += SSD1306_LCDWIDTH;
   d4630:	3480      	adds	r4, #128	; 0x80
  }


  // write solid bytes while we can - effectively doing 8 rows at a time
  if(h >= 8) { 
   d4632:	2b07      	cmp	r3, #7
   d4634:	d917      	bls.n	d4666 <_ZN16Adafruit_SSD130613drawFastHLineEssst+0xde>
    // store a local value to work with 
    register uint8_t val = (color == WHITE) ? 255 : 0;
   d4636:	2d01      	cmp	r5, #1
   d4638:	bf0c      	ite	eq
   d463a:	20ff      	moveq	r0, #255	; 0xff
   d463c:	2000      	movne	r0, #0
   d463e:	f104 0180 	add.w	r1, r4, #128	; 0x80
   d4642:	461a      	mov	r2, r3

      // adjust the buffer forward 8 rows worth of data
      pBuf += SSD1306_LCDWIDTH;

      // adjust h & y (there's got to be a faster way for me to do this, but this should still help a fair bit for now)
      h -= 8;
   d4644:	3a08      	subs	r2, #8
   d4646:	b2d2      	uxtb	r2, r2
    } while(h >= 8);
   d4648:	2a07      	cmp	r2, #7
    // store a local value to work with 
    register uint8_t val = (color == WHITE) ? 255 : 0;

    do  {
      // write our value in
      *pBuf = val;
   d464a:	f801 0c80 	strb.w	r0, [r1, #-128]
   d464e:	f101 0180 	add.w	r1, r1, #128	; 0x80
      // adjust the buffer forward 8 rows worth of data
      pBuf += SSD1306_LCDWIDTH;

      // adjust h & y (there's got to be a faster way for me to do this, but this should still help a fair bit for now)
      h -= 8;
    } while(h >= 8);
   d4652:	d8f7      	bhi.n	d4644 <_ZN16Adafruit_SSD130613drawFastHLineEssst+0xbc>
   d4654:	f1a3 0208 	sub.w	r2, r3, #8
   d4658:	f3c2 02c4 	ubfx	r2, r2, #3, #5
   d465c:	3201      	adds	r2, #1
   d465e:	eb04 14c2 	add.w	r4, r4, r2, lsl #7
   d4662:	f003 0307 	and.w	r3, r3, #7
  }

  // now do the final partial byte, if necessary
  if(h) {
   d4666:	2b00      	cmp	r3, #0
   d4668:	d041      	beq.n	d46ee <_ZN16Adafruit_SSD130613drawFastHLineEssst+0x166>
    mod = h & 7;
    // this time we want to mask the low bits of the byte, vs the high bits we did above
    // register uint8_t mask = (1 << mod) - 1;
    // note - lookup table results in a nearly 10% performance improvement in fill* functions
    static uint8_t postmask[8] = {0x00, 0x01, 0x03, 0x07, 0x0F, 0x1F, 0x3F, 0x7F };
    register uint8_t mask = postmask[mod];
   d466a:	4a23      	ldr	r2, [pc, #140]	; (d46f8 <_ZN16Adafruit_SSD130613drawFastHLineEssst+0x170>)
   d466c:	5cd2      	ldrb	r2, [r2, r3]
   d466e:	7823      	ldrb	r3, [r4, #0]
    if(color == WHITE) { 
   d4670:	2d01      	cmp	r5, #1
      *pBuf |= mask;
   d4672:	bf0c      	ite	eq
   d4674:	4313      	orreq	r3, r2
    } else { 
      *pBuf &= ~mask;
   d4676:	4393      	bicne	r3, r2
   d4678:	7023      	strb	r3, [r4, #0]
   d467a:	bdf0      	pop	{r4, r5, r6, r7, pc}
   d467c:	bdf0      	pop	{r4, r5, r6, r7, pc}
  }
}

void Adafruit_SSD1306::drawFastHLineInternal(int16_t x, int16_t y, int16_t w, uint16_t color) {
  // Do bounds/limit checks
  if(y < 0 || y >= HEIGHT) { return; }
   d467e:	2a00      	cmp	r2, #0
   d4680:	db35      	blt.n	d46ee <_ZN16Adafruit_SSD130613drawFastHLineEssst+0x166>
   d4682:	f9b0 400a 	ldrsh.w	r4, [r0, #10]
   d4686:	4294      	cmp	r4, r2
   d4688:	dd31      	ble.n	d46ee <_ZN16Adafruit_SSD130613drawFastHLineEssst+0x166>

  // make sure we don't try to draw below 0
  if(x < 0) { 
   d468a:	2900      	cmp	r1, #0
    w += x;
   d468c:	bfbc      	itt	lt
   d468e:	18c9      	addlt	r1, r1, r3
   d4690:	b20b      	sxthlt	r3, r1
    x = 0;
  }

  // make sure we don't go off the edge of the display
  if( (x + w) > WIDTH) { 
   d4692:	f9b0 7008 	ldrsh.w	r7, [r0, #8]
  if(y < 0 || y >= HEIGHT) { return; }

  // make sure we don't try to draw below 0
  if(x < 0) { 
    w += x;
    x = 0;
   d4696:	bfb8      	it	lt
   d4698:	2100      	movlt	r1, #0
  }

  // make sure we don't go off the edge of the display
  if( (x + w) > WIDTH) { 
   d469a:	18ce      	adds	r6, r1, r3
   d469c:	42be      	cmp	r6, r7
    w = (HEIGHT- x);
   d469e:	bfc4      	itt	gt
   d46a0:	1a63      	subgt	r3, r4, r1
   d46a2:	b21b      	sxthgt	r3, r3
  }

  // if our width is now negative, punt
  if(w <= 0) { return; }
   d46a4:	2b00      	cmp	r3, #0
   d46a6:	dd22      	ble.n	d46ee <_ZN16Adafruit_SSD130613drawFastHLineEssst+0x166>

  // set up the pointer for  movement through the buffer
  register uint8_t *pBuf = buffer;
  // adjust the buffer pointer for the current row
  pBuf += ((y/8) * SSD1306_LCDWIDTH);
   d46a8:	10d0      	asrs	r0, r2, #3
  // and offset x columns in
  pBuf += x;
   d46aa:	eb01 11c0 	add.w	r1, r1, r0, lsl #7
   d46ae:	4810      	ldr	r0, [pc, #64]	; (d46f0 <_ZN16Adafruit_SSD130613drawFastHLineEssst+0x168>)

  register uint8_t mask = 1 << (y&7);
   d46b0:	f002 0207 	and.w	r2, r2, #7
  // set up the pointer for  movement through the buffer
  register uint8_t *pBuf = buffer;
  // adjust the buffer pointer for the current row
  pBuf += ((y/8) * SSD1306_LCDWIDTH);
  // and offset x columns in
  pBuf += x;
   d46b4:	4401      	add	r1, r0

  register uint8_t mask = 1 << (y&7);
   d46b6:	2001      	movs	r0, #1
   d46b8:	fa00 f202 	lsl.w	r2, r0, r2

  if(color == WHITE) { 
   d46bc:	4285      	cmp	r5, r0
  // adjust the buffer pointer for the current row
  pBuf += ((y/8) * SSD1306_LCDWIDTH);
  // and offset x columns in
  pBuf += x;

  register uint8_t mask = 1 << (y&7);
   d46be:	b2d2      	uxtb	r2, r2

  if(color == WHITE) { 
   d46c0:	d109      	bne.n	d46d6 <_ZN16Adafruit_SSD130613drawFastHLineEssst+0x14e>
   d46c2:	3b01      	subs	r3, #1
   d46c4:	b21b      	sxth	r3, r3
    while(w--) { *pBuf++ |= mask; }
   d46c6:	1c5c      	adds	r4, r3, #1
   d46c8:	d011      	beq.n	d46ee <_ZN16Adafruit_SSD130613drawFastHLineEssst+0x166>
   d46ca:	f811 0b01 	ldrb.w	r0, [r1], #1
   d46ce:	4310      	orrs	r0, r2
   d46d0:	f801 0c01 	strb.w	r0, [r1, #-1]
   d46d4:	e7f5      	b.n	d46c2 <_ZN16Adafruit_SSD130613drawFastHLineEssst+0x13a>
  } else {
    mask = ~mask;
   d46d6:	43d2      	mvns	r2, r2
   d46d8:	b2d2      	uxtb	r2, r2
   d46da:	3b01      	subs	r3, #1
   d46dc:	b21b      	sxth	r3, r3
    while(w--) { *pBuf++ &= mask; }
   d46de:	1c58      	adds	r0, r3, #1
   d46e0:	d005      	beq.n	d46ee <_ZN16Adafruit_SSD130613drawFastHLineEssst+0x166>
   d46e2:	f811 0b01 	ldrb.w	r0, [r1], #1
   d46e6:	4010      	ands	r0, r2
   d46e8:	f801 0c01 	strb.w	r0, [r1, #-1]
   d46ec:	e7f5      	b.n	d46da <_ZN16Adafruit_SSD130613drawFastHLineEssst+0x152>
   d46ee:	bdf0      	pop	{r4, r5, r6, r7, pc}
   d46f0:	2003de2c 	.word	0x2003de2c
   d46f4:	2003de24 	.word	0x2003de24
   d46f8:	2003de1c 	.word	0x2003de1c

000d46fc <_ZN16Adafruit_SSD130613drawFastVLineEssst>:
  }
}

void Adafruit_SSD1306::drawFastVLine(int16_t x, int16_t y, int16_t h, uint16_t color) {
   d46fc:	b5f0      	push	{r4, r5, r6, r7, lr}
  bool bSwap = false;
  switch(rotation) { 
   d46fe:	7e44      	ldrb	r4, [r0, #25]
    mask = ~mask;
    while(w--) { *pBuf++ &= mask; }
  }
}

void Adafruit_SSD1306::drawFastVLine(int16_t x, int16_t y, int16_t h, uint16_t color) {
   d4700:	f8bd 5014 	ldrh.w	r5, [sp, #20]
  bool bSwap = false;
  switch(rotation) { 
   d4704:	2c02      	cmp	r4, #2
   d4706:	d008      	beq.n	d471a <_ZN16Adafruit_SSD130613drawFastVLineEssst+0x1e>
   d4708:	2c03      	cmp	r4, #3
   d470a:	d00f      	beq.n	d472c <_ZN16Adafruit_SSD130613drawFastVLineEssst+0x30>
   d470c:	2c01      	cmp	r4, #1
   d470e:	d112      	bne.n	d4736 <_ZN16Adafruit_SSD130613drawFastVLineEssst+0x3a>
    case 1:
      // 90 degree rotation, swap x & y for rotation, then invert x and adjust x for h (now to become w)
      bSwap = true;
      swap(x, y);
      x = WIDTH - x - 1;
      x -= (h-1);
   d4710:	8904      	ldrh	r4, [r0, #8]
   d4712:	1ae4      	subs	r4, r4, r3
   d4714:	1aa2      	subs	r2, r4, r2
   d4716:	b212      	sxth	r2, r2
      break;
   d4718:	e06d      	b.n	d47f6 <_ZN16Adafruit_SSD130613drawFastVLineEssst+0xfa>
    case 2:
      // 180 degree rotation, invert x and y - then shift y around for height.
      x = WIDTH - x - 1;
   d471a:	8904      	ldrh	r4, [r0, #8]
   d471c:	3c01      	subs	r4, #1
   d471e:	1a61      	subs	r1, r4, r1
      y = HEIGHT - y - 1;
      y -= (h-1);
   d4720:	8944      	ldrh	r4, [r0, #10]
   d4722:	1ae4      	subs	r4, r4, r3
   d4724:	1aa2      	subs	r2, r4, r2
      x = WIDTH - x - 1;
      x -= (h-1);
      break;
    case 2:
      // 180 degree rotation, invert x and y - then shift y around for height.
      x = WIDTH - x - 1;
   d4726:	b209      	sxth	r1, r1
      y = HEIGHT - y - 1;
      y -= (h-1);
   d4728:	b212      	sxth	r2, r2
      break;
   d472a:	e004      	b.n	d4736 <_ZN16Adafruit_SSD130613drawFastVLineEssst+0x3a>
    case 3:
      // 270 degree rotation, swap x & y for rotation, then invert y 
      bSwap = true;
      swap(x, y);
      y = HEIGHT - y - 1;
   d472c:	8944      	ldrh	r4, [r0, #10]
   d472e:	3c01      	subs	r4, #1
   d4730:	1a61      	subs	r1, r4, r1
   d4732:	b209      	sxth	r1, r1
      break;
   d4734:	e05f      	b.n	d47f6 <_ZN16Adafruit_SSD130613drawFastVLineEssst+0xfa>


void Adafruit_SSD1306::drawFastVLineInternal(int16_t x, int16_t __y, int16_t __h, uint16_t color) {

  // do nothing if we're off the left or right side of the screen
  if(x < 0 || x >= WIDTH) { return; }
   d4736:	2900      	cmp	r1, #0
   d4738:	db5c      	blt.n	d47f4 <_ZN16Adafruit_SSD130613drawFastVLineEssst+0xf8>
   d473a:	f9b0 4008 	ldrsh.w	r4, [r0, #8]
   d473e:	428c      	cmp	r4, r1
   d4740:	f340 8091 	ble.w	d4866 <_ZN16Adafruit_SSD130613drawFastVLineEssst+0x16a>

  // make sure we don't try to draw below 0
  if(__y < 0) { 
   d4744:	2a00      	cmp	r2, #0
    // __y is negative, this will subtract enough from __h to account for __y being 0
    __h += __y;
   d4746:	bfbc      	itt	lt
   d4748:	18d2      	addlt	r2, r2, r3
   d474a:	b213      	sxthlt	r3, r2
    __y = 0;

  } 

  // make sure we don't go past the height of the display
  if( (__y + __h) > HEIGHT) { 
   d474c:	f9b0 000a 	ldrsh.w	r0, [r0, #10]

  // make sure we don't try to draw below 0
  if(__y < 0) { 
    // __y is negative, this will subtract enough from __h to account for __y being 0
    __h += __y;
    __y = 0;
   d4750:	bfb8      	it	lt
   d4752:	2200      	movlt	r2, #0

  } 

  // make sure we don't go past the height of the display
  if( (__y + __h) > HEIGHT) { 
   d4754:	18d4      	adds	r4, r2, r3
   d4756:	4284      	cmp	r4, r0
    __h = (HEIGHT - __y);
   d4758:	bfc4      	itt	gt
   d475a:	1a83      	subgt	r3, r0, r2
   d475c:	b21b      	sxthgt	r3, r3
  }

  // if our height is now negative, punt 
  if(__h <= 0) { 
   d475e:	2b00      	cmp	r3, #0
   d4760:	f340 8081 	ble.w	d4866 <_ZN16Adafruit_SSD130613drawFastVLineEssst+0x16a>
    return;
  }

  // this display doesn't need ints for coordinates, use local byte registers for faster juggling
  register uint8_t y = __y;
   d4764:	b2d4      	uxtb	r4, r2
  // set up the pointer for fast movement through the buffer
  register uint8_t *pBuf = buffer;
  // adjust the buffer pointer for the current row
  pBuf += ((y/8) * SSD1306_LCDWIDTH);
  // and offset x columns in
  pBuf += x;
   d4766:	4e40      	ldr	r6, [pc, #256]	; (d4868 <_ZN16Adafruit_SSD130613drawFastVLineEssst+0x16c>)
    return;
  }

  // this display doesn't need ints for coordinates, use local byte registers for faster juggling
  register uint8_t y = __y;
  register uint8_t h = __h;
   d4768:	b2da      	uxtb	r2, r3


  // set up the pointer for fast movement through the buffer
  register uint8_t *pBuf = buffer;
  // adjust the buffer pointer for the current row
  pBuf += ((y/8) * SSD1306_LCDWIDTH);
   d476a:	08e3      	lsrs	r3, r4, #3
  // and offset x columns in
  pBuf += x;
   d476c:	eb01 11c3 	add.w	r1, r1, r3, lsl #7

  // do the first partial byte, if necessary - this requires some masking
  register uint8_t mod = (y&7);
  if(mod) {
   d4770:	f014 0407 	ands.w	r4, r4, #7
  // set up the pointer for fast movement through the buffer
  register uint8_t *pBuf = buffer;
  // adjust the buffer pointer for the current row
  pBuf += ((y/8) * SSD1306_LCDWIDTH);
  // and offset x columns in
  pBuf += x;
   d4774:	eb06 0301 	add.w	r3, r6, r1

  // do the first partial byte, if necessary - this requires some masking
  register uint8_t mod = (y&7);
  if(mod) {
   d4778:	d017      	beq.n	d47aa <_ZN16Adafruit_SSD130613drawFastVLineEssst+0xae>
    // mask off the high n bits we want to set 
    mod = 8-mod;
   d477a:	f1c4 0408 	rsb	r4, r4, #8
   d477e:	b2e0      	uxtb	r0, r4

    // note - lookup table results in a nearly 10% performance improvement in fill* functions
    // register uint8_t mask = ~(0xFF >> (mod));
    static uint8_t premask[8] = {0x00, 0x80, 0xC0, 0xE0, 0xF0, 0xF8, 0xFC, 0xFE };
    register uint8_t mask = premask[mod];
   d4780:	4c3a      	ldr	r4, [pc, #232]	; (d486c <_ZN16Adafruit_SSD130613drawFastVLineEssst+0x170>)

    // adjust the mask if we're not going to reach the end of this byte
    if( h < mod) { 
   d4782:	4282      	cmp	r2, r0
    mod = 8-mod;

    // note - lookup table results in a nearly 10% performance improvement in fill* functions
    // register uint8_t mask = ~(0xFF >> (mod));
    static uint8_t premask[8] = {0x00, 0x80, 0xC0, 0xE0, 0xF0, 0xF8, 0xFC, 0xFE };
    register uint8_t mask = premask[mod];
   d4784:	5c27      	ldrb	r7, [r4, r0]

    // adjust the mask if we're not going to reach the end of this byte
    if( h < mod) { 
      mask &= (0XFF >> (mod-h));
   d4786:	bf3f      	itttt	cc
   d4788:	ebc2 0e00 	rsbcc	lr, r2, r0
   d478c:	24ff      	movcc	r4, #255	; 0xff
   d478e:	fa44 f40e 	asrcc.w	r4, r4, lr
   d4792:	4027      	andcc	r7, r4
   d4794:	5c74      	ldrb	r4, [r6, r1]
    }

    if(color == WHITE) { 
   d4796:	2d01      	cmp	r5, #1
      *pBuf |= mask;
   d4798:	bf0c      	ite	eq
   d479a:	433c      	orreq	r4, r7
    } else {
      *pBuf &= ~mask;
   d479c:	43bc      	bicne	r4, r7
    }

    // fast exit if we're done here!
    if(h<mod) { return; }
   d479e:	4282      	cmp	r2, r0
    }

    if(color == WHITE) { 
      *pBuf |= mask;
    } else {
      *pBuf &= ~mask;
   d47a0:	5474      	strb	r4, [r6, r1]
    }

    // fast exit if we're done here!
    if(h<mod) { return; }
   d47a2:	d360      	bcc.n	d4866 <_ZN16Adafruit_SSD130613drawFastVLineEssst+0x16a>

    h -= mod;
   d47a4:	1a10      	subs	r0, r2, r0
   d47a6:	b2c2      	uxtb	r2, r0

    pBuf += SSD1306_LCDWIDTH;
   d47a8:	3380      	adds	r3, #128	; 0x80
  }


  // write solid bytes while we can - effectively doing 8 rows at a time
  if(h >= 8) { 
   d47aa:	2a07      	cmp	r2, #7
   d47ac:	d917      	bls.n	d47de <_ZN16Adafruit_SSD130613drawFastVLineEssst+0xe2>
    // store a local value to work with 
    register uint8_t val = (color == WHITE) ? 255 : 0;
   d47ae:	2d01      	cmp	r5, #1
   d47b0:	bf0c      	ite	eq
   d47b2:	24ff      	moveq	r4, #255	; 0xff
   d47b4:	2400      	movne	r4, #0
   d47b6:	f103 0080 	add.w	r0, r3, #128	; 0x80
   d47ba:	4611      	mov	r1, r2

      // adjust the buffer forward 8 rows worth of data
      pBuf += SSD1306_LCDWIDTH;

      // adjust h & y (there's got to be a faster way for me to do this, but this should still help a fair bit for now)
      h -= 8;
   d47bc:	3908      	subs	r1, #8
   d47be:	b2c9      	uxtb	r1, r1
    } while(h >= 8);
   d47c0:	2907      	cmp	r1, #7
    // store a local value to work with 
    register uint8_t val = (color == WHITE) ? 255 : 0;

    do  {
      // write our value in
      *pBuf = val;
   d47c2:	f800 4c80 	strb.w	r4, [r0, #-128]
   d47c6:	f100 0080 	add.w	r0, r0, #128	; 0x80
      // adjust the buffer forward 8 rows worth of data
      pBuf += SSD1306_LCDWIDTH;

      // adjust h & y (there's got to be a faster way for me to do this, but this should still help a fair bit for now)
      h -= 8;
    } while(h >= 8);
   d47ca:	d8f7      	bhi.n	d47bc <_ZN16Adafruit_SSD130613drawFastVLineEssst+0xc0>
   d47cc:	f1a2 0108 	sub.w	r1, r2, #8
   d47d0:	f3c1 01c4 	ubfx	r1, r1, #3, #5
   d47d4:	3101      	adds	r1, #1
   d47d6:	eb03 13c1 	add.w	r3, r3, r1, lsl #7
   d47da:	f002 0207 	and.w	r2, r2, #7
  }

  // now do the final partial byte, if necessary
  if(h) {
   d47de:	2a00      	cmp	r2, #0
   d47e0:	d041      	beq.n	d4866 <_ZN16Adafruit_SSD130613drawFastVLineEssst+0x16a>
    mod = h & 7;
    // this time we want to mask the low bits of the byte, vs the high bits we did above
    // register uint8_t mask = (1 << mod) - 1;
    // note - lookup table results in a nearly 10% performance improvement in fill* functions
    static uint8_t postmask[8] = {0x00, 0x01, 0x03, 0x07, 0x0F, 0x1F, 0x3F, 0x7F };
    register uint8_t mask = postmask[mod];
   d47e2:	4923      	ldr	r1, [pc, #140]	; (d4870 <_ZN16Adafruit_SSD130613drawFastVLineEssst+0x174>)
   d47e4:	5c89      	ldrb	r1, [r1, r2]
   d47e6:	781a      	ldrb	r2, [r3, #0]
    if(color == WHITE) { 
   d47e8:	2d01      	cmp	r5, #1
      *pBuf |= mask;
   d47ea:	bf0c      	ite	eq
   d47ec:	430a      	orreq	r2, r1
    } else { 
      *pBuf &= ~mask;
   d47ee:	438a      	bicne	r2, r1
   d47f0:	701a      	strb	r2, [r3, #0]
  if(bSwap) { 
    drawFastHLineInternal(x, y, h, color);
  } else {
    drawFastVLineInternal(x, y, h, color);
  }
}
   d47f2:	bdf0      	pop	{r4, r5, r6, r7, pc}
   d47f4:	bdf0      	pop	{r4, r5, r6, r7, pc}
  }
}

void Adafruit_SSD1306::drawFastHLineInternal(int16_t x, int16_t y, int16_t w, uint16_t color) {
  // Do bounds/limit checks
  if(y < 0 || y >= HEIGHT) { return; }
   d47f6:	2900      	cmp	r1, #0
   d47f8:	db35      	blt.n	d4866 <_ZN16Adafruit_SSD130613drawFastVLineEssst+0x16a>
   d47fa:	f9b0 400a 	ldrsh.w	r4, [r0, #10]
   d47fe:	428c      	cmp	r4, r1
   d4800:	dd31      	ble.n	d4866 <_ZN16Adafruit_SSD130613drawFastVLineEssst+0x16a>

  // make sure we don't try to draw below 0
  if(x < 0) { 
   d4802:	2a00      	cmp	r2, #0
    w += x;
   d4804:	bfbc      	itt	lt
   d4806:	18d2      	addlt	r2, r2, r3
   d4808:	b213      	sxthlt	r3, r2
    x = 0;
  }

  // make sure we don't go off the edge of the display
  if( (x + w) > WIDTH) { 
   d480a:	f9b0 7008 	ldrsh.w	r7, [r0, #8]
  if(y < 0 || y >= HEIGHT) { return; }

  // make sure we don't try to draw below 0
  if(x < 0) { 
    w += x;
    x = 0;
   d480e:	bfb8      	it	lt
   d4810:	2200      	movlt	r2, #0
  }

  // make sure we don't go off the edge of the display
  if( (x + w) > WIDTH) { 
   d4812:	18d6      	adds	r6, r2, r3
   d4814:	42be      	cmp	r6, r7
    w = (HEIGHT- x);
   d4816:	bfc4      	itt	gt
   d4818:	1aa3      	subgt	r3, r4, r2
   d481a:	b21b      	sxthgt	r3, r3
  }

  // if our width is now negative, punt
  if(w <= 0) { return; }
   d481c:	2b00      	cmp	r3, #0
   d481e:	dd22      	ble.n	d4866 <_ZN16Adafruit_SSD130613drawFastVLineEssst+0x16a>

  // set up the pointer for  movement through the buffer
  register uint8_t *pBuf = buffer;
  // adjust the buffer pointer for the current row
  pBuf += ((y/8) * SSD1306_LCDWIDTH);
   d4820:	10c8      	asrs	r0, r1, #3
  // and offset x columns in
  pBuf += x;
   d4822:	eb02 12c0 	add.w	r2, r2, r0, lsl #7
   d4826:	4810      	ldr	r0, [pc, #64]	; (d4868 <_ZN16Adafruit_SSD130613drawFastVLineEssst+0x16c>)

  register uint8_t mask = 1 << (y&7);
   d4828:	f001 0107 	and.w	r1, r1, #7
  // set up the pointer for  movement through the buffer
  register uint8_t *pBuf = buffer;
  // adjust the buffer pointer for the current row
  pBuf += ((y/8) * SSD1306_LCDWIDTH);
  // and offset x columns in
  pBuf += x;
   d482c:	4410      	add	r0, r2

  register uint8_t mask = 1 << (y&7);
   d482e:	2201      	movs	r2, #1
   d4830:	fa02 f101 	lsl.w	r1, r2, r1

  if(color == WHITE) { 
   d4834:	4295      	cmp	r5, r2
  // adjust the buffer pointer for the current row
  pBuf += ((y/8) * SSD1306_LCDWIDTH);
  // and offset x columns in
  pBuf += x;

  register uint8_t mask = 1 << (y&7);
   d4836:	b2c9      	uxtb	r1, r1

  if(color == WHITE) { 
   d4838:	d109      	bne.n	d484e <_ZN16Adafruit_SSD130613drawFastVLineEssst+0x152>
   d483a:	1e5a      	subs	r2, r3, #1
   d483c:	b213      	sxth	r3, r2
    while(w--) { *pBuf++ |= mask; }
   d483e:	1c5c      	adds	r4, r3, #1
   d4840:	d011      	beq.n	d4866 <_ZN16Adafruit_SSD130613drawFastVLineEssst+0x16a>
   d4842:	f810 2b01 	ldrb.w	r2, [r0], #1
   d4846:	430a      	orrs	r2, r1
   d4848:	f800 2c01 	strb.w	r2, [r0, #-1]
   d484c:	e7f5      	b.n	d483a <_ZN16Adafruit_SSD130613drawFastVLineEssst+0x13e>
  } else {
    mask = ~mask;
   d484e:	43c9      	mvns	r1, r1
   d4850:	b2c9      	uxtb	r1, r1
   d4852:	1e5a      	subs	r2, r3, #1
   d4854:	b213      	sxth	r3, r2
    while(w--) { *pBuf++ &= mask; }
   d4856:	1c5a      	adds	r2, r3, #1
   d4858:	d005      	beq.n	d4866 <_ZN16Adafruit_SSD130613drawFastVLineEssst+0x16a>
   d485a:	f810 2b01 	ldrb.w	r2, [r0], #1
   d485e:	400a      	ands	r2, r1
   d4860:	f800 2c01 	strb.w	r2, [r0, #-1]
   d4864:	e7f5      	b.n	d4852 <_ZN16Adafruit_SSD130613drawFastVLineEssst+0x156>
   d4866:	bdf0      	pop	{r4, r5, r6, r7, pc}
   d4868:	2003de2c 	.word	0x2003de2c
   d486c:	2003de24 	.word	0x2003de24
   d4870:	2003de1c 	.word	0x2003de1c

000d4874 <_ZN16Adafruit_SSD13069drawPixelEsst>:
};



// the most basic function, set a single pixel
void Adafruit_SSD1306::drawPixel(int16_t x, int16_t y, uint16_t color) {
   d4874:	b5f8      	push	{r3, r4, r5, r6, r7, lr}
  if ((x < 0) || (x >= width()) || (y < 0) || (y >= height()))
   d4876:	1e0d      	subs	r5, r1, #0
};



// the most basic function, set a single pixel
void Adafruit_SSD1306::drawPixel(int16_t x, int16_t y, uint16_t color) {
   d4878:	4606      	mov	r6, r0
   d487a:	4614      	mov	r4, r2
   d487c:	461f      	mov	r7, r3
  if ((x < 0) || (x >= width()) || (y < 0) || (y >= height()))
   d487e:	db3f      	blt.n	d4900 <_ZN16Adafruit_SSD13069drawPixelEsst+0x8c>
   d4880:	f000 fbd4 	bl	d502c <_ZN12Adafruit_GFX5widthEv>
   d4884:	4285      	cmp	r5, r0
   d4886:	da3b      	bge.n	d4900 <_ZN16Adafruit_SSD13069drawPixelEsst+0x8c>
   d4888:	2c00      	cmp	r4, #0
   d488a:	db39      	blt.n	d4900 <_ZN16Adafruit_SSD13069drawPixelEsst+0x8c>
   d488c:	4630      	mov	r0, r6
   d488e:	f000 fbd0 	bl	d5032 <_ZN12Adafruit_GFX6heightEv>
   d4892:	4284      	cmp	r4, r0
   d4894:	da34      	bge.n	d4900 <_ZN16Adafruit_SSD13069drawPixelEsst+0x8c>
    return;

  // check rotation, move pixel around if necessary
  switch (getRotation()) {
   d4896:	4630      	mov	r0, r6
   d4898:	f000 fbc6 	bl	d5028 <_ZN12Adafruit_GFX11getRotationEv>
   d489c:	2802      	cmp	r0, #2
   d489e:	d127      	bne.n	d48f0 <_ZN16Adafruit_SSD13069drawPixelEsst+0x7c>
  case 1:
    swap(x, y);
    x = WIDTH - x - 1;
    break;
  case 2:
    x = WIDTH - x - 1;
   d48a0:	8931      	ldrh	r1, [r6, #8]
    y = HEIGHT - y - 1;
   d48a2:	8970      	ldrh	r0, [r6, #10]
  case 1:
    swap(x, y);
    x = WIDTH - x - 1;
    break;
  case 2:
    x = WIDTH - x - 1;
   d48a4:	3901      	subs	r1, #1
    y = HEIGHT - y - 1;
   d48a6:	3801      	subs	r0, #1
  case 1:
    swap(x, y);
    x = WIDTH - x - 1;
    break;
  case 2:
    x = WIDTH - x - 1;
   d48a8:	1b49      	subs	r1, r1, r5
    y = HEIGHT - y - 1;
   d48aa:	1b00      	subs	r0, r0, r4
  case 1:
    swap(x, y);
    x = WIDTH - x - 1;
    break;
  case 2:
    x = WIDTH - x - 1;
   d48ac:	b20d      	sxth	r5, r1
    y = HEIGHT - y - 1;
   d48ae:	b204      	sxth	r4, r0
   d48b0:	e006      	b.n	d48c0 <_ZN16Adafruit_SSD13069drawPixelEsst+0x4c>
void Adafruit_SSD1306::drawPixel(int16_t x, int16_t y, uint16_t color) {
  if ((x < 0) || (x >= width()) || (y < 0) || (y >= height()))
    return;

  // check rotation, move pixel around if necessary
  switch (getRotation()) {
   d48b2:	2801      	cmp	r0, #1
   d48b4:	d104      	bne.n	d48c0 <_ZN16Adafruit_SSD13069drawPixelEsst+0x4c>
  case 1:
    swap(x, y);
    x = WIDTH - x - 1;
   d48b6:	8933      	ldrh	r3, [r6, #8]
   d48b8:	3b01      	subs	r3, #1
   d48ba:	1b1b      	subs	r3, r3, r4
   d48bc:	462c      	mov	r4, r5
   d48be:	b21d      	sxth	r5, r3
   d48c0:	2008      	movs	r0, #8
    y = HEIGHT - y - 1;
    break;
  }  

  // x is which column
  if (color == WHITE) 
   d48c2:	2f01      	cmp	r7, #1
    buffer[x+ (y/8)*SSD1306_LCDWIDTH] |= (1 << (y&7));  
   d48c4:	fb94 f0f0 	sdiv	r0, r4, r0
   d48c8:	b200      	sxth	r0, r0
   d48ca:	4b0e      	ldr	r3, [pc, #56]	; (d4904 <_ZN16Adafruit_SSD13069drawPixelEsst+0x90>)
   d48cc:	f004 0207 	and.w	r2, r4, #7
   d48d0:	eb05 11c0 	add.w	r1, r5, r0, lsl #7
    y = HEIGHT - y - 1;
    break;
  }  

  // x is which column
  if (color == WHITE) 
   d48d4:	d104      	bne.n	d48e0 <_ZN16Adafruit_SSD13069drawPixelEsst+0x6c>
    buffer[x+ (y/8)*SSD1306_LCDWIDTH] |= (1 << (y&7));  
   d48d6:	4097      	lsls	r7, r2
   d48d8:	5c5a      	ldrb	r2, [r3, r1]
   d48da:	4317      	orrs	r7, r2
   d48dc:	545f      	strb	r7, [r3, r1]
   d48de:	bdf8      	pop	{r3, r4, r5, r6, r7, pc}
  else
    buffer[x+ (y/8)*SSD1306_LCDWIDTH] &= ~(1 << (y&7)); 
   d48e0:	5c58      	ldrb	r0, [r3, r1]
   d48e2:	2701      	movs	r7, #1
   d48e4:	fa07 f202 	lsl.w	r2, r7, r2
   d48e8:	ea20 0202 	bic.w	r2, r0, r2
   d48ec:	545a      	strb	r2, [r3, r1]
   d48ee:	bdf8      	pop	{r3, r4, r5, r6, r7, pc}
void Adafruit_SSD1306::drawPixel(int16_t x, int16_t y, uint16_t color) {
  if ((x < 0) || (x >= width()) || (y < 0) || (y >= height()))
    return;

  // check rotation, move pixel around if necessary
  switch (getRotation()) {
   d48f0:	2803      	cmp	r0, #3
   d48f2:	d1de      	bne.n	d48b2 <_ZN16Adafruit_SSD13069drawPixelEsst+0x3e>
    x = WIDTH - x - 1;
    y = HEIGHT - y - 1;
    break;
  case 3:
    swap(x, y);
    y = HEIGHT - y - 1;
   d48f4:	8973      	ldrh	r3, [r6, #10]
   d48f6:	3b01      	subs	r3, #1
   d48f8:	1b5b      	subs	r3, r3, r5
   d48fa:	4625      	mov	r5, r4
   d48fc:	b21c      	sxth	r4, r3
   d48fe:	e7df      	b.n	d48c0 <_ZN16Adafruit_SSD13069drawPixelEsst+0x4c>
   d4900:	bdf8      	pop	{r3, r4, r5, r6, r7, pc}
   d4902:	bf00      	nop
   d4904:	2003de2c 	.word	0x2003de2c

000d4908 <_ZN16Adafruit_SSD1306C1Ea>:
  cs = CS;
  hwSPI = true;
}

// initializer for I2C - we only indicate the reset pin!
Adafruit_SSD1306::Adafruit_SSD1306(int8_t reset) :
   d4908:	b538      	push	{r3, r4, r5, lr}
Adafruit_GFX(SSD1306_LCDWIDTH, SSD1306_LCDHEIGHT) {
   d490a:	2240      	movs	r2, #64	; 0x40
  cs = CS;
  hwSPI = true;
}

// initializer for I2C - we only indicate the reset pin!
Adafruit_SSD1306::Adafruit_SSD1306(int8_t reset) :
   d490c:	4604      	mov	r4, r0
   d490e:	460d      	mov	r5, r1
Adafruit_GFX(SSD1306_LCDWIDTH, SSD1306_LCDHEIGHT) {
   d4910:	2180      	movs	r1, #128	; 0x80
   d4912:	f000 fa9f 	bl	d4e54 <_ZN12Adafruit_GFXC1Ess>
   d4916:	4b06      	ldr	r3, [pc, #24]	; (d4930 <_ZN16Adafruit_SSD1306C1Ea+0x28>)
   d4918:	6023      	str	r3, [r4, #0]
  sclk = dc = cs = sid = -1;
   d491a:	23ff      	movs	r3, #255	; 0xff
   d491c:	7763      	strb	r3, [r4, #29]
   d491e:	f884 3021 	strb.w	r3, [r4, #33]	; 0x21
   d4922:	77e3      	strb	r3, [r4, #31]
   d4924:	77a3      	strb	r3, [r4, #30]
  rst = reset;
   d4926:	f884 5020 	strb.w	r5, [r4, #32]
}
   d492a:	4620      	mov	r0, r4
   d492c:	bd38      	pop	{r3, r4, r5, pc}
   d492e:	bf00      	nop
   d4930:	000d8148 	.word	0x000d8148

000d4934 <_ZN16Adafruit_SSD130612clearDisplayEv>:
  }
}

// clear everything
void Adafruit_SSD1306::clearDisplay(void) {
  memset(buffer, 0, (SSD1306_LCDWIDTH*SSD1306_LCDHEIGHT/8));
   d4934:	f44f 6280 	mov.w	r2, #1024	; 0x400
   d4938:	2100      	movs	r1, #0
   d493a:	4801      	ldr	r0, [pc, #4]	; (d4940 <_ZN16Adafruit_SSD130612clearDisplayEv+0xc>)
   d493c:	f003 ba31 	b.w	d7da2 <memset>
   d4940:	2003de2c 	.word	0x2003de2c

000d4944 <_ZN8particle8SpiProxyIL17HAL_SPI_Interface0EE8instanceEv>:
namespace particle {

template <HAL_SPI_Interface Interface>
class SpiProxy {
public:
    static SPIClass& instance() {
   d4944:	b538      	push	{r3, r4, r5, lr}
        static SPIClass instance(Interface);
   d4946:	4d09      	ldr	r5, [pc, #36]	; (d496c <_ZN8particle8SpiProxyIL17HAL_SPI_Interface0EE8instanceEv+0x28>)
   d4948:	6829      	ldr	r1, [r5, #0]
   d494a:	f011 0401 	ands.w	r4, r1, #1
   d494e:	d10a      	bne.n	d4966 <_ZN8particle8SpiProxyIL17HAL_SPI_Interface0EE8instanceEv+0x22>
   d4950:	4628      	mov	r0, r5
   d4952:	f7ff fbb3 	bl	d40bc <__cxa_guard_acquire>
   d4956:	b130      	cbz	r0, d4966 <_ZN8particle8SpiProxyIL17HAL_SPI_Interface0EE8instanceEv+0x22>
   d4958:	4621      	mov	r1, r4
   d495a:	4805      	ldr	r0, [pc, #20]	; (d4970 <_ZN8particle8SpiProxyIL17HAL_SPI_Interface0EE8instanceEv+0x2c>)
   d495c:	f001 fab6 	bl	d5ecc <_ZN8SPIClassC1E17HAL_SPI_Interface>
   d4960:	4628      	mov	r0, r5
   d4962:	f7ff fbb0 	bl	d40c6 <__cxa_guard_release>
        return instance;
    }
   d4966:	4802      	ldr	r0, [pc, #8]	; (d4970 <_ZN8particle8SpiProxyIL17HAL_SPI_Interface0EE8instanceEv+0x2c>)
   d4968:	bd38      	pop	{r3, r4, r5, pc}
   d496a:	bf00      	nop
   d496c:	2003e3a8 	.word	0x2003e3a8
   d4970:	2003e3ac 	.word	0x2003e3ac

000d4974 <_ZN16Adafruit_SSD130615ssd1306_commandEh>:
  } else {
    ssd1306_command(SSD1306_NORMALDISPLAY);
  }
}

void Adafruit_SSD1306::ssd1306_command(uint8_t c) { 
   d4974:	b538      	push	{r3, r4, r5, lr}
  if (sid != -1)
   d4976:	f990 301d 	ldrsb.w	r3, [r0, #29]
   d497a:	3301      	adds	r3, #1
  } else {
    ssd1306_command(SSD1306_NORMALDISPLAY);
  }
}

void Adafruit_SSD1306::ssd1306_command(uint8_t c) { 
   d497c:	4604      	mov	r4, r0
   d497e:	460d      	mov	r5, r1
  if (sid != -1)
   d4980:	d028      	beq.n	d49d4 <_ZN16Adafruit_SSD130615ssd1306_commandEh+0x60>
  {
    // SPI
    digitalWrite(cs, HIGH);
   d4982:	f990 0021 	ldrsb.w	r0, [r0, #33]	; 0x21
   d4986:	2101      	movs	r1, #1
   d4988:	b280      	uxth	r0, r0
   d498a:	f002 fbd8 	bl	d713e <digitalWrite>
    digitalWrite(dc, LOW);
   d498e:	f994 001f 	ldrsb.w	r0, [r4, #31]
   d4992:	2100      	movs	r1, #0
   d4994:	b280      	uxth	r0, r0
   d4996:	f002 fbd2 	bl	d713e <digitalWrite>
    digitalWrite(cs, LOW);
   d499a:	f994 0021 	ldrsb.w	r0, [r4, #33]	; 0x21
   d499e:	2100      	movs	r1, #0
   d49a0:	b280      	uxth	r0, r0
   d49a2:	f002 fbcc 	bl	d713e <digitalWrite>
}


inline void Adafruit_SSD1306::fastSPIwrite(uint8_t d) {
  
  if(hwSPI) {
   d49a6:	f894 3022 	ldrb.w	r3, [r4, #34]	; 0x22
   d49aa:	b12b      	cbz	r3, d49b8 <_ZN16Adafruit_SSD130615ssd1306_commandEh+0x44>
    }
    static void computeClockDivider(unsigned reference, unsigned targetSpeed, uint8_t& divider, unsigned& clock) {
        instance().computeClockDivider(reference, targetSpeed, divider, clock);
    }
    byte transfer(byte data) {
        return instance().transfer(data);
   d49ac:	f7ff ffca 	bl	d4944 <_ZN8particle8SpiProxyIL17HAL_SPI_Interface0EE8instanceEv>
   d49b0:	4629      	mov	r1, r5
   d49b2:	f001 fb35 	bl	d6020 <_ZN8SPIClass8transferEh>
   d49b6:	e005      	b.n	d49c4 <_ZN16Adafruit_SSD130615ssd1306_commandEh+0x50>
    (void)SPI.transfer(d);
  } else {
    shiftOut(sid, sclk, MSBFIRST, d);		// SSD1306 specs show MSB out first
   d49b8:	462b      	mov	r3, r5
   d49ba:	2201      	movs	r2, #1
   d49bc:	7fa1      	ldrb	r1, [r4, #30]
   d49be:	7f60      	ldrb	r0, [r4, #29]
   d49c0:	f002 fbe9 	bl	d7196 <shiftOut>
    // SPI
    digitalWrite(cs, HIGH);
    digitalWrite(dc, LOW);
    digitalWrite(cs, LOW);
    fastSPIwrite(c);
    digitalWrite(cs, HIGH);
   d49c4:	f994 0021 	ldrsb.w	r0, [r4, #33]	; 0x21
   d49c8:	2101      	movs	r1, #1
   d49ca:	b280      	uxth	r0, r0
    Wire.beginTransmission(_i2caddr);
    Wire.write(control);
    Wire.write(c);
    Wire.endTransmission();
  }
}
   d49cc:	e8bd 4038 	ldmia.w	sp!, {r3, r4, r5, lr}
    // SPI
    digitalWrite(cs, HIGH);
    digitalWrite(dc, LOW);
    digitalWrite(cs, LOW);
    fastSPIwrite(c);
    digitalWrite(cs, HIGH);
   d49d0:	f002 bbb5 	b.w	d713e <digitalWrite>
  }
  else
  {
    // I2C
    uint8_t control = 0x00;   // Co = 0, D/C = 0
    Wire.beginTransmission(_i2caddr);
   d49d4:	f002 fc1c 	bl	d7210 <_Z19__fetch_global_Wirev>
   d49d8:	f994 101b 	ldrsb.w	r1, [r4, #27]
   d49dc:	f002 f9e4 	bl	d6da8 <_ZN7TwoWire17beginTransmissionEi>
    Wire.write(control);
   d49e0:	f002 fc16 	bl	d7210 <_Z19__fetch_global_Wirev>
   d49e4:	6803      	ldr	r3, [r0, #0]
   d49e6:	2100      	movs	r1, #0
   d49e8:	689b      	ldr	r3, [r3, #8]
   d49ea:	4798      	blx	r3
    Wire.write(c);
   d49ec:	f002 fc10 	bl	d7210 <_Z19__fetch_global_Wirev>
   d49f0:	6803      	ldr	r3, [r0, #0]
   d49f2:	4629      	mov	r1, r5
   d49f4:	689b      	ldr	r3, [r3, #8]
   d49f6:	4798      	blx	r3
    Wire.endTransmission();
   d49f8:	f002 fc0a 	bl	d7210 <_Z19__fetch_global_Wirev>
  }
}
   d49fc:	e8bd 4038 	ldmia.w	sp!, {r3, r4, r5, lr}
    // I2C
    uint8_t control = 0x00;   // Co = 0, D/C = 0
    Wire.beginTransmission(_i2caddr);
    Wire.write(control);
    Wire.write(c);
    Wire.endTransmission();
   d4a00:	f002 b9d9 	b.w	d6db6 <_ZN7TwoWire15endTransmissionEv>

000d4a04 <_ZN16Adafruit_SSD13065beginEhh>:
  sclk = dc = cs = sid = -1;
  rst = reset;
}
  

void Adafruit_SSD1306::begin(uint8_t vccstate, uint8_t i2caddr) {
   d4a04:	b538      	push	{r3, r4, r5, lr}
   d4a06:	4604      	mov	r4, r0
   d4a08:	460d      	mov	r5, r1
  _vccstate = vccstate;
   d4a0a:	7721      	strb	r1, [r4, #28]
  _i2caddr = i2caddr;

  // set pin directions
  if (sid != -1){
   d4a0c:	f990 301d 	ldrsb.w	r3, [r0, #29]
}
  

void Adafruit_SSD1306::begin(uint8_t vccstate, uint8_t i2caddr) {
  _vccstate = vccstate;
  _i2caddr = i2caddr;
   d4a10:	76c2      	strb	r2, [r0, #27]

  // set pin directions
  if (sid != -1){
   d4a12:	3301      	adds	r3, #1
   d4a14:	d037      	beq.n	d4a86 <_ZN16Adafruit_SSD13065beginEhh+0x82>
    pinMode(dc, OUTPUT);
   d4a16:	f990 001f 	ldrsb.w	r0, [r0, #31]
   d4a1a:	2101      	movs	r1, #1
   d4a1c:	b280      	uxth	r0, r0
   d4a1e:	f002 fb7d 	bl	d711c <pinMode>
    pinMode(cs, OUTPUT);
   d4a22:	f994 0021 	ldrsb.w	r0, [r4, #33]	; 0x21
   d4a26:	2101      	movs	r1, #1
   d4a28:	b280      	uxth	r0, r0
   d4a2a:	f002 fb77 	bl	d711c <pinMode>
    if (!hwSPI){
   d4a2e:	f894 3022 	ldrb.w	r3, [r4, #34]	; 0x22
   d4a32:	b95b      	cbnz	r3, d4a4c <_ZN16Adafruit_SSD13065beginEhh+0x48>
    	// set pins for software-SPI
    	pinMode(sid, OUTPUT);
   d4a34:	f994 001d 	ldrsb.w	r0, [r4, #29]
   d4a38:	2101      	movs	r1, #1
   d4a3a:	b280      	uxth	r0, r0
   d4a3c:	f002 fb6e 	bl	d711c <pinMode>
    	pinMode(sclk, OUTPUT);
   d4a40:	f994 001e 	ldrsb.w	r0, [r4, #30]
   d4a44:	2101      	movs	r1, #1
   d4a46:	b280      	uxth	r0, r0
   d4a48:	f002 fb68 	bl	d711c <pinMode>
    	}
    if (hwSPI){
   d4a4c:	f894 3022 	ldrb.w	r3, [r4, #34]	; 0x22
   d4a50:	b1eb      	cbz	r3, d4a8e <_ZN16Adafruit_SSD13065beginEhh+0x8a>
        digitalWrite(cs, HIGH);
   d4a52:	f994 0021 	ldrsb.w	r0, [r4, #33]	; 0x21
   d4a56:	2101      	movs	r1, #1
   d4a58:	b280      	uxth	r0, r0
   d4a5a:	f002 fb70 	bl	d713e <digitalWrite>
    }
    void end() {
        instance().end();
    }
    void setBitOrder(uint8_t order) {
        instance().setBitOrder(order);
   d4a5e:	f7ff ff71 	bl	d4944 <_ZN8particle8SpiProxyIL17HAL_SPI_Interface0EE8instanceEv>
   d4a62:	2101      	movs	r1, #1
   d4a64:	f001 fa4d 	bl	d5f02 <_ZN8SPIClass11setBitOrderEh>
    }
    void setClockDividerReference(unsigned value, unsigned scale=HZ) {
        instance().setClockDividerReference(value, scale);
    }
    void setClockDivider(uint8_t divider) {
        instance().setClockDivider(divider);
   d4a68:	f7ff ff6c 	bl	d4944 <_ZN8particle8SpiProxyIL17HAL_SPI_Interface0EE8instanceEv>
   d4a6c:	2110      	movs	r1, #16
   d4a6e:	f001 fab3 	bl	d5fd8 <_ZN8SPIClass15setClockDividerEh>
    }
    void setBitOrder(uint8_t order) {
        instance().setBitOrder(order);
    }
    void setDataMode(uint8_t mode) {
        instance().setDataMode(mode);
   d4a72:	f7ff ff67 	bl	d4944 <_ZN8particle8SpiProxyIL17HAL_SPI_Interface0EE8instanceEv>
   d4a76:	2100      	movs	r1, #0
   d4a78:	f001 fa54 	bl	d5f24 <_ZN8SPIClass11setDataModeEh>
        static SPIClass instance(Interface);
        return instance;
    }

    void begin() {
        instance().begin();
   d4a7c:	f7ff ff62 	bl	d4944 <_ZN8particle8SpiProxyIL17HAL_SPI_Interface0EE8instanceEv>
   d4a80:	f001 fa2e 	bl	d5ee0 <_ZN8SPIClass5beginEv>
   d4a84:	e003      	b.n	d4a8e <_ZN16Adafruit_SSD13065beginEhh+0x8a>
    	}
    }
  else
  {
    // I2C Init
    Wire.begin();
   d4a86:	f002 fbc3 	bl	d7210 <_Z19__fetch_global_Wirev>
   d4a8a:	f002 f983 	bl	d6d94 <_ZN7TwoWire5beginEv>
  }

  // Setup reset pin direction (used by both SPI and I2C)  
  pinMode(rst, OUTPUT);
   d4a8e:	f994 0020 	ldrsb.w	r0, [r4, #32]
   d4a92:	2101      	movs	r1, #1
   d4a94:	b280      	uxth	r0, r0
   d4a96:	f002 fb41 	bl	d711c <pinMode>
  digitalWrite(rst, HIGH);
   d4a9a:	f994 0020 	ldrsb.w	r0, [r4, #32]
   d4a9e:	2101      	movs	r1, #1
   d4aa0:	b280      	uxth	r0, r0
   d4aa2:	f002 fb4c 	bl	d713e <digitalWrite>
  // VDD (3.3V) goes high at start, lets just chill for a ms
  delay(1);
   d4aa6:	2001      	movs	r0, #1
   d4aa8:	f001 fbd8 	bl	d625c <delay>
  // bring reset low
  digitalWrite(rst, LOW);
   d4aac:	f994 0020 	ldrsb.w	r0, [r4, #32]
   d4ab0:	2100      	movs	r1, #0
   d4ab2:	b280      	uxth	r0, r0
   d4ab4:	f002 fb43 	bl	d713e <digitalWrite>
  // wait 10ms
  delay(10);
   d4ab8:	200a      	movs	r0, #10
   d4aba:	f001 fbcf 	bl	d625c <delay>
  // bring out of reset
  digitalWrite(rst, HIGH);
   d4abe:	f994 0020 	ldrsb.w	r0, [r4, #32]
   d4ac2:	2101      	movs	r1, #1
   d4ac4:	b280      	uxth	r0, r0
   d4ac6:	f002 fb3a 	bl	d713e <digitalWrite>
    ssd1306_command(SSD1306_NORMALDISPLAY);                 // 0xA6
  #endif

  #if defined SSD1306_128_64
    // Init sequence for 128x64 OLED module
    ssd1306_command(SSD1306_DISPLAYOFF);                    // 0xAE
   d4aca:	4620      	mov	r0, r4
   d4acc:	21ae      	movs	r1, #174	; 0xae
   d4ace:	f7ff ff51 	bl	d4974 <_ZN16Adafruit_SSD130615ssd1306_commandEh>
    ssd1306_command(SSD1306_SETDISPLAYCLOCKDIV);            // 0xD5
   d4ad2:	4620      	mov	r0, r4
   d4ad4:	21d5      	movs	r1, #213	; 0xd5
   d4ad6:	f7ff ff4d 	bl	d4974 <_ZN16Adafruit_SSD130615ssd1306_commandEh>
    ssd1306_command(0x80);                                  // the suggested ratio 0x80
   d4ada:	4620      	mov	r0, r4
   d4adc:	2180      	movs	r1, #128	; 0x80
   d4ade:	f7ff ff49 	bl	d4974 <_ZN16Adafruit_SSD130615ssd1306_commandEh>
    ssd1306_command(SSD1306_SETMULTIPLEX);                  // 0xA8
   d4ae2:	4620      	mov	r0, r4
   d4ae4:	21a8      	movs	r1, #168	; 0xa8
   d4ae6:	f7ff ff45 	bl	d4974 <_ZN16Adafruit_SSD130615ssd1306_commandEh>
    ssd1306_command(0x3F);
   d4aea:	4620      	mov	r0, r4
   d4aec:	213f      	movs	r1, #63	; 0x3f
   d4aee:	f7ff ff41 	bl	d4974 <_ZN16Adafruit_SSD130615ssd1306_commandEh>
    ssd1306_command(SSD1306_SETDISPLAYOFFSET);              // 0xD3
   d4af2:	4620      	mov	r0, r4
   d4af4:	21d3      	movs	r1, #211	; 0xd3
   d4af6:	f7ff ff3d 	bl	d4974 <_ZN16Adafruit_SSD130615ssd1306_commandEh>
    ssd1306_command(0x0);                                   // no offset
   d4afa:	4620      	mov	r0, r4
   d4afc:	2100      	movs	r1, #0
   d4afe:	f7ff ff39 	bl	d4974 <_ZN16Adafruit_SSD130615ssd1306_commandEh>
    ssd1306_command(SSD1306_SETSTARTLINE | 0x0);            // line #0
   d4b02:	4620      	mov	r0, r4
   d4b04:	2140      	movs	r1, #64	; 0x40
   d4b06:	f7ff ff35 	bl	d4974 <_ZN16Adafruit_SSD130615ssd1306_commandEh>
    ssd1306_command(SSD1306_CHARGEPUMP);                    // 0x8D
   d4b0a:	218d      	movs	r1, #141	; 0x8d
   d4b0c:	4620      	mov	r0, r4
   d4b0e:	f7ff ff31 	bl	d4974 <_ZN16Adafruit_SSD130615ssd1306_commandEh>
    if (vccstate == SSD1306_EXTERNALVCC) 
   d4b12:	2d01      	cmp	r5, #1
      { ssd1306_command(0x10); }
   d4b14:	bf0c      	ite	eq
   d4b16:	2110      	moveq	r1, #16
    else 
      { ssd1306_command(0x14); }
   d4b18:	2114      	movne	r1, #20
   d4b1a:	4620      	mov	r0, r4
   d4b1c:	f7ff ff2a 	bl	d4974 <_ZN16Adafruit_SSD130615ssd1306_commandEh>
    ssd1306_command(SSD1306_MEMORYMODE);                    // 0x20
   d4b20:	4620      	mov	r0, r4
   d4b22:	2120      	movs	r1, #32
   d4b24:	f7ff ff26 	bl	d4974 <_ZN16Adafruit_SSD130615ssd1306_commandEh>
    ssd1306_command(0x00);                                  // 0x0 act like ks0108
   d4b28:	4620      	mov	r0, r4
   d4b2a:	2100      	movs	r1, #0
   d4b2c:	f7ff ff22 	bl	d4974 <_ZN16Adafruit_SSD130615ssd1306_commandEh>
    ssd1306_command(SSD1306_SEGREMAP | 0x1);
   d4b30:	4620      	mov	r0, r4
   d4b32:	21a1      	movs	r1, #161	; 0xa1
   d4b34:	f7ff ff1e 	bl	d4974 <_ZN16Adafruit_SSD130615ssd1306_commandEh>
    ssd1306_command(SSD1306_COMSCANDEC);
   d4b38:	4620      	mov	r0, r4
   d4b3a:	21c8      	movs	r1, #200	; 0xc8
   d4b3c:	f7ff ff1a 	bl	d4974 <_ZN16Adafruit_SSD130615ssd1306_commandEh>
    ssd1306_command(SSD1306_SETCOMPINS);                    // 0xDA
   d4b40:	4620      	mov	r0, r4
   d4b42:	21da      	movs	r1, #218	; 0xda
   d4b44:	f7ff ff16 	bl	d4974 <_ZN16Adafruit_SSD130615ssd1306_commandEh>
    ssd1306_command(0x12);
   d4b48:	4620      	mov	r0, r4
   d4b4a:	2112      	movs	r1, #18
   d4b4c:	f7ff ff12 	bl	d4974 <_ZN16Adafruit_SSD130615ssd1306_commandEh>
    ssd1306_command(SSD1306_SETCONTRAST);                   // 0x81
   d4b50:	2181      	movs	r1, #129	; 0x81
   d4b52:	4620      	mov	r0, r4
   d4b54:	f7ff ff0e 	bl	d4974 <_ZN16Adafruit_SSD130615ssd1306_commandEh>
    if (vccstate == SSD1306_EXTERNALVCC) 
   d4b58:	2d01      	cmp	r5, #1
      { ssd1306_command(0x9F); }
   d4b5a:	bf0c      	ite	eq
   d4b5c:	219f      	moveq	r1, #159	; 0x9f
    else 
      { ssd1306_command(0xCF); }
   d4b5e:	21cf      	movne	r1, #207	; 0xcf
   d4b60:	4620      	mov	r0, r4
   d4b62:	f7ff ff07 	bl	d4974 <_ZN16Adafruit_SSD130615ssd1306_commandEh>
    ssd1306_command(SSD1306_SETPRECHARGE);                  // 0xd9
   d4b66:	21d9      	movs	r1, #217	; 0xd9
   d4b68:	4620      	mov	r0, r4
   d4b6a:	f7ff ff03 	bl	d4974 <_ZN16Adafruit_SSD130615ssd1306_commandEh>
    if (vccstate == SSD1306_EXTERNALVCC) 
   d4b6e:	2d01      	cmp	r5, #1
      { ssd1306_command(0x22); }
   d4b70:	bf0c      	ite	eq
   d4b72:	2122      	moveq	r1, #34	; 0x22
    else 
      { ssd1306_command(0xF1); }
   d4b74:	21f1      	movne	r1, #241	; 0xf1
   d4b76:	4620      	mov	r0, r4
   d4b78:	f7ff fefc 	bl	d4974 <_ZN16Adafruit_SSD130615ssd1306_commandEh>
    ssd1306_command(SSD1306_SETVCOMDETECT);                 // 0xDB
   d4b7c:	4620      	mov	r0, r4
   d4b7e:	21db      	movs	r1, #219	; 0xdb
   d4b80:	f7ff fef8 	bl	d4974 <_ZN16Adafruit_SSD130615ssd1306_commandEh>
    ssd1306_command(0x40);
   d4b84:	4620      	mov	r0, r4
   d4b86:	2140      	movs	r1, #64	; 0x40
   d4b88:	f7ff fef4 	bl	d4974 <_ZN16Adafruit_SSD130615ssd1306_commandEh>
    ssd1306_command(SSD1306_DISPLAYALLON_RESUME);           // 0xA4
   d4b8c:	4620      	mov	r0, r4
   d4b8e:	21a4      	movs	r1, #164	; 0xa4
   d4b90:	f7ff fef0 	bl	d4974 <_ZN16Adafruit_SSD130615ssd1306_commandEh>
    ssd1306_command(SSD1306_NORMALDISPLAY);                 // 0xA6
   d4b94:	4620      	mov	r0, r4
   d4b96:	21a6      	movs	r1, #166	; 0xa6
   d4b98:	f7ff feec 	bl	d4974 <_ZN16Adafruit_SSD130615ssd1306_commandEh>
  #endif
  
  ssd1306_command(SSD1306_DISPLAYON);//--turn on oled panel
   d4b9c:	4620      	mov	r0, r4
   d4b9e:	21af      	movs	r1, #175	; 0xaf
}
   d4ba0:	e8bd 4038 	ldmia.w	sp!, {r3, r4, r5, lr}
    ssd1306_command(0x40);
    ssd1306_command(SSD1306_DISPLAYALLON_RESUME);           // 0xA4
    ssd1306_command(SSD1306_NORMALDISPLAY);                 // 0xA6
  #endif
  
  ssd1306_command(SSD1306_DISPLAYON);//--turn on oled panel
   d4ba4:	f7ff bee6 	b.w	d4974 <_ZN16Adafruit_SSD130615ssd1306_commandEh>

000d4ba8 <_ZN16Adafruit_SSD13067displayEv>:
    Wire.write(c);
    Wire.endTransmission();
  }
}

void Adafruit_SSD1306::display(void) {
   d4ba8:	e92d 41f0 	stmdb	sp!, {r4, r5, r6, r7, r8, lr}
  ssd1306_command(SSD1306_COLUMNADDR);
   d4bac:	2121      	movs	r1, #33	; 0x21
    Wire.write(c);
    Wire.endTransmission();
  }
}

void Adafruit_SSD1306::display(void) {
   d4bae:	4604      	mov	r4, r0
  ssd1306_command(SSD1306_COLUMNADDR);
   d4bb0:	f7ff fee0 	bl	d4974 <_ZN16Adafruit_SSD130615ssd1306_commandEh>
  ssd1306_command(0);   // Column start address (0 = reset)
   d4bb4:	2100      	movs	r1, #0
   d4bb6:	4620      	mov	r0, r4
   d4bb8:	f7ff fedc 	bl	d4974 <_ZN16Adafruit_SSD130615ssd1306_commandEh>
  ssd1306_command(127); // Column end address (127 = reset)
   d4bbc:	217f      	movs	r1, #127	; 0x7f
   d4bbe:	4620      	mov	r0, r4
   d4bc0:	f7ff fed8 	bl	d4974 <_ZN16Adafruit_SSD130615ssd1306_commandEh>

  ssd1306_command(SSD1306_PAGEADDR);
   d4bc4:	2122      	movs	r1, #34	; 0x22
   d4bc6:	4620      	mov	r0, r4
   d4bc8:	f7ff fed4 	bl	d4974 <_ZN16Adafruit_SSD130615ssd1306_commandEh>
  ssd1306_command(0); // Page start address (0 = reset)
   d4bcc:	2100      	movs	r1, #0
   d4bce:	4620      	mov	r0, r4
   d4bd0:	f7ff fed0 	bl	d4974 <_ZN16Adafruit_SSD130615ssd1306_commandEh>
  ssd1306_command((SSD1306_LCDHEIGHT == 64) ? 7 : 3); // Page end address
   d4bd4:	2107      	movs	r1, #7
   d4bd6:	4620      	mov	r0, r4
   d4bd8:	f7ff fecc 	bl	d4974 <_ZN16Adafruit_SSD130615ssd1306_commandEh>

  if (sid != -1)
   d4bdc:	f994 301d 	ldrsb.w	r3, [r4, #29]
   d4be0:	f8df 80bc 	ldr.w	r8, [pc, #188]	; d4ca0 <_ZN16Adafruit_SSD13067displayEv+0xf8>
   d4be4:	3301      	adds	r3, #1
   d4be6:	d035      	beq.n	d4c54 <_ZN16Adafruit_SSD13067displayEv+0xac>
  {
    // SPI
    digitalWrite(cs, HIGH);
   d4be8:	f994 0021 	ldrsb.w	r0, [r4, #33]	; 0x21
   d4bec:	2101      	movs	r1, #1
   d4bee:	b280      	uxth	r0, r0
   d4bf0:	f002 faa5 	bl	d713e <digitalWrite>
    digitalWrite(dc, HIGH);
   d4bf4:	f994 001f 	ldrsb.w	r0, [r4, #31]
   d4bf8:	2101      	movs	r1, #1
   d4bfa:	b280      	uxth	r0, r0
   d4bfc:	f002 fa9f 	bl	d713e <digitalWrite>
    digitalWrite(cs, LOW);
   d4c00:	f994 0021 	ldrsb.w	r0, [r4, #33]	; 0x21
   d4c04:	2100      	movs	r1, #0
   d4c06:	b280      	uxth	r0, r0
   d4c08:	f002 fa99 	bl	d713e <digitalWrite>
inline unsigned long micros(void) { return HAL_Timer_Get_Micro_Seconds(); }
void delay(unsigned long ms);
inline void delayMicroseconds(unsigned int us) { HAL_Delay_Microseconds(us); }
   d4c0c:	2001      	movs	r0, #1
   d4c0e:	f000 ff35 	bl	d5a7c <HAL_Delay_Microseconds>
   d4c12:	2500      	movs	r5, #0
}


inline void Adafruit_SSD1306::fastSPIwrite(uint8_t d) {
  
  if(hwSPI) {
   d4c14:	f894 3022 	ldrb.w	r3, [r4, #34]	; 0x22
    digitalWrite(dc, HIGH);
    digitalWrite(cs, LOW);
	delayMicroseconds(1);		// May not be necessary - needs testing

    for (uint16_t i=0; i<(SSD1306_LCDWIDTH*SSD1306_LCDHEIGHT/8); i++) {
      fastSPIwrite(buffer[i]);
   d4c18:	f818 6005 	ldrb.w	r6, [r8, r5]
}


inline void Adafruit_SSD1306::fastSPIwrite(uint8_t d) {
  
  if(hwSPI) {
   d4c1c:	b12b      	cbz	r3, d4c2a <_ZN16Adafruit_SSD13067displayEv+0x82>
    }
    static void computeClockDivider(unsigned reference, unsigned targetSpeed, uint8_t& divider, unsigned& clock) {
        instance().computeClockDivider(reference, targetSpeed, divider, clock);
    }
    byte transfer(byte data) {
        return instance().transfer(data);
   d4c1e:	f7ff fe91 	bl	d4944 <_ZN8particle8SpiProxyIL17HAL_SPI_Interface0EE8instanceEv>
   d4c22:	4631      	mov	r1, r6
   d4c24:	f001 f9fc 	bl	d6020 <_ZN8SPIClass8transferEh>
   d4c28:	e005      	b.n	d4c36 <_ZN16Adafruit_SSD13067displayEv+0x8e>
    (void)SPI.transfer(d);
  } else {
    shiftOut(sid, sclk, MSBFIRST, d);		// SSD1306 specs show MSB out first
   d4c2a:	4633      	mov	r3, r6
   d4c2c:	2201      	movs	r2, #1
   d4c2e:	7fa1      	ldrb	r1, [r4, #30]
   d4c30:	7f60      	ldrb	r0, [r4, #29]
   d4c32:	f002 fab0 	bl	d7196 <shiftOut>
   d4c36:	3501      	adds	r5, #1
    digitalWrite(cs, HIGH);
    digitalWrite(dc, HIGH);
    digitalWrite(cs, LOW);
	delayMicroseconds(1);		// May not be necessary - needs testing

    for (uint16_t i=0; i<(SSD1306_LCDWIDTH*SSD1306_LCDHEIGHT/8); i++) {
   d4c38:	f5b5 6f80 	cmp.w	r5, #1024	; 0x400
   d4c3c:	d1ea      	bne.n	d4c14 <_ZN16Adafruit_SSD13067displayEv+0x6c>
   d4c3e:	2001      	movs	r0, #1
   d4c40:	f000 ff1c 	bl	d5a7c <HAL_Delay_Microseconds>
      fastSPIwrite(buffer[i]);
      //ssd1306_data(buffer[i]);
    }
	delayMicroseconds(1);		// May not be necessary - needs testing
    digitalWrite(cs, HIGH);
   d4c44:	f994 0021 	ldrsb.w	r0, [r4, #33]	; 0x21
   d4c48:	2101      	movs	r1, #1
   d4c4a:	b280      	uxth	r0, r0
		}
	i--;
	Wire.endTransmission();
	}
  }
}
   d4c4c:	e8bd 41f0 	ldmia.w	sp!, {r4, r5, r6, r7, r8, lr}
    for (uint16_t i=0; i<(SSD1306_LCDWIDTH*SSD1306_LCDHEIGHT/8); i++) {
      fastSPIwrite(buffer[i]);
      //ssd1306_data(buffer[i]);
    }
	delayMicroseconds(1);		// May not be necessary - needs testing
    digitalWrite(cs, HIGH);
   d4c50:	f002 ba75 	b.w	d713e <digitalWrite>
   d4c54:	2500      	movs	r5, #0
  else
  {
    // I2C
    for (uint16_t i=0; i<(SSD1306_LCDWIDTH*SSD1306_LCDHEIGHT/8); i++) {
      // send a bunch of data in one xmission
      Wire.beginTransmission(_i2caddr);
   d4c56:	f002 fadb 	bl	d7210 <_Z19__fetch_global_Wirev>
   d4c5a:	f994 101b 	ldrsb.w	r1, [r4, #27]
   d4c5e:	f002 f8a3 	bl	d6da8 <_ZN7TwoWire17beginTransmissionEi>
      Wire.write(0x40);
   d4c62:	f002 fad5 	bl	d7210 <_Z19__fetch_global_Wirev>
  bool unlock();

  inline size_t write(unsigned long n) { return write((uint8_t)n); }
  inline size_t write(long n) { return write((uint8_t)n); }
  inline size_t write(unsigned int n) { return write((uint8_t)n); }
  inline size_t write(int n) { return write((uint8_t)n); }
   d4c66:	6803      	ldr	r3, [r0, #0]
   d4c68:	2140      	movs	r1, #64	; 0x40
   d4c6a:	689b      	ldr	r3, [r3, #8]
   d4c6c:	4798      	blx	r3
   d4c6e:	2600      	movs	r6, #0
      for (uint8_t x=0; x<16; x++) {
		Wire.write(buffer[i]);
   d4c70:	f002 face 	bl	d7210 <_Z19__fetch_global_Wirev>
   d4c74:	19af      	adds	r7, r5, r6
   d4c76:	6803      	ldr	r3, [r0, #0]
   d4c78:	b2bf      	uxth	r7, r7
   d4c7a:	689b      	ldr	r3, [r3, #8]
   d4c7c:	f818 1007 	ldrb.w	r1, [r8, r7]
   d4c80:	3601      	adds	r6, #1
   d4c82:	4798      	blx	r3
    // I2C
    for (uint16_t i=0; i<(SSD1306_LCDWIDTH*SSD1306_LCDHEIGHT/8); i++) {
      // send a bunch of data in one xmission
      Wire.beginTransmission(_i2caddr);
      Wire.write(0x40);
      for (uint8_t x=0; x<16; x++) {
   d4c84:	2e10      	cmp	r6, #16
   d4c86:	d1f3      	bne.n	d4c70 <_ZN16Adafruit_SSD13067displayEv+0xc8>
   d4c88:	3510      	adds	r5, #16
		Wire.write(buffer[i]);
		i++;
		}
	i--;
	Wire.endTransmission();
   d4c8a:	f002 fac1 	bl	d7210 <_Z19__fetch_global_Wirev>
   d4c8e:	b2ad      	uxth	r5, r5
   d4c90:	f002 f891 	bl	d6db6 <_ZN7TwoWire15endTransmissionEv>
    digitalWrite(cs, HIGH);
  }
  else
  {
    // I2C
    for (uint16_t i=0; i<(SSD1306_LCDWIDTH*SSD1306_LCDHEIGHT/8); i++) {
   d4c94:	f5b5 6f80 	cmp.w	r5, #1024	; 0x400
   d4c98:	d1dd      	bne.n	d4c56 <_ZN16Adafruit_SSD13067displayEv+0xae>
		}
	i--;
	Wire.endTransmission();
	}
  }
}
   d4c9a:	e8bd 81f0 	ldmia.w	sp!, {r4, r5, r6, r7, r8, pc}
   d4c9e:	bf00      	nop
   d4ca0:	2003de2c 	.word	0x2003de2c

000d4ca4 <_GLOBAL__sub_I__ZN16Adafruit_SSD13069drawPixelEsst>:
   d4ca4:	f000 be6a 	b.w	d597c <HAL_Pin_Map>

000d4ca8 <_ZN12Adafruit_GFX8drawLineEsssst>:
}

// Bresenham's algorithm - thx wikpedia
void Adafruit_GFX::drawLine(int16_t x0, int16_t y0,
			    int16_t x1, int16_t y1,
			    uint16_t color) {
   d4ca8:	e92d 4ff0 	stmdb	sp!, {r4, r5, r6, r7, r8, r9, sl, fp, lr}
   d4cac:	b085      	sub	sp, #20
   d4cae:	461e      	mov	r6, r3
   d4cb0:	f9bd 3038 	ldrsh.w	r3, [sp, #56]	; 0x38
   d4cb4:	f8bd a03c 	ldrh.w	sl, [sp, #60]	; 0x3c
   d4cb8:	4615      	mov	r5, r2
  int16_t steep = abs(y1 - y0) > abs(x1 - x0);
   d4cba:	1a9a      	subs	r2, r3, r2
   d4cbc:	2a00      	cmp	r2, #0
   d4cbe:	bfb8      	it	lt
   d4cc0:	4252      	neglt	r2, r2
   d4cc2:	9200      	str	r2, [sp, #0]
   d4cc4:	1a72      	subs	r2, r6, r1
   d4cc6:	2a00      	cmp	r2, #0
   d4cc8:	bfb8      	it	lt
   d4cca:	4252      	neglt	r2, r2
   d4ccc:	9201      	str	r2, [sp, #4]
}

// Bresenham's algorithm - thx wikpedia
void Adafruit_GFX::drawLine(int16_t x0, int16_t y0,
			    int16_t x1, int16_t y1,
			    uint16_t color) {
   d4cce:	460c      	mov	r4, r1
  int16_t steep = abs(y1 - y0) > abs(x1 - x0);
  if (steep) {
   d4cd0:	9a00      	ldr	r2, [sp, #0]
   d4cd2:	9901      	ldr	r1, [sp, #4]
   d4cd4:	428a      	cmp	r2, r1
}

// Bresenham's algorithm - thx wikpedia
void Adafruit_GFX::drawLine(int16_t x0, int16_t y0,
			    int16_t x1, int16_t y1,
			    uint16_t color) {
   d4cd6:	4681      	mov	r9, r0
  int16_t steep = abs(y1 - y0) > abs(x1 - x0);
  if (steep) {
   d4cd8:	dd05      	ble.n	d4ce6 <_ZN12Adafruit_GFX8drawLineEsssst+0x3e>
   d4cda:	4632      	mov	r2, r6
    swap(x0, y0);
    swap(x1, y1);
   d4cdc:	461e      	mov	r6, r3
   d4cde:	4613      	mov	r3, r2
// Bresenham's algorithm - thx wikpedia
void Adafruit_GFX::drawLine(int16_t x0, int16_t y0,
			    int16_t x1, int16_t y1,
			    uint16_t color) {
  int16_t steep = abs(y1 - y0) > abs(x1 - x0);
  if (steep) {
   d4ce0:	4622      	mov	r2, r4
    swap(x0, y0);
   d4ce2:	462c      	mov	r4, r5
   d4ce4:	4615      	mov	r5, r2
    swap(x1, y1);
  }

  if (x0 > x1) {
   d4ce6:	42b4      	cmp	r4, r6
   d4ce8:	dd05      	ble.n	d4cf6 <_ZN12Adafruit_GFX8drawLineEsssst+0x4e>
   d4cea:	462a      	mov	r2, r5
    swap(x0, x1);
    swap(y0, y1);
   d4cec:	461d      	mov	r5, r3
   d4cee:	4613      	mov	r3, r2
  if (steep) {
    swap(x0, y0);
    swap(x1, y1);
  }

  if (x0 > x1) {
   d4cf0:	4622      	mov	r2, r4
   d4cf2:	4634      	mov	r4, r6
   d4cf4:	4616      	mov	r6, r2
    swap(y0, y1);
  }

  int16_t dx, dy;
  dx = x1 - x0;
  dy = abs(y1 - y0);
   d4cf6:	1b5a      	subs	r2, r3, r5
   d4cf8:	2a00      	cmp	r2, #0
   d4cfa:	bfb8      	it	lt
   d4cfc:	4252      	neglt	r2, r2
    swap(x0, x1);
    swap(y0, y1);
  }

  int16_t dx, dy;
  dx = x1 - x0;
   d4cfe:	ebc4 0806 	rsb	r8, r4, r6
  int16_t ystep;

  if (y0 < y1) {
    ystep = 1;
  } else {
    ystep = -1;
   d4d02:	429d      	cmp	r5, r3
   d4d04:	bfb4      	ite	lt
   d4d06:	2301      	movlt	r3, #1
   d4d08:	f04f 33ff 	movge.w	r3, #4294967295
    swap(x0, x1);
    swap(y0, y1);
  }

  int16_t dx, dy;
  dx = x1 - x0;
   d4d0c:	fa1f f888 	uxth.w	r8, r8
  int16_t ystep;

  if (y0 < y1) {
    ystep = 1;
  } else {
    ystep = -1;
   d4d10:	9302      	str	r3, [sp, #8]
    swap(y0, y1);
  }

  int16_t dx, dy;
  dx = x1 - x0;
  dy = abs(y1 - y0);
   d4d12:	9203      	str	r2, [sp, #12]

  int16_t err = dx / 2;
   d4d14:	fa0f f788 	sxth.w	r7, r8
   d4d18:	2202      	movs	r2, #2
   d4d1a:	fb97 f7f2 	sdiv	r7, r7, r2
    ystep = 1;
  } else {
    ystep = -1;
  }

  for (; x0<=x1; x0++) {
   d4d1e:	42b4      	cmp	r4, r6
   d4d20:	dc1f      	bgt.n	d4d62 <_ZN12Adafruit_GFX8drawLineEsssst+0xba>
    if (steep) {
   d4d22:	9a01      	ldr	r2, [sp, #4]
   d4d24:	9b00      	ldr	r3, [sp, #0]
   d4d26:	4293      	cmp	r3, r2
   d4d28:	f8d9 3000 	ldr.w	r3, [r9]
      drawPixel(y0, x0, color);
   d4d2c:	bfc8      	it	gt
   d4d2e:	4622      	movgt	r2, r4
   d4d30:	f8d3 b010 	ldr.w	fp, [r3, #16]
   d4d34:	bfc8      	it	gt
   d4d36:	4629      	movgt	r1, r5
   d4d38:	4653      	mov	r3, sl
    } else {
      drawPixel(x0, y0, color);
   d4d3a:	bfdc      	itt	le
   d4d3c:	462a      	movle	r2, r5
   d4d3e:	4621      	movle	r1, r4
   d4d40:	4648      	mov	r0, r9
   d4d42:	47d8      	blx	fp
    }
    err -= dy;
   d4d44:	9b03      	ldr	r3, [sp, #12]
   d4d46:	1aff      	subs	r7, r7, r3
   d4d48:	b2bb      	uxth	r3, r7
   d4d4a:	b21f      	sxth	r7, r3
    if (err < 0) {
   d4d4c:	2f00      	cmp	r7, #0
   d4d4e:	da05      	bge.n	d4d5c <_ZN12Adafruit_GFX8drawLineEsssst+0xb4>
      y0 += ystep;
   d4d50:	9a02      	ldr	r2, [sp, #8]
      err += dx;
   d4d52:	eb08 0703 	add.w	r7, r8, r3
    } else {
      drawPixel(x0, y0, color);
    }
    err -= dy;
    if (err < 0) {
      y0 += ystep;
   d4d56:	4415      	add	r5, r2
   d4d58:	b22d      	sxth	r5, r5
      err += dx;
   d4d5a:	b23f      	sxth	r7, r7
   d4d5c:	3401      	adds	r4, #1
   d4d5e:	b224      	sxth	r4, r4
    ystep = 1;
  } else {
    ystep = -1;
  }

  for (; x0<=x1; x0++) {
   d4d60:	e7dd      	b.n	d4d1e <_ZN12Adafruit_GFX8drawLineEsssst+0x76>
    if (err < 0) {
      y0 += ystep;
      err += dx;
    }
  }
}
   d4d62:	b005      	add	sp, #20
   d4d64:	e8bd 8ff0 	ldmia.w	sp!, {r4, r5, r6, r7, r8, r9, sl, fp, pc}

000d4d68 <_ZN12Adafruit_GFX8drawRectEsssst>:

// Draw a rectangle
void Adafruit_GFX::drawRect(int16_t x, int16_t y,
			    int16_t w, int16_t h,
			    uint16_t color) {
   d4d68:	e92d 47f3 	stmdb	sp!, {r0, r1, r4, r5, r6, r7, r8, r9, sl, lr}
   d4d6c:	f8bd 602c 	ldrh.w	r6, [sp, #44]	; 0x2c
  drawFastHLine(x, y, w, color);
   d4d70:	6807      	ldr	r7, [r0, #0]
}

// Draw a rectangle
void Adafruit_GFX::drawRect(int16_t x, int16_t y,
			    int16_t w, int16_t h,
			    uint16_t color) {
   d4d72:	f9bd a028 	ldrsh.w	sl, [sp, #40]	; 0x28
  drawFastHLine(x, y, w, color);
   d4d76:	9600      	str	r6, [sp, #0]
}

// Draw a rectangle
void Adafruit_GFX::drawRect(int16_t x, int16_t y,
			    int16_t w, int16_t h,
			    uint16_t color) {
   d4d78:	4604      	mov	r4, r0
  drawFastHLine(x, y, w, color);
   d4d7a:	69ff      	ldr	r7, [r7, #28]
}

// Draw a rectangle
void Adafruit_GFX::drawRect(int16_t x, int16_t y,
			    int16_t w, int16_t h,
			    uint16_t color) {
   d4d7c:	4691      	mov	r9, r2
   d4d7e:	460d      	mov	r5, r1
   d4d80:	4698      	mov	r8, r3
  drawFastHLine(x, y, w, color);
   d4d82:	47b8      	blx	r7
  drawFastHLine(x, y+h-1, w, color);
   d4d84:	6823      	ldr	r3, [r4, #0]
   d4d86:	9600      	str	r6, [sp, #0]
   d4d88:	f10a 32ff 	add.w	r2, sl, #4294967295
   d4d8c:	444a      	add	r2, r9
   d4d8e:	69df      	ldr	r7, [r3, #28]
   d4d90:	4629      	mov	r1, r5
   d4d92:	4643      	mov	r3, r8
   d4d94:	4620      	mov	r0, r4
   d4d96:	b212      	sxth	r2, r2
   d4d98:	47b8      	blx	r7
  drawFastVLine(x, y, h, color);
   d4d9a:	6823      	ldr	r3, [r4, #0]
   d4d9c:	9600      	str	r6, [sp, #0]
   d4d9e:	699f      	ldr	r7, [r3, #24]
   d4da0:	464a      	mov	r2, r9
   d4da2:	4653      	mov	r3, sl
   d4da4:	4629      	mov	r1, r5
   d4da6:	4620      	mov	r0, r4
   d4da8:	47b8      	blx	r7
  drawFastVLine(x+w-1, y, h, color);
   d4daa:	6823      	ldr	r3, [r4, #0]
   d4dac:	960a      	str	r6, [sp, #40]	; 0x28
   d4dae:	f108 31ff 	add.w	r1, r8, #4294967295
   d4db2:	4429      	add	r1, r5
   d4db4:	699d      	ldr	r5, [r3, #24]
   d4db6:	464a      	mov	r2, r9
   d4db8:	4653      	mov	r3, sl
   d4dba:	b209      	sxth	r1, r1
   d4dbc:	4620      	mov	r0, r4
   d4dbe:	46ac      	mov	ip, r5
}
   d4dc0:	b002      	add	sp, #8
   d4dc2:	e8bd 47f0 	ldmia.w	sp!, {r4, r5, r6, r7, r8, r9, sl, lr}
			    int16_t w, int16_t h,
			    uint16_t color) {
  drawFastHLine(x, y, w, color);
  drawFastHLine(x, y+h-1, w, color);
  drawFastVLine(x, y, h, color);
  drawFastVLine(x+w-1, y, h, color);
   d4dc6:	4760      	bx	ip

000d4dc8 <_ZN12Adafruit_GFX13drawFastVLineEssst>:
}

void Adafruit_GFX::drawFastVLine(int16_t x, int16_t y,
				 int16_t h, uint16_t color) {
   d4dc8:	b537      	push	{r0, r1, r2, r4, r5, lr}
  // Update in subclasses if desired!
  drawLine(x, y, x, y+h-1, color);
   d4dca:	3b01      	subs	r3, #1
   d4dcc:	4413      	add	r3, r2
   d4dce:	6804      	ldr	r4, [r0, #0]
   d4dd0:	f8bd 5018 	ldrh.w	r5, [sp, #24]
   d4dd4:	9501      	str	r5, [sp, #4]
   d4dd6:	b21b      	sxth	r3, r3
   d4dd8:	9300      	str	r3, [sp, #0]
   d4dda:	6964      	ldr	r4, [r4, #20]
   d4ddc:	460b      	mov	r3, r1
   d4dde:	47a0      	blx	r4
}
   d4de0:	b003      	add	sp, #12
   d4de2:	bd30      	pop	{r4, r5, pc}

000d4de4 <_ZN12Adafruit_GFX13drawFastHLineEssst>:

void Adafruit_GFX::drawFastHLine(int16_t x, int16_t y,
				 int16_t w, uint16_t color) {
   d4de4:	b537      	push	{r0, r1, r2, r4, r5, lr}
  // Update in subclasses if desired!
  drawLine(x, y, x+w-1, y, color);
   d4de6:	f8bd 5018 	ldrh.w	r5, [sp, #24]
   d4dea:	6804      	ldr	r4, [r0, #0]
   d4dec:	e88d 0024 	stmia.w	sp, {r2, r5}
   d4df0:	3b01      	subs	r3, #1
   d4df2:	440b      	add	r3, r1
   d4df4:	6964      	ldr	r4, [r4, #20]
   d4df6:	b21b      	sxth	r3, r3
   d4df8:	47a0      	blx	r4
}
   d4dfa:	b003      	add	sp, #12
   d4dfc:	bd30      	pop	{r4, r5, pc}

000d4dfe <_ZN12Adafruit_GFX8fillRectEsssst>:

void Adafruit_GFX::fillRect(int16_t x, int16_t y, int16_t w, int16_t h,
			    uint16_t color) {
   d4dfe:	e92d 47f3 	stmdb	sp!, {r0, r1, r4, r5, r6, r7, r8, r9, sl, lr}
   d4e02:	f9bd 8028 	ldrsh.w	r8, [sp, #40]	; 0x28
   d4e06:	f8bd 902c 	ldrh.w	r9, [sp, #44]	; 0x2c
   d4e0a:	4605      	mov	r5, r0
   d4e0c:	4617      	mov	r7, r2
  // Update in subclasses if desired!
  for (int16_t i=x; i<x+w; i++) {
   d4e0e:	460c      	mov	r4, r1
   d4e10:	eb01 0a03 	add.w	sl, r1, r3
   d4e14:	4554      	cmp	r4, sl
   d4e16:	da0b      	bge.n	d4e30 <_ZN12Adafruit_GFX8fillRectEsssst+0x32>
    drawFastVLine(i, y, h, color);
   d4e18:	682b      	ldr	r3, [r5, #0]
   d4e1a:	f8cd 9000 	str.w	r9, [sp]
   d4e1e:	699e      	ldr	r6, [r3, #24]
   d4e20:	4621      	mov	r1, r4
   d4e22:	4643      	mov	r3, r8
   d4e24:	463a      	mov	r2, r7
   d4e26:	4628      	mov	r0, r5
   d4e28:	3401      	adds	r4, #1
   d4e2a:	47b0      	blx	r6
   d4e2c:	b224      	sxth	r4, r4
}

void Adafruit_GFX::fillRect(int16_t x, int16_t y, int16_t w, int16_t h,
			    uint16_t color) {
  // Update in subclasses if desired!
  for (int16_t i=x; i<x+w; i++) {
   d4e2e:	e7f1      	b.n	d4e14 <_ZN12Adafruit_GFX8fillRectEsssst+0x16>
    drawFastVLine(i, y, h, color);
  }
}
   d4e30:	b002      	add	sp, #8
   d4e32:	e8bd 87f0 	ldmia.w	sp!, {r4, r5, r6, r7, r8, r9, sl, pc}

000d4e36 <_ZN12Adafruit_GFX10fillScreenEt>:

void Adafruit_GFX::fillScreen(uint16_t color) {
   d4e36:	b513      	push	{r0, r1, r4, lr}
  fillRect(0, 0, _width, _height, color);
   d4e38:	f9b0 200e 	ldrsh.w	r2, [r0, #14]
   d4e3c:	6804      	ldr	r4, [r0, #0]
   d4e3e:	9101      	str	r1, [sp, #4]
   d4e40:	9200      	str	r2, [sp, #0]
   d4e42:	2200      	movs	r2, #0
   d4e44:	f9b0 300c 	ldrsh.w	r3, [r0, #12]
   d4e48:	6a64      	ldr	r4, [r4, #36]	; 0x24
   d4e4a:	4611      	mov	r1, r2
   d4e4c:	47a0      	blx	r4
}
   d4e4e:	b002      	add	sp, #8
   d4e50:	bd10      	pop	{r4, pc}

000d4e52 <_ZN12Adafruit_GFX13invertDisplayEb>:
 
int16_t Adafruit_GFX::height(void) {
  return _height;
}

void Adafruit_GFX::invertDisplay(boolean i) {
   d4e52:	4770      	bx	lr

000d4e54 <_ZN12Adafruit_GFXC1Ess>:
	0x00, 0x19, 0x1D, 0x17, 0x12,
	0x00, 0x3C, 0x3C, 0x3C, 0x3C,
	0x00, 0x00, 0x00, 0x00, 0x00
};

Adafruit_GFX::Adafruit_GFX(int16_t w, int16_t h):
   d4e54:	b530      	push	{r4, r5, lr}
  WIDTH(w), HEIGHT(h)
   d4e56:	8101      	strh	r1, [r0, #8]
  protected:
    void setWriteError(int err = 1) { write_error = err; }
    size_t printf_impl(bool newline, const char* format, ...);

  public:
    Print() : write_error(0) {}
   d4e58:	2400      	movs	r4, #0
   d4e5a:	4d08      	ldr	r5, [pc, #32]	; (d4e7c <_ZN12Adafruit_GFXC1Ess+0x28>)
   d4e5c:	8142      	strh	r2, [r0, #10]
{
  _width    = WIDTH;
   d4e5e:	8181      	strh	r1, [r0, #12]
  _height   = HEIGHT;
   d4e60:	81c2      	strh	r2, [r0, #14]
  rotation  = 0;
  cursor_y  = cursor_x    = 0;
  textsize  = 1;
  textcolor = textbgcolor = 0xFFFF;
   d4e62:	f64f 71ff 	movw	r1, #65535	; 0xffff
{
  _width    = WIDTH;
  _height   = HEIGHT;
  rotation  = 0;
  cursor_y  = cursor_x    = 0;
  textsize  = 1;
   d4e66:	2201      	movs	r2, #1
   d4e68:	6044      	str	r4, [r0, #4]
	0x00, 0x3C, 0x3C, 0x3C, 0x3C,
	0x00, 0x00, 0x00, 0x00, 0x00
};

Adafruit_GFX::Adafruit_GFX(int16_t w, int16_t h):
  WIDTH(w), HEIGHT(h)
   d4e6a:	6005      	str	r5, [r0, #0]
{
  _width    = WIDTH;
  _height   = HEIGHT;
  rotation  = 0;
   d4e6c:	7644      	strb	r4, [r0, #25]
  cursor_y  = cursor_x    = 0;
   d4e6e:	8204      	strh	r4, [r0, #16]
   d4e70:	8244      	strh	r4, [r0, #18]
  textsize  = 1;
   d4e72:	7602      	strb	r2, [r0, #24]
  textcolor = textbgcolor = 0xFFFF;
   d4e74:	82c1      	strh	r1, [r0, #22]
   d4e76:	8281      	strh	r1, [r0, #20]
  wrap      = true;
   d4e78:	7682      	strb	r2, [r0, #26]
}
   d4e7a:	bd30      	pop	{r4, r5, pc}
   d4e7c:	000d8180 	.word	0x000d8180

000d4e80 <_ZN12Adafruit_GFX8drawCharEsshtth>:
  return 1;
}

// Draw a character
void Adafruit_GFX::drawChar(int16_t x, int16_t y, unsigned char c,
			    uint16_t color, uint16_t bg, uint8_t size) {
   d4e80:	e92d 4ff0 	stmdb	sp!, {r4, r5, r6, r7, r8, r9, sl, fp, lr}
   d4e84:	b08f      	sub	sp, #60	; 0x3c
   d4e86:	4605      	mov	r5, r0
   d4e88:	9106      	str	r1, [sp, #24]
   d4e8a:	f8bd 1060 	ldrh.w	r1, [sp, #96]	; 0x60
   d4e8e:	9107      	str	r1, [sp, #28]
   d4e90:	f8bd 1064 	ldrh.w	r1, [sp, #100]	; 0x64
   d4e94:	9108      	str	r1, [sp, #32]

  if((x >= _width)            || // Clip right
   d4e96:	f9b0 100c 	ldrsh.w	r1, [r0, #12]
   d4e9a:	9806      	ldr	r0, [sp, #24]
  return 1;
}

// Draw a character
void Adafruit_GFX::drawChar(int16_t x, int16_t y, unsigned char c,
			    uint16_t color, uint16_t bg, uint8_t size) {
   d4e9c:	f89d 8068 	ldrb.w	r8, [sp, #104]	; 0x68

  if((x >= _width)            || // Clip right
   d4ea0:	4281      	cmp	r1, r0
   d4ea2:	dd7c      	ble.n	d4f9e <_ZN12Adafruit_GFX8drawCharEsshtth+0x11e>
   d4ea4:	f9b5 100e 	ldrsh.w	r1, [r5, #14]
   d4ea8:	4291      	cmp	r1, r2
   d4eaa:	dd78      	ble.n	d4f9e <_ZN12Adafruit_GFX8drawCharEsshtth+0x11e>
     (y >= _height)           || // Clip bottom
     ((x + 6 * size - 1) < 0) || // Clip left
   d4eac:	2106      	movs	r1, #6
// Draw a character
void Adafruit_GFX::drawChar(int16_t x, int16_t y, unsigned char c,
			    uint16_t color, uint16_t bg, uint8_t size) {

  if((x >= _width)            || // Clip right
     (y >= _height)           || // Clip bottom
   d4eae:	fb11 0008 	smlabb	r0, r1, r8, r0
   d4eb2:	2800      	cmp	r0, #0
   d4eb4:	dd73      	ble.n	d4f9e <_ZN12Adafruit_GFX8drawCharEsshtth+0x11e>
     ((x + 6 * size - 1) < 0) || // Clip left
   d4eb6:	eb02 00c8 	add.w	r0, r2, r8, lsl #3
   d4eba:	2800      	cmp	r0, #0
   d4ebc:	dd6f      	ble.n	d4f9e <_ZN12Adafruit_GFX8drawCharEsshtth+0x11e>
  for (int8_t i=0; i<6; i++ ) {
    uint8_t line;
    if (i == 5) 
      line = 0x0;
    else 
      line = pgm_read_byte(font+(c*5)+i);
   d4ebe:	eb03 0383 	add.w	r3, r3, r3, lsl #2
   d4ec2:	b296      	uxth	r6, r2
   d4ec4:	930c      	str	r3, [sp, #48]	; 0x30
   d4ec6:	f106 0308 	add.w	r3, r6, #8
   d4eca:	b29b      	uxth	r3, r3
   d4ecc:	9109      	str	r1, [sp, #36]	; 0x24
   d4ece:	2400      	movs	r4, #0
   d4ed0:	930d      	str	r3, [sp, #52]	; 0x34
     ((y + 8 * size - 1) < 0))   // Clip top
    return;

  for (int8_t i=0; i<6; i++ ) {
    uint8_t line;
    if (i == 5) 
   d4ed2:	2c05      	cmp	r4, #5
      line = 0x0;
    else 
      line = pgm_read_byte(font+(c*5)+i);
   d4ed4:	bf1c      	itt	ne
   d4ed6:	4b33      	ldrne	r3, [pc, #204]	; (d4fa4 <_ZN12Adafruit_GFX8drawCharEsshtth+0x124>)
   d4ed8:	9a0c      	ldrne	r2, [sp, #48]	; 0x30
    for (int8_t j = 0; j<8; j++) {
      if (line & 0x1) {
        if (size == 1) // default size
          drawPixel(x+i, y+j, color);
        else {  // big size
          fillRect(x+(i*size), y+(j*size), size, size, color);
   d4eda:	9605      	str	r6, [sp, #20]
  for (int8_t i=0; i<6; i++ ) {
    uint8_t line;
    if (i == 5) 
      line = 0x0;
    else 
      line = pgm_read_byte(font+(c*5)+i);
   d4edc:	bf16      	itet	ne
   d4ede:	191b      	addne	r3, r3, r4
    return;

  for (int8_t i=0; i<6; i++ ) {
    uint8_t line;
    if (i == 5) 
      line = 0x0;
   d4ee0:	f04f 0900 	moveq.w	r9, #0
    else 
      line = pgm_read_byte(font+(c*5)+i);
   d4ee4:	f813 9002 	ldrbne.w	r9, [r3, r2]
    for (int8_t j = 0; j<8; j++) {
      if (line & 0x1) {
        if (size == 1) // default size
          drawPixel(x+i, y+j, color);
        else {  // big size
          fillRect(x+(i*size), y+(j*size), size, size, color);
   d4ee8:	9604      	str	r6, [sp, #16]
   d4eea:	fa1f f388 	uxth.w	r3, r8
   d4eee:	9303      	str	r3, [sp, #12]
   d4ef0:	9a03      	ldr	r2, [sp, #12]
   d4ef2:	f8bd 3018 	ldrh.w	r3, [sp, #24]
   d4ef6:	fb04 3202 	mla	r2, r4, r2, r3
        } 
      } else if (bg != color) {
        if (size == 1) // default size
          drawPixel(x+i, y+j, bg);
   d4efa:	fa13 f384 	uxtah	r3, r3, r4
    for (int8_t j = 0; j<8; j++) {
      if (line & 0x1) {
        if (size == 1) // default size
          drawPixel(x+i, y+j, color);
        else {  // big size
          fillRect(x+(i*size), y+(j*size), size, size, color);
   d4efe:	b212      	sxth	r2, r2
        } 
      } else if (bg != color) {
        if (size == 1) // default size
          drawPixel(x+i, y+j, bg);
   d4f00:	b21b      	sxth	r3, r3
    for (int8_t j = 0; j<8; j++) {
      if (line & 0x1) {
        if (size == 1) // default size
          drawPixel(x+i, y+j, color);
        else {  // big size
          fillRect(x+(i*size), y+(j*size), size, size, color);
   d4f02:	920a      	str	r2, [sp, #40]	; 0x28
   d4f04:	4637      	mov	r7, r6
        } 
      } else if (bg != color) {
        if (size == 1) // default size
          drawPixel(x+i, y+j, bg);
        else {  // big size
          fillRect(x+i*size, y+j*size, size, size, bg);
   d4f06:	fa0f fa88 	sxth.w	sl, r8
        else {  // big size
          fillRect(x+(i*size), y+(j*size), size, size, color);
        } 
      } else if (bg != color) {
        if (size == 1) // default size
          drawPixel(x+i, y+j, bg);
   d4f0a:	930b      	str	r3, [sp, #44]	; 0x2c
    if (i == 5) 
      line = 0x0;
    else 
      line = pgm_read_byte(font+(c*5)+i);
    for (int8_t j = 0; j<8; j++) {
      if (line & 0x1) {
   d4f0c:	f019 0f01 	tst.w	r9, #1
   d4f10:	d011      	beq.n	d4f36 <_ZN12Adafruit_GFX8drawCharEsshtth+0xb6>
        if (size == 1) // default size
   d4f12:	f1b8 0f01 	cmp.w	r8, #1
   d4f16:	682b      	ldr	r3, [r5, #0]
   d4f18:	d103      	bne.n	d4f22 <_ZN12Adafruit_GFX8drawCharEsshtth+0xa2>
          drawPixel(x+i, y+j, color);
   d4f1a:	f8d3 b010 	ldr.w	fp, [r3, #16]
   d4f1e:	9b07      	ldr	r3, [sp, #28]
   d4f20:	e014      	b.n	d4f4c <_ZN12Adafruit_GFX8drawCharEsshtth+0xcc>
        else {  // big size
          fillRect(x+(i*size), y+(j*size), size, size, color);
   d4f22:	9a07      	ldr	r2, [sp, #28]
   d4f24:	9201      	str	r2, [sp, #4]
   d4f26:	f8cd a000 	str.w	sl, [sp]
   d4f2a:	f8d3 b024 	ldr.w	fp, [r3, #36]	; 0x24
   d4f2e:	f9bd 2010 	ldrsh.w	r2, [sp, #16]
   d4f32:	4653      	mov	r3, sl
   d4f34:	e018      	b.n	d4f68 <_ZN12Adafruit_GFX8drawCharEsshtth+0xe8>
        } 
      } else if (bg != color) {
   d4f36:	9b07      	ldr	r3, [sp, #28]
   d4f38:	9a08      	ldr	r2, [sp, #32]
   d4f3a:	4293      	cmp	r3, r2
   d4f3c:	d017      	beq.n	d4f6e <_ZN12Adafruit_GFX8drawCharEsshtth+0xee>
        if (size == 1) // default size
   d4f3e:	f1b8 0f01 	cmp.w	r8, #1
   d4f42:	682b      	ldr	r3, [r5, #0]
   d4f44:	d107      	bne.n	d4f56 <_ZN12Adafruit_GFX8drawCharEsshtth+0xd6>
          drawPixel(x+i, y+j, bg);
   d4f46:	f8d3 b010 	ldr.w	fp, [r3, #16]
   d4f4a:	4613      	mov	r3, r2
   d4f4c:	b23a      	sxth	r2, r7
   d4f4e:	990b      	ldr	r1, [sp, #44]	; 0x2c
   d4f50:	4628      	mov	r0, r5
   d4f52:	47d8      	blx	fp
   d4f54:	e00b      	b.n	d4f6e <_ZN12Adafruit_GFX8drawCharEsshtth+0xee>
        else {  // big size
          fillRect(x+i*size, y+j*size, size, size, bg);
   d4f56:	9a08      	ldr	r2, [sp, #32]
   d4f58:	9201      	str	r2, [sp, #4]
   d4f5a:	f8cd a000 	str.w	sl, [sp]
   d4f5e:	f9bd 2014 	ldrsh.w	r2, [sp, #20]
   d4f62:	f8d3 b024 	ldr.w	fp, [r3, #36]	; 0x24
   d4f66:	4653      	mov	r3, sl
   d4f68:	990a      	ldr	r1, [sp, #40]	; 0x28
   d4f6a:	4628      	mov	r0, r5
   d4f6c:	47d8      	blx	fp
   d4f6e:	9b04      	ldr	r3, [sp, #16]
   d4f70:	9a03      	ldr	r2, [sp, #12]
   d4f72:	4413      	add	r3, r2
   d4f74:	b29b      	uxth	r3, r3
   d4f76:	9304      	str	r3, [sp, #16]
   d4f78:	9b05      	ldr	r3, [sp, #20]
   d4f7a:	4413      	add	r3, r2
   d4f7c:	b29b      	uxth	r3, r3
   d4f7e:	3701      	adds	r7, #1
   d4f80:	9305      	str	r3, [sp, #20]
    uint8_t line;
    if (i == 5) 
      line = 0x0;
    else 
      line = pgm_read_byte(font+(c*5)+i);
    for (int8_t j = 0; j<8; j++) {
   d4f82:	9b0d      	ldr	r3, [sp, #52]	; 0x34
   d4f84:	b2bf      	uxth	r7, r7
   d4f86:	429f      	cmp	r7, r3
          drawPixel(x+i, y+j, bg);
        else {  // big size
          fillRect(x+i*size, y+j*size, size, size, bg);
        }
      }
      line >>= 1;
   d4f88:	ea4f 0959 	mov.w	r9, r9, lsr #1
    uint8_t line;
    if (i == 5) 
      line = 0x0;
    else 
      line = pgm_read_byte(font+(c*5)+i);
    for (int8_t j = 0; j<8; j++) {
   d4f8c:	d1be      	bne.n	d4f0c <_ZN12Adafruit_GFX8drawCharEsshtth+0x8c>
   d4f8e:	9b09      	ldr	r3, [sp, #36]	; 0x24
   d4f90:	3b01      	subs	r3, #1
     (y >= _height)           || // Clip bottom
     ((x + 6 * size - 1) < 0) || // Clip left
     ((y + 8 * size - 1) < 0))   // Clip top
    return;

  for (int8_t i=0; i<6; i++ ) {
   d4f92:	3401      	adds	r4, #1
   d4f94:	f013 03ff 	ands.w	r3, r3, #255	; 0xff
   d4f98:	b264      	sxtb	r4, r4
   d4f9a:	9309      	str	r3, [sp, #36]	; 0x24
   d4f9c:	d199      	bne.n	d4ed2 <_ZN12Adafruit_GFX8drawCharEsshtth+0x52>
        }
      }
      line >>= 1;
    }
  }
}
   d4f9e:	b00f      	add	sp, #60	; 0x3c
   d4fa0:	e8bd 8ff0 	ldmia.w	sp!, {r4, r5, r6, r7, r8, r9, sl, fp, pc}
   d4fa4:	000d81b0 	.word	0x000d81b0

000d4fa8 <_ZN12Adafruit_GFX5writeEh>:
      }
    }
  }
}

size_t Adafruit_GFX::write(uint8_t c) {
   d4fa8:	b530      	push	{r4, r5, lr}

  if (c == '\n') {
   d4faa:	290a      	cmp	r1, #10
      }
    }
  }
}

size_t Adafruit_GFX::write(uint8_t c) {
   d4fac:	b085      	sub	sp, #20
   d4fae:	4604      	mov	r4, r0
   d4fb0:	460b      	mov	r3, r1

  if (c == '\n') {
   d4fb2:	d104      	bne.n	d4fbe <_ZN12Adafruit_GFX5writeEh+0x16>
    cursor_y += textsize*8;
   d4fb4:	7e02      	ldrb	r2, [r0, #24]
   d4fb6:	8a43      	ldrh	r3, [r0, #18]
   d4fb8:	eb03 03c2 	add.w	r3, r3, r2, lsl #3
   d4fbc:	e023      	b.n	d5006 <_ZN12Adafruit_GFX5writeEh+0x5e>
    cursor_x  = 0;
  } else if (c == '\r') {
   d4fbe:	290d      	cmp	r1, #13
   d4fc0:	d024      	beq.n	d500c <_ZN12Adafruit_GFX5writeEh+0x64>
    // skip em
  } else {
    drawChar(cursor_x, cursor_y, c, textcolor, textbgcolor, textsize);
   d4fc2:	7e05      	ldrb	r5, [r0, #24]
   d4fc4:	f9b0 2012 	ldrsh.w	r2, [r0, #18]
   d4fc8:	f9b0 1010 	ldrsh.w	r1, [r0, #16]
   d4fcc:	9502      	str	r5, [sp, #8]
   d4fce:	8ac5      	ldrh	r5, [r0, #22]
   d4fd0:	9501      	str	r5, [sp, #4]
   d4fd2:	8a85      	ldrh	r5, [r0, #20]
   d4fd4:	9500      	str	r5, [sp, #0]
   d4fd6:	f7ff ff53 	bl	d4e80 <_ZN12Adafruit_GFX8drawCharEsshtth>
    cursor_x += textsize*6;
   d4fda:	7e22      	ldrb	r2, [r4, #24]
   d4fdc:	8a23      	ldrh	r3, [r4, #16]
   d4fde:	b291      	uxth	r1, r2
   d4fe0:	eb01 0041 	add.w	r0, r1, r1, lsl #1
   d4fe4:	eb03 0340 	add.w	r3, r3, r0, lsl #1
    if (wrap && (cursor_x > (_width - textsize*6))) {
   d4fe8:	7ea0      	ldrb	r0, [r4, #26]
    cursor_x  = 0;
  } else if (c == '\r') {
    // skip em
  } else {
    drawChar(cursor_x, cursor_y, c, textcolor, textbgcolor, textsize);
    cursor_x += textsize*6;
   d4fea:	b21b      	sxth	r3, r3
   d4fec:	8223      	strh	r3, [r4, #16]
    if (wrap && (cursor_x > (_width - textsize*6))) {
   d4fee:	b168      	cbz	r0, d500c <_ZN12Adafruit_GFX5writeEh+0x64>
   d4ff0:	f9b4 000c 	ldrsh.w	r0, [r4, #12]
   d4ff4:	f06f 0505 	mvn.w	r5, #5
   d4ff8:	fb05 0202 	mla	r2, r5, r2, r0
   d4ffc:	4293      	cmp	r3, r2
   d4ffe:	dd05      	ble.n	d500c <_ZN12Adafruit_GFX5writeEh+0x64>
      cursor_y += textsize*8;
   d5000:	8a63      	ldrh	r3, [r4, #18]
   d5002:	eb03 03c1 	add.w	r3, r3, r1, lsl #3
   d5006:	8263      	strh	r3, [r4, #18]
      cursor_x = 0;
   d5008:	2300      	movs	r3, #0
   d500a:	8223      	strh	r3, [r4, #16]
    }
  }
  return 1;
}
   d500c:	2001      	movs	r0, #1
   d500e:	b005      	add	sp, #20
   d5010:	bd30      	pop	{r4, r5, pc}

000d5012 <_ZN12Adafruit_GFX9setCursorEss>:
    }
  }
}

void Adafruit_GFX::setCursor(int16_t x, int16_t y) {
  cursor_x = x;
   d5012:	8201      	strh	r1, [r0, #16]
  cursor_y = y;
   d5014:	8242      	strh	r2, [r0, #18]
   d5016:	4770      	bx	lr

000d5018 <_ZN12Adafruit_GFX11setTextSizeEh>:
}

void Adafruit_GFX::setTextSize(uint8_t s) {
  textsize = (s > 0) ? s : 1;
   d5018:	2900      	cmp	r1, #0
   d501a:	bf08      	it	eq
   d501c:	2101      	moveq	r1, #1
   d501e:	7601      	strb	r1, [r0, #24]
   d5020:	4770      	bx	lr

000d5022 <_ZN12Adafruit_GFX12setTextColorEt>:
}

void Adafruit_GFX::setTextColor(uint16_t c) {
  // For 'transparent' background, we'll set the bg 
  // to the same as fg instead of using a flag
  textcolor = textbgcolor = c;
   d5022:	82c1      	strh	r1, [r0, #22]
   d5024:	8281      	strh	r1, [r0, #20]
   d5026:	4770      	bx	lr

000d5028 <_ZN12Adafruit_GFX11getRotationEv>:
  wrap = w;
}

uint8_t Adafruit_GFX::getRotation(void) {
  return rotation;
}
   d5028:	7e40      	ldrb	r0, [r0, #25]
   d502a:	4770      	bx	lr

000d502c <_ZN12Adafruit_GFX5widthEv>:
}

// Return the size of the display (per current rotation)
int16_t Adafruit_GFX::width(void) {
  return _width;
}
   d502c:	f9b0 000c 	ldrsh.w	r0, [r0, #12]
   d5030:	4770      	bx	lr

000d5032 <_ZN12Adafruit_GFX6heightEv>:
 
int16_t Adafruit_GFX::height(void) {
  return _height;
}
   d5032:	f9b0 000e 	ldrsh.w	r0, [r0, #14]
   d5036:	4770      	bx	lr

000d5038 <_GLOBAL__sub_I__ZN12Adafruit_GFXC2Ess>:
   d5038:	f000 bca0 	b.w	d597c <HAL_Pin_Map>

000d503c <_ZN10JsonBufferD1Ev>:


JsonBuffer::JsonBuffer()  : buffer(0), bufferLen(0), offset(0), staticBuffers(false) {

}
JsonBuffer::~JsonBuffer() {
   d503c:	b510      	push	{r4, lr}
   d503e:	4b05      	ldr	r3, [pc, #20]	; (d5054 <_ZN10JsonBufferD1Ev+0x18>)
   d5040:	6003      	str	r3, [r0, #0]
	if (!staticBuffers && buffer) {
   d5042:	7c03      	ldrb	r3, [r0, #16]


JsonBuffer::JsonBuffer()  : buffer(0), bufferLen(0), offset(0), staticBuffers(false) {

}
JsonBuffer::~JsonBuffer() {
   d5044:	4604      	mov	r4, r0
	if (!staticBuffers && buffer) {
   d5046:	b91b      	cbnz	r3, d5050 <_ZN10JsonBufferD1Ev+0x14>
   d5048:	6840      	ldr	r0, [r0, #4]
   d504a:	b108      	cbz	r0, d5050 <_ZN10JsonBufferD1Ev+0x14>
		free(buffer);
   d504c:	f000 feda 	bl	d5e04 <free>
	}
}
   d5050:	4620      	mov	r0, r4
   d5052:	bd10      	pop	{r4, pc}
   d5054:	000d86b4 	.word	0x000d86b4

000d5058 <_ZN10JsonBufferD0Ev>:


JsonBuffer::JsonBuffer()  : buffer(0), bufferLen(0), offset(0), staticBuffers(false) {

}
JsonBuffer::~JsonBuffer() {
   d5058:	b510      	push	{r4, lr}
   d505a:	4604      	mov	r4, r0
	if (!staticBuffers && buffer) {
		free(buffer);
	}
}
   d505c:	f7ff ffee 	bl	d503c <_ZN10JsonBufferD1Ev>
   d5060:	4620      	mov	r0, r4
   d5062:	2114      	movs	r1, #20
   d5064:	f002 f908 	bl	d7278 <_ZdlPvj>
   d5068:	4620      	mov	r0, r4
   d506a:	bd10      	pop	{r4, pc}

000d506c <_ZN10JsonWriterD1Ev>:
//
JsonWriter::JsonWriter() : JsonBuffer(), floatPlaces(-1) {
	init();
}

JsonWriter::~JsonWriter() {
   d506c:	b510      	push	{r4, lr}
   d506e:	4b03      	ldr	r3, [pc, #12]	; (d507c <_ZN10JsonWriterD1Ev+0x10>)
   d5070:	6003      	str	r3, [r0, #0]
   d5072:	4604      	mov	r4, r0
   d5074:	f7ff ffe2 	bl	d503c <_ZN10JsonBufferD1Ev>

}
   d5078:	4620      	mov	r0, r4
   d507a:	bd10      	pop	{r4, pc}
   d507c:	000d86c4 	.word	0x000d86c4

000d5080 <_ZN10JsonWriterD0Ev>:
//
JsonWriter::JsonWriter() : JsonBuffer(), floatPlaces(-1) {
	init();
}

JsonWriter::~JsonWriter() {
   d5080:	b510      	push	{r4, lr}
   d5082:	4604      	mov	r4, r0

}
   d5084:	f7ff fff2 	bl	d506c <_ZN10JsonWriterD1Ev>
   d5088:	4620      	mov	r0, r4
   d508a:	2130      	movs	r1, #48	; 0x30
   d508c:	f002 f8f4 	bl	d7278 <_ZdlPvj>
   d5090:	4620      	mov	r0, r4
   d5092:	bd10      	pop	{r4, pc}

000d5094 <_ZN10JsonWriter4initEv>:
	init();
}

void JsonWriter::init() {
	// Save start of insertion point for later
	offset = 0;
   d5094:	2300      	movs	r3, #0

	contextIndex = 0;
	context[contextIndex].isFirst = true;
   d5096:	2201      	movs	r2, #1
	init();
}

void JsonWriter::init() {
	// Save start of insertion point for later
	offset = 0;
   d5098:	60c3      	str	r3, [r0, #12]

	contextIndex = 0;
   d509a:	6143      	str	r3, [r0, #20]
	context[contextIndex].isFirst = true;
   d509c:	7602      	strb	r2, [r0, #24]
	context[contextIndex].terminator = 0;
   d509e:	7643      	strb	r3, [r0, #25]

	truncated = false;
   d50a0:	f880 302a 	strb.w	r3, [r0, #42]	; 0x2a
   d50a4:	4770      	bx	lr
	...

000d50a8 <_ZN10JsonWriterC1EPcj>:
	if (!staticBuffers && buffer) {
		free(buffer);
	}
}

JsonBuffer::JsonBuffer(char *buffer, size_t bufferLen)  : buffer(buffer), bufferLen(bufferLen), offset(0), staticBuffers(true) {
   d50a8:	2300      	movs	r3, #0

JsonWriter::~JsonWriter() {

}

JsonWriter::JsonWriter(char *buffer, size_t bufferLen) : JsonBuffer(buffer, bufferLen), floatPlaces(-1) {
   d50aa:	b510      	push	{r4, lr}
	if (!staticBuffers && buffer) {
		free(buffer);
	}
}

JsonBuffer::JsonBuffer(char *buffer, size_t bufferLen)  : buffer(buffer), bufferLen(bufferLen), offset(0), staticBuffers(true) {
   d50ac:	60c3      	str	r3, [r0, #12]
   d50ae:	2301      	movs	r3, #1
   d50b0:	7403      	strb	r3, [r0, #16]

JsonWriter::~JsonWriter() {

}

JsonWriter::JsonWriter(char *buffer, size_t bufferLen) : JsonBuffer(buffer, bufferLen), floatPlaces(-1) {
   d50b2:	4b05      	ldr	r3, [pc, #20]	; (d50c8 <_ZN10JsonWriterC1EPcj+0x20>)
   d50b4:	6003      	str	r3, [r0, #0]
   d50b6:	f04f 33ff 	mov.w	r3, #4294967295
	if (!staticBuffers && buffer) {
		free(buffer);
	}
}

JsonBuffer::JsonBuffer(char *buffer, size_t bufferLen)  : buffer(buffer), bufferLen(bufferLen), offset(0), staticBuffers(true) {
   d50ba:	6041      	str	r1, [r0, #4]
   d50bc:	6082      	str	r2, [r0, #8]

JsonWriter::~JsonWriter() {

}

JsonWriter::JsonWriter(char *buffer, size_t bufferLen) : JsonBuffer(buffer, bufferLen), floatPlaces(-1) {
   d50be:	62c3      	str	r3, [r0, #44]	; 0x2c
	init();
   d50c0:	f7ff ffe8 	bl	d5094 <_ZN10JsonWriter4initEv>
}
   d50c4:	bd10      	pop	{r4, pc}
   d50c6:	bf00      	nop
   d50c8:	000d86c4 	.word	0x000d86c4

000d50cc <_ZN10JsonWriter10insertCharEc>:
	}
}


void JsonWriter::insertChar(char ch) {
	if (offset < bufferLen) {
   d50cc:	68c3      	ldr	r3, [r0, #12]
   d50ce:	6882      	ldr	r2, [r0, #8]
		buffer[bufferLen - 1] = 0;
	}
}


void JsonWriter::insertChar(char ch) {
   d50d0:	b510      	push	{r4, lr}
	if (offset < bufferLen) {
   d50d2:	4293      	cmp	r3, r2
		buffer[offset++] = ch;
   d50d4:	bf3f      	itttt	cc
   d50d6:	6842      	ldrcc	r2, [r0, #4]
   d50d8:	1c5c      	addcc	r4, r3, #1
   d50da:	60c4      	strcc	r4, [r0, #12]
   d50dc:	54d1      	strbcc	r1, [r2, r3]
	}
	else {
		truncated = true;
   d50de:	bf24      	itt	cs
   d50e0:	2301      	movcs	r3, #1
   d50e2:	f880 302a 	strbcs.w	r3, [r0, #42]	; 0x2a
   d50e6:	bd10      	pop	{r4, pc}

000d50e8 <_ZN10JsonWriter19finishObjectOrArrayEv>:
	insertChar(startChar);
	return true;
}


void JsonWriter::finishObjectOrArray() {
   d50e8:	b510      	push	{r4, lr}
	if (contextIndex > 0) {
   d50ea:	6943      	ldr	r3, [r0, #20]
	insertChar(startChar);
	return true;
}


void JsonWriter::finishObjectOrArray() {
   d50ec:	4604      	mov	r4, r0
	if (contextIndex > 0) {
   d50ee:	b143      	cbz	r3, d5102 <_ZN10JsonWriter19finishObjectOrArrayEv+0x1a>
		if (context[contextIndex].terminator != 0) {
   d50f0:	eb00 0343 	add.w	r3, r0, r3, lsl #1
   d50f4:	7e59      	ldrb	r1, [r3, #25]
   d50f6:	b109      	cbz	r1, d50fc <_ZN10JsonWriter19finishObjectOrArrayEv+0x14>
			insertChar(context[contextIndex].terminator);
   d50f8:	f7ff ffe8 	bl	d50cc <_ZN10JsonWriter10insertCharEc>
		}
		contextIndex--;
   d50fc:	6963      	ldr	r3, [r4, #20]
   d50fe:	3b01      	subs	r3, #1
   d5100:	6163      	str	r3, [r4, #20]
	}
	// Make sure buffer is null terminated
	if (offset < bufferLen) {
   d5102:	68a3      	ldr	r3, [r4, #8]
   d5104:	68e0      	ldr	r0, [r4, #12]
   d5106:	6861      	ldr	r1, [r4, #4]
   d5108:	4298      	cmp	r0, r3
   d510a:	f04f 0200 	mov.w	r2, #0
		buffer[offset] = 0;
	}
	else {
		buffer[bufferLen - 1] = 0;
   d510e:	bf2a      	itet	cs
   d5110:	185b      	addcs	r3, r3, r1
		}
		contextIndex--;
	}
	// Make sure buffer is null terminated
	if (offset < bufferLen) {
		buffer[offset] = 0;
   d5112:	540a      	strbcc	r2, [r1, r0]
	}
	else {
		buffer[bufferLen - 1] = 0;
   d5114:	f803 2c01 	strbcs.w	r2, [r3, #-1]
   d5118:	bd10      	pop	{r4, pc}

000d511a <_ZN10JsonWriter14insertvsprintfEPKcSt9__va_list>:
	va_start(ap, fmt);
	insertvsprintf(fmt, ap);
	va_end(ap);
}

void JsonWriter::insertvsprintf(const char *fmt, va_list ap) {
   d511a:	b570      	push	{r4, r5, r6, lr}
   d511c:	4604      	mov	r4, r0
	size_t spaceAvailable = bufferLen - offset;
   d511e:	68c0      	ldr	r0, [r0, #12]
   d5120:	68a5      	ldr	r5, [r4, #8]

	size_t count = vsnprintf(&buffer[offset], spaceAvailable, fmt, ap);
   d5122:	6866      	ldr	r6, [r4, #4]
	insertvsprintf(fmt, ap);
	va_end(ap);
}

void JsonWriter::insertvsprintf(const char *fmt, va_list ap) {
	size_t spaceAvailable = bufferLen - offset;
   d5124:	1a2d      	subs	r5, r5, r0

	size_t count = vsnprintf(&buffer[offset], spaceAvailable, fmt, ap);
   d5126:	4613      	mov	r3, r2
   d5128:	4430      	add	r0, r6
   d512a:	460a      	mov	r2, r1
   d512c:	4629      	mov	r1, r5
   d512e:	f000 fe71 	bl	d5e14 <vsnprintf>
	if (count <= spaceAvailable) {
   d5132:	4285      	cmp	r5, r0
		offset += count;
   d5134:	bf2d      	iteet	cs
   d5136:	68e3      	ldrcs	r3, [r4, #12]
	}
	else {
		// Truncated, no more space left
		offset = bufferLen;
   d5138:	68a3      	ldrcc	r3, [r4, #8]
   d513a:	60e3      	strcc	r3, [r4, #12]
void JsonWriter::insertvsprintf(const char *fmt, va_list ap) {
	size_t spaceAvailable = bufferLen - offset;

	size_t count = vsnprintf(&buffer[offset], spaceAvailable, fmt, ap);
	if (count <= spaceAvailable) {
		offset += count;
   d513c:	18c0      	addcs	r0, r0, r3
	}
	else {
		// Truncated, no more space left
		offset = bufferLen;
		truncated = true;
   d513e:	bf36      	itet	cc
   d5140:	2301      	movcc	r3, #1
void JsonWriter::insertvsprintf(const char *fmt, va_list ap) {
	size_t spaceAvailable = bufferLen - offset;

	size_t count = vsnprintf(&buffer[offset], spaceAvailable, fmt, ap);
	if (count <= spaceAvailable) {
		offset += count;
   d5142:	60e0      	strcs	r0, [r4, #12]
	}
	else {
		// Truncated, no more space left
		offset = bufferLen;
		truncated = true;
   d5144:	f884 302a 	strbcc.w	r3, [r4, #42]	; 0x2a
   d5148:	bd70      	pop	{r4, r5, r6, pc}

000d514a <_ZN10JsonWriter13insertsprintfEPKcz>:

}



void JsonWriter::insertsprintf(const char *fmt, ...) {
   d514a:	b40e      	push	{r1, r2, r3}
   d514c:	b503      	push	{r0, r1, lr}
   d514e:	aa03      	add	r2, sp, #12
   d5150:	f852 1b04 	ldr.w	r1, [r2], #4
	va_list ap;
	va_start(ap, fmt);
   d5154:	9201      	str	r2, [sp, #4]
	insertvsprintf(fmt, ap);
   d5156:	f7ff ffe0 	bl	d511a <_ZN10JsonWriter14insertvsprintfEPKcSt9__va_list>
	va_end(ap);
}
   d515a:	b002      	add	sp, #8
   d515c:	f85d eb04 	ldr.w	lr, [sp], #4
   d5160:	b003      	add	sp, #12
   d5162:	4770      	bx	lr

000d5164 <_ZN10JsonWriter12insertStringEPKcb>:
	else {
		truncated = true;
	}
}

void JsonWriter::insertString(const char *s, bool quoted) {
   d5164:	e92d 41f0 	stmdb	sp!, {r4, r5, r6, r7, r8, lr}
   d5168:	4604      	mov	r4, r0
   d516a:	460e      	mov	r6, r1
	// 110xxxxx 10xxxxxx

	// 0x00000800 - 0x0000FFFF:
	// 1110xxxx 10xxxxxx 10xxxxxx

	if (quoted) {
   d516c:	4617      	mov	r7, r2
   d516e:	b112      	cbz	r2, d5176 <_ZN10JsonWriter12insertStringEPKcb+0x12>
		insertChar('"');
   d5170:	2122      	movs	r1, #34	; 0x22
   d5172:	f7ff ffab 	bl	d50cc <_ZN10JsonWriter10insertCharEc>
	else {
		truncated = true;
	}
}

void JsonWriter::insertString(const char *s, bool quoted) {
   d5176:	2500      	movs	r5, #0

	if (quoted) {
		insertChar('"');
	}

	for(size_t ii = 0; s[ii] && offset < bufferLen; ii++) {
   d5178:	5d71      	ldrb	r1, [r6, r5]
   d517a:	eb06 0805 	add.w	r8, r6, r5
   d517e:	2900      	cmp	r1, #0
   d5180:	d071      	beq.n	d5266 <_ZN10JsonWriter12insertStringEPKcb+0x102>
   d5182:	68e2      	ldr	r2, [r4, #12]
   d5184:	68a3      	ldr	r3, [r4, #8]
   d5186:	429a      	cmp	r2, r3
   d5188:	d26d      	bcs.n	d5266 <_ZN10JsonWriter12insertStringEPKcb+0x102>
		if (s[ii] & 0x80) {
   d518a:	060b      	lsls	r3, r1, #24
   d518c:	d533      	bpl.n	d51f6 <_ZN10JsonWriter12insertStringEPKcb+0x92>
			// High bit set: convert UTF-8 to JSON Unicode escape
			if (((s[ii] & 0b11110000) == 0b11100000) && ((s[ii+1] & 0b11000000) == 0b10000000) && ((s[ii+2] & 0b11000000) == 0b10000000)) {
   d518e:	f001 03f0 	and.w	r3, r1, #240	; 0xf0
   d5192:	2be0      	cmp	r3, #224	; 0xe0
   d5194:	d117      	bne.n	d51c6 <_ZN10JsonWriter12insertStringEPKcb+0x62>
   d5196:	f898 3001 	ldrb.w	r3, [r8, #1]
   d519a:	f003 02c0 	and.w	r2, r3, #192	; 0xc0
   d519e:	2a80      	cmp	r2, #128	; 0x80
   d51a0:	d111      	bne.n	d51c6 <_ZN10JsonWriter12insertStringEPKcb+0x62>
   d51a2:	f105 0802 	add.w	r8, r5, #2
   d51a6:	f816 2008 	ldrb.w	r2, [r6, r8]
   d51aa:	f002 00c0 	and.w	r0, r2, #192	; 0xc0
   d51ae:	2880      	cmp	r0, #128	; 0x80
   d51b0:	d109      	bne.n	d51c6 <_ZN10JsonWriter12insertStringEPKcb+0x62>
				// 3-byte
				uint16_t utf16 = ((s[ii] & 0b1111) << 12) | ((s[ii+1] & 0b111111) << 6) | (s[ii+2] & 0b111111);
				insertsprintf("\\u%04X", utf16);
   d51b2:	f002 023f 	and.w	r2, r2, #63	; 0x3f
   d51b6:	019b      	lsls	r3, r3, #6
   d51b8:	ea42 3201 	orr.w	r2, r2, r1, lsl #12
   d51bc:	f403 637c 	and.w	r3, r3, #4032	; 0xfc0
   d51c0:	431a      	orrs	r2, r3
   d51c2:	b292      	uxth	r2, r2
   d51c4:	e011      	b.n	d51ea <_ZN10JsonWriter12insertStringEPKcb+0x86>
				ii += 2; // plus one more in loop increment
			}
			else
			if (((s[ii] & 0b11100000) == 0b11000000) && ((s[ii+1] & 0b11000000) == 0b10000000)) {
   d51c6:	f001 03e0 	and.w	r3, r1, #224	; 0xe0
   d51ca:	2bc0      	cmp	r3, #192	; 0xc0
   d51cc:	d146      	bne.n	d525c <_ZN10JsonWriter12insertStringEPKcb+0xf8>
   d51ce:	f105 0801 	add.w	r8, r5, #1
   d51d2:	f816 3008 	ldrb.w	r3, [r6, r8]
   d51d6:	f003 02c0 	and.w	r2, r3, #192	; 0xc0
   d51da:	2a80      	cmp	r2, #128	; 0x80
   d51dc:	d13e      	bne.n	d525c <_ZN10JsonWriter12insertStringEPKcb+0xf8>
				// 2-byte
				uint16_t utf16 = ((s[ii] & 0b11111) << 6) | (s[ii+1] & 0b111111);
				insertsprintf("\\u%04X", utf16);
   d51de:	0189      	lsls	r1, r1, #6
   d51e0:	f401 62f8 	and.w	r2, r1, #1984	; 0x7c0
   d51e4:	f003 033f 	and.w	r3, r3, #63	; 0x3f
   d51e8:	431a      	orrs	r2, r3
   d51ea:	4923      	ldr	r1, [pc, #140]	; (d5278 <_ZN10JsonWriter12insertStringEPKcb+0x114>)
   d51ec:	4620      	mov	r0, r4
   d51ee:	f7ff ffac 	bl	d514a <_ZN10JsonWriter13insertsprintfEPKcz>
				ii++; // plus one more in loop increment
   d51f2:	4645      	mov	r5, r8
   d51f4:	e035      	b.n	d5262 <_ZN10JsonWriter12insertStringEPKcb+0xfe>
				// Not valid unicode, just pass characters through
				insertChar(s[ii]);
			}
		}
		else {
			switch(s[ii]) {
   d51f6:	290c      	cmp	r1, #12
   d51f8:	d018      	beq.n	d522c <_ZN10JsonWriter12insertStringEPKcb+0xc8>
   d51fa:	d80b      	bhi.n	d5214 <_ZN10JsonWriter12insertStringEPKcb+0xb0>
   d51fc:	2909      	cmp	r1, #9
   d51fe:	d021      	beq.n	d5244 <_ZN10JsonWriter12insertStringEPKcb+0xe0>
   d5200:	290a      	cmp	r1, #10
   d5202:	d019      	beq.n	d5238 <_ZN10JsonWriter12insertStringEPKcb+0xd4>
   d5204:	2908      	cmp	r1, #8
   d5206:	d129      	bne.n	d525c <_ZN10JsonWriter12insertStringEPKcb+0xf8>
			case '\b':
				insertChar('\\');
   d5208:	215c      	movs	r1, #92	; 0x5c
   d520a:	4620      	mov	r0, r4
   d520c:	f7ff ff5e 	bl	d50cc <_ZN10JsonWriter10insertCharEc>
				insertChar('b');
   d5210:	2162      	movs	r1, #98	; 0x62
   d5212:	e023      	b.n	d525c <_ZN10JsonWriter12insertStringEPKcb+0xf8>
				// Not valid unicode, just pass characters through
				insertChar(s[ii]);
			}
		}
		else {
			switch(s[ii]) {
   d5214:	2922      	cmp	r1, #34	; 0x22
   d5216:	d01b      	beq.n	d5250 <_ZN10JsonWriter12insertStringEPKcb+0xec>
   d5218:	295c      	cmp	r1, #92	; 0x5c
   d521a:	d019      	beq.n	d5250 <_ZN10JsonWriter12insertStringEPKcb+0xec>
   d521c:	290d      	cmp	r1, #13
   d521e:	d11d      	bne.n	d525c <_ZN10JsonWriter12insertStringEPKcb+0xf8>
				insertChar('\\');
				insertChar('n');
				break;

			case '\r':
				insertChar('\\');
   d5220:	215c      	movs	r1, #92	; 0x5c
   d5222:	4620      	mov	r0, r4
   d5224:	f7ff ff52 	bl	d50cc <_ZN10JsonWriter10insertCharEc>
				insertChar('r');
   d5228:	2172      	movs	r1, #114	; 0x72
   d522a:	e017      	b.n	d525c <_ZN10JsonWriter12insertStringEPKcb+0xf8>
				insertChar('\\');
				insertChar('b');
				break;

			case '\f':
				insertChar('\\');
   d522c:	215c      	movs	r1, #92	; 0x5c
   d522e:	4620      	mov	r0, r4
   d5230:	f7ff ff4c 	bl	d50cc <_ZN10JsonWriter10insertCharEc>
				insertChar('f');
   d5234:	2166      	movs	r1, #102	; 0x66
   d5236:	e011      	b.n	d525c <_ZN10JsonWriter12insertStringEPKcb+0xf8>
				break;

			case '\n':
				insertChar('\\');
   d5238:	215c      	movs	r1, #92	; 0x5c
   d523a:	4620      	mov	r0, r4
   d523c:	f7ff ff46 	bl	d50cc <_ZN10JsonWriter10insertCharEc>
				insertChar('n');
   d5240:	216e      	movs	r1, #110	; 0x6e
   d5242:	e00b      	b.n	d525c <_ZN10JsonWriter12insertStringEPKcb+0xf8>
				insertChar('\\');
				insertChar('r');
				break;

			case '\t':
				insertChar('\\');
   d5244:	215c      	movs	r1, #92	; 0x5c
   d5246:	4620      	mov	r0, r4
   d5248:	f7ff ff40 	bl	d50cc <_ZN10JsonWriter10insertCharEc>
				insertChar('t');
   d524c:	2174      	movs	r1, #116	; 0x74
   d524e:	e005      	b.n	d525c <_ZN10JsonWriter12insertStringEPKcb+0xf8>
				break;

			case '"':
			case '\\':
				insertChar('\\');
   d5250:	215c      	movs	r1, #92	; 0x5c
   d5252:	4620      	mov	r0, r4
   d5254:	f7ff ff3a 	bl	d50cc <_ZN10JsonWriter10insertCharEc>
				insertChar(s[ii]);
   d5258:	f898 1000 	ldrb.w	r1, [r8]
				break;

			default:
				insertChar(s[ii]);
   d525c:	4620      	mov	r0, r4
   d525e:	f7ff ff35 	bl	d50cc <_ZN10JsonWriter10insertCharEc>

	if (quoted) {
		insertChar('"');
	}

	for(size_t ii = 0; s[ii] && offset < bufferLen; ii++) {
   d5262:	3501      	adds	r5, #1
   d5264:	e788      	b.n	d5178 <_ZN10JsonWriter12insertStringEPKcb+0x14>
				insertChar(s[ii]);
				break;
			}
		}
	}
	if (quoted) {
   d5266:	b12f      	cbz	r7, d5274 <_ZN10JsonWriter12insertStringEPKcb+0x110>
		insertChar('"');
   d5268:	4620      	mov	r0, r4
   d526a:	2122      	movs	r1, #34	; 0x22
	}

}
   d526c:	e8bd 41f0 	ldmia.w	sp!, {r4, r5, r6, r7, r8, lr}
				break;
			}
		}
	}
	if (quoted) {
		insertChar('"');
   d5270:	f7ff bf2c 	b.w	d50cc <_ZN10JsonWriter10insertCharEc>
   d5274:	e8bd 81f0 	ldmia.w	sp!, {r4, r5, r6, r7, r8, pc}
   d5278:	000d86d5 	.word	0x000d86d5

000d527c <_ZN10JsonWriter20insertCheckSeparatorEv>:
		offset = bufferLen;
		truncated = true;
	}
}

void JsonWriter::insertCheckSeparator() {
   d527c:	6942      	ldr	r2, [r0, #20]
   d527e:	eb00 0342 	add.w	r3, r0, r2, lsl #1
	if (context[contextIndex].isFirst) {
   d5282:	7e1a      	ldrb	r2, [r3, #24]
   d5284:	b112      	cbz	r2, d528c <_ZN10JsonWriter20insertCheckSeparatorEv+0x10>
		context[contextIndex].isFirst = false;
   d5286:	2200      	movs	r2, #0
   d5288:	761a      	strb	r2, [r3, #24]
   d528a:	4770      	bx	lr
	}
	else {
		insertChar(',');
   d528c:	212c      	movs	r1, #44	; 0x2c
   d528e:	f7ff bf1d 	b.w	d50cc <_ZN10JsonWriter10insertCharEc>

000d5292 <_ZN10JsonWriter18startObjectOrArrayEcc>:

	truncated = false;

}

bool JsonWriter::startObjectOrArray(char startChar, char endChar) {
   d5292:	b5f8      	push	{r3, r4, r5, r6, r7, lr}
	if ((contextIndex + 1) >= MAX_NESTED_CONTEXT) {
   d5294:	6943      	ldr	r3, [r0, #20]
   d5296:	3301      	adds	r3, #1
   d5298:	2b08      	cmp	r3, #8

	truncated = false;

}

bool JsonWriter::startObjectOrArray(char startChar, char endChar) {
   d529a:	460e      	mov	r6, r1
   d529c:	4617      	mov	r7, r2
	if ((contextIndex + 1) >= MAX_NESTED_CONTEXT) {
   d529e:	d80e      	bhi.n	d52be <_ZN10JsonWriter18startObjectOrArrayEcc+0x2c>
		return false;
	}
	insertCheckSeparator();
   d52a0:	f7ff ffec 	bl	d527c <_ZN10JsonWriter20insertCheckSeparatorEv>

	contextIndex++;
   d52a4:	6943      	ldr	r3, [r0, #20]
   d52a6:	1c5a      	adds	r2, r3, #1
   d52a8:	eb00 0343 	add.w	r3, r0, r3, lsl #1

	context[contextIndex].isFirst = true;
   d52ac:	2401      	movs	r4, #1
	if ((contextIndex + 1) >= MAX_NESTED_CONTEXT) {
		return false;
	}
	insertCheckSeparator();

	contextIndex++;
   d52ae:	6142      	str	r2, [r0, #20]

	context[contextIndex].isFirst = true;
	context[contextIndex].terminator = endChar;

	insertChar(startChar);
   d52b0:	4631      	mov	r1, r6
	}
	insertCheckSeparator();

	contextIndex++;

	context[contextIndex].isFirst = true;
   d52b2:	769c      	strb	r4, [r3, #26]
	context[contextIndex].terminator = endChar;
   d52b4:	76df      	strb	r7, [r3, #27]

	insertChar(startChar);
   d52b6:	f7ff ff09 	bl	d50cc <_ZN10JsonWriter10insertCharEc>
   d52ba:	4620      	mov	r0, r4
   d52bc:	bdf8      	pop	{r3, r4, r5, r6, r7, pc}

}

bool JsonWriter::startObjectOrArray(char startChar, char endChar) {
	if ((contextIndex + 1) >= MAX_NESTED_CONTEXT) {
		return false;
   d52be:	2000      	movs	r0, #0
	context[contextIndex].isFirst = true;
	context[contextIndex].terminator = endChar;

	insertChar(startChar);
	return true;
}
   d52c0:	bdf8      	pop	{r3, r4, r5, r6, r7, pc}
	...

000d52c4 <_ZN10JsonWriter11insertValueEf>:
	else {
		insertString("false");
	}
}

void JsonWriter::insertValue(float value) {
   d52c4:	b537      	push	{r0, r1, r2, r4, r5, lr}
   d52c6:	4604      	mov	r4, r0
   d52c8:	ee10 0a10 	vmov	r0, s0
	if (floatPlaces >= 0) {
   d52cc:	6ae5      	ldr	r5, [r4, #44]	; 0x2c
   d52ce:	2d00      	cmp	r5, #0
   d52d0:	db0a      	blt.n	d52e8 <_ZN10JsonWriter11insertValueEf+0x24>
		insertsprintf("%.*f", floatPlaces, value);
   d52d2:	f002 fa93 	bl	d77fc <__aeabi_f2d>
   d52d6:	462a      	mov	r2, r5
   d52d8:	e9cd 0100 	strd	r0, r1, [sp]
   d52dc:	4908      	ldr	r1, [pc, #32]	; (d5300 <_ZN10JsonWriter11insertValueEf+0x3c>)
   d52de:	4620      	mov	r0, r4
   d52e0:	f7ff ff33 	bl	d514a <_ZN10JsonWriter13insertsprintfEPKcz>
	}
	else {
		insertsprintf("%f", value);
	}
}
   d52e4:	b003      	add	sp, #12
   d52e6:	bd30      	pop	{r4, r5, pc}
void JsonWriter::insertValue(float value) {
	if (floatPlaces >= 0) {
		insertsprintf("%.*f", floatPlaces, value);
	}
	else {
		insertsprintf("%f", value);
   d52e8:	f002 fa88 	bl	d77fc <__aeabi_f2d>
   d52ec:	460b      	mov	r3, r1
   d52ee:	4905      	ldr	r1, [pc, #20]	; (d5304 <_ZN10JsonWriter11insertValueEf+0x40>)
   d52f0:	4602      	mov	r2, r0
   d52f2:	4620      	mov	r0, r4
	}
}
   d52f4:	b003      	add	sp, #12
   d52f6:	e8bd 4030 	ldmia.w	sp!, {r4, r5, lr}
void JsonWriter::insertValue(float value) {
	if (floatPlaces >= 0) {
		insertsprintf("%.*f", floatPlaces, value);
	}
	else {
		insertsprintf("%f", value);
   d52fa:	f7ff bf26 	b.w	d514a <_ZN10JsonWriter13insertsprintfEPKcz>
   d52fe:	bf00      	nop
   d5300:	000d86e7 	.word	0x000d86e7
   d5304:	000d86ec 	.word	0x000d86ec

000d5308 <_GLOBAL__sub_I__ZN10JsonBufferC2Ev>:
   d5308:	f000 bb38 	b.w	d597c <HAL_Pin_Map>

000d530c <_ZN11TinyGPSPlusC1Ev>:
   const RawDegrees &rawLat()     { updated = false; return rawLatData; }
   const RawDegrees &rawLng()     { updated = false; return rawLngData; }
   double lat();
   double lng();

   TinyGPSLocation() : valid(false), updated(false)
   d530c:	2200      	movs	r2, #0
  ,  customElts(0)
  ,  customCandidates(0)
  ,  encodedCharCount(0)
  ,  sentencesWithFixCount(0)
  ,  failedChecksumCount(0)
  ,  passedChecksumCount(0)
   d530e:	2102      	movs	r1, #2
   d5310:	7002      	strb	r2, [r0, #0]
   d5312:	7042      	strb	r2, [r0, #1]
{
   uint16_t deg;
   uint32_t billionths;
   bool negative;
public:
   RawDegrees() : deg(0), billionths(0), negative(false)
   d5314:	8082      	strh	r2, [r0, #4]
   d5316:	6082      	str	r2, [r0, #8]
   d5318:	7302      	strb	r2, [r0, #12]
   d531a:	8202      	strh	r2, [r0, #16]
   d531c:	6142      	str	r2, [r0, #20]
   d531e:	7602      	strb	r2, [r0, #24]
   d5320:	8382      	strh	r2, [r0, #28]
   d5322:	6202      	str	r2, [r0, #32]
   d5324:	f880 2024 	strb.w	r2, [r0, #36]	; 0x24
   d5328:	8502      	strh	r2, [r0, #40]	; 0x28
   d532a:	62c2      	str	r2, [r0, #44]	; 0x2c
   d532c:	f880 2030 	strb.w	r2, [r0, #48]	; 0x30
   uint32_t value()           { updated = false; return date; }
   uint16_t year();
   uint8_t month();
   uint8_t day();

   TinyGPSDate() : valid(false), updated(false), date(0)
   d5330:	f880 2038 	strb.w	r2, [r0, #56]	; 0x38
   d5334:	f880 2039 	strb.w	r2, [r0, #57]	; 0x39
   d5338:	63c2      	str	r2, [r0, #60]	; 0x3c
   uint8_t hour();
   uint8_t minute();
   uint8_t second();
   uint8_t centisecond();

   TinyGPSTime() : valid(false), updated(false), time(0)
   d533a:	f880 2048 	strb.w	r2, [r0, #72]	; 0x48
   d533e:	f880 2049 	strb.w	r2, [r0, #73]	; 0x49
   d5342:	64c2      	str	r2, [r0, #76]	; 0x4c
   bool isValid() const    { return valid; }
   bool isUpdated() const  { return updated; }
   uint32_t age() const    { return valid ? millis() - lastCommitTime : (uint32_t)ULONG_MAX; }
   int32_t value()         { updated = false; return val; }

   TinyGPSDecimal() : valid(false), updated(false), val(0)
   d5344:	f880 2058 	strb.w	r2, [r0, #88]	; 0x58
   d5348:	f880 2059 	strb.w	r2, [r0, #89]	; 0x59
   d534c:	6602      	str	r2, [r0, #96]	; 0x60
   d534e:	f880 2068 	strb.w	r2, [r0, #104]	; 0x68
   d5352:	f880 2069 	strb.w	r2, [r0, #105]	; 0x69
   d5356:	6702      	str	r2, [r0, #112]	; 0x70
   d5358:	f880 2078 	strb.w	r2, [r0, #120]	; 0x78
   d535c:	f880 2079 	strb.w	r2, [r0, #121]	; 0x79
   d5360:	f8c0 2080 	str.w	r2, [r0, #128]	; 0x80
   bool isValid() const    { return valid; }
   bool isUpdated() const  { return updated; }
   uint32_t age() const    { return valid ? millis() - lastCommitTime : (uint32_t)ULONG_MAX; }
   uint32_t value()        { updated = false; return val; }

   TinyGPSInteger() : valid(false), updated(false), val(0)
   d5364:	f880 2088 	strb.w	r2, [r0, #136]	; 0x88
   d5368:	f880 2089 	strb.w	r2, [r0, #137]	; 0x89
   d536c:	f8c0 2090 	str.w	r2, [r0, #144]	; 0x90
   bool isValid() const    { return valid; }
   bool isUpdated() const  { return updated; }
   uint32_t age() const    { return valid ? millis() - lastCommitTime : (uint32_t)ULONG_MAX; }
   int32_t value()         { updated = false; return val; }

   TinyGPSDecimal() : valid(false), updated(false), val(0)
   d5370:	f880 2098 	strb.w	r2, [r0, #152]	; 0x98
   d5374:	f880 2099 	strb.w	r2, [r0, #153]	; 0x99
   d5378:	f8c0 20a0 	str.w	r2, [r0, #160]	; 0xa0
   d537c:	f880 20a8 	strb.w	r2, [r0, #168]	; 0xa8
   d5380:	f880 20a9 	strb.w	r2, [r0, #169]	; 0xa9
   d5384:	f880 10b9 	strb.w	r1, [r0, #185]	; 0xb9
   d5388:	f880 20ba 	strb.w	r2, [r0, #186]	; 0xba
   d538c:	f880 20bb 	strb.w	r2, [r0, #187]	; 0xbb
   d5390:	f880 20bc 	strb.w	r2, [r0, #188]	; 0xbc
   d5394:	f8c0 20c0 	str.w	r2, [r0, #192]	; 0xc0
   d5398:	f8c0 20c4 	str.w	r2, [r0, #196]	; 0xc4
   d539c:	f8c0 20c8 	str.w	r2, [r0, #200]	; 0xc8
   d53a0:	f8c0 20cc 	str.w	r2, [r0, #204]	; 0xcc
   d53a4:	f8c0 20d0 	str.w	r2, [r0, #208]	; 0xd0
   d53a8:	f8c0 20d4 	str.w	r2, [r0, #212]	; 0xd4
{
  term[0] = '\0';
   d53ac:	f880 20aa 	strb.w	r2, [r0, #170]	; 0xaa
}
   d53b0:	4770      	bx	lr

000d53b2 <_ZN11TinyGPSPlus7fromHexEc>:
//
// internal utilities
//
int TinyGPSPlus::fromHex(char a)
{
  if (a >= 'A' && a <= 'F')
   d53b2:	f1a1 0341 	sub.w	r3, r1, #65	; 0x41
   d53b6:	2b05      	cmp	r3, #5
   d53b8:	d802      	bhi.n	d53c0 <_ZN11TinyGPSPlus7fromHexEc+0xe>
    return a - 'A' + 10;
   d53ba:	f1a1 0037 	sub.w	r0, r1, #55	; 0x37
   d53be:	4770      	bx	lr
  else if (a >= 'a' && a <= 'f')
   d53c0:	f1a1 0361 	sub.w	r3, r1, #97	; 0x61
   d53c4:	2b05      	cmp	r3, #5
    return a - 'a' + 10;
   d53c6:	bf94      	ite	ls
   d53c8:	f1a1 0057 	subls.w	r0, r1, #87	; 0x57
  else
    return a - '0';
   d53cc:	f1a1 0030 	subhi.w	r0, r1, #48	; 0x30
}
   d53d0:	4770      	bx	lr

000d53d2 <_ZN11TinyGPSPlus12parseDecimalEPKc>:

// static
// Parse a (potentially negative) number with up to 2 decimal digits -xxxx.yy
int32_t TinyGPSPlus::parseDecimal(const char *term)
{
   d53d2:	b538      	push	{r3, r4, r5, lr}
  bool negative = *term == '-';
   d53d4:	7805      	ldrb	r5, [r0, #0]
}

// static
// Parse a (potentially negative) number with up to 2 decimal digits -xxxx.yy
int32_t TinyGPSPlus::parseDecimal(const char *term)
{
   d53d6:	4604      	mov	r4, r0
  bool negative = *term == '-';
  if (negative) ++term;
   d53d8:	2d2d      	cmp	r5, #45	; 0x2d
   d53da:	bf08      	it	eq
   d53dc:	3401      	addeq	r4, #1
  int32_t ret = 100 * (int32_t)atol(term);
   d53de:	4620      	mov	r0, r4
   d53e0:	f002 fcc2 	bl	d7d68 <atol>
   d53e4:	2364      	movs	r3, #100	; 0x64
   d53e6:	4358      	muls	r0, r3
   d53e8:	4622      	mov	r2, r4
  while (isdigit(*term)) ++term;
   d53ea:	f814 3b01 	ldrb.w	r3, [r4], #1
   d53ee:	f1a3 0130 	sub.w	r1, r3, #48	; 0x30
   d53f2:	2909      	cmp	r1, #9
   d53f4:	d9f8      	bls.n	d53e8 <_ZN11TinyGPSPlus12parseDecimalEPKc+0x16>
  if (*term == '.' && isdigit(term[1]))
   d53f6:	2b2e      	cmp	r3, #46	; 0x2e
   d53f8:	d10b      	bne.n	d5412 <_ZN11TinyGPSPlus12parseDecimalEPKc+0x40>
   d53fa:	7853      	ldrb	r3, [r2, #1]
   d53fc:	3b30      	subs	r3, #48	; 0x30
   d53fe:	2b09      	cmp	r3, #9
   d5400:	d807      	bhi.n	d5412 <_ZN11TinyGPSPlus12parseDecimalEPKc+0x40>
  {
    ret += 10 * (term[1] - '0');
   d5402:	210a      	movs	r1, #10
   d5404:	fb01 0003 	mla	r0, r1, r3, r0
    if (isdigit(term[2]))
   d5408:	7893      	ldrb	r3, [r2, #2]
   d540a:	3b30      	subs	r3, #48	; 0x30
   d540c:	2b09      	cmp	r3, #9
      ret += term[2] - '0';
   d540e:	bf98      	it	ls
   d5410:	18c0      	addls	r0, r0, r3
  }
  return negative ? -ret : ret;
   d5412:	2d2d      	cmp	r5, #45	; 0x2d
   d5414:	bf08      	it	eq
   d5416:	4240      	negeq	r0, r0
}
   d5418:	bd38      	pop	{r3, r4, r5, pc}
	...

000d541c <_ZN11TinyGPSPlus12parseDegreesEPKcR10RawDegrees>:

// static
// Parse degrees in that funny NMEA format DDMM.MMMM
void TinyGPSPlus::parseDegrees(const char *term, RawDegrees &deg)
{
   d541c:	b538      	push	{r3, r4, r5, lr}
   d541e:	4604      	mov	r4, r0
   d5420:	460d      	mov	r5, r1
  uint32_t leftOfDecimal = (uint32_t)atol(term);
   d5422:	f002 fca1 	bl	d7d68 <atol>
  uint16_t minutes = (uint16_t)(leftOfDecimal % 100);
  uint32_t multiplier = 10000000UL;
  uint32_t tenMillionthsOfMinutes = minutes * multiplier;
   d5426:	2364      	movs	r3, #100	; 0x64
   d5428:	fbb0 f2f3 	udiv	r2, r0, r3
   d542c:	fb03 0012 	mls	r0, r3, r2, r0
   d5430:	4b11      	ldr	r3, [pc, #68]	; (d5478 <_ZN11TinyGPSPlus12parseDegreesEPKcR10RawDegrees+0x5c>)

  deg.deg = (int16_t)(leftOfDecimal / 100);
   d5432:	802a      	strh	r2, [r5, #0]
void TinyGPSPlus::parseDegrees(const char *term, RawDegrees &deg)
{
  uint32_t leftOfDecimal = (uint32_t)atol(term);
  uint16_t minutes = (uint16_t)(leftOfDecimal % 100);
  uint32_t multiplier = 10000000UL;
  uint32_t tenMillionthsOfMinutes = minutes * multiplier;
   d5434:	4343      	muls	r3, r0
   d5436:	4620      	mov	r0, r4

  deg.deg = (int16_t)(leftOfDecimal / 100);

  while (isdigit(*term))
   d5438:	7802      	ldrb	r2, [r0, #0]
   d543a:	f1a2 0130 	sub.w	r1, r2, #48	; 0x30
   d543e:	2909      	cmp	r1, #9
   d5440:	4604      	mov	r4, r0
   d5442:	f100 0001 	add.w	r0, r0, #1
   d5446:	d9f7      	bls.n	d5438 <_ZN11TinyGPSPlus12parseDegreesEPKcR10RawDegrees+0x1c>
    ++term;

  if (*term == '.')
   d5448:	2a2e      	cmp	r2, #46	; 0x2e
   d544a:	d10b      	bne.n	d5464 <_ZN11TinyGPSPlus12parseDegreesEPKcR10RawDegrees+0x48>
   d544c:	490a      	ldr	r1, [pc, #40]	; (d5478 <_ZN11TinyGPSPlus12parseDegreesEPKcR10RawDegrees+0x5c>)
    while (isdigit(*++term))
    {
      multiplier /= 10;
   d544e:	200a      	movs	r0, #10

  while (isdigit(*term))
    ++term;

  if (*term == '.')
    while (isdigit(*++term))
   d5450:	f814 2f01 	ldrb.w	r2, [r4, #1]!
   d5454:	3a30      	subs	r2, #48	; 0x30
   d5456:	2a09      	cmp	r2, #9
   d5458:	d804      	bhi.n	d5464 <_ZN11TinyGPSPlus12parseDegreesEPKcR10RawDegrees+0x48>
    {
      multiplier /= 10;
   d545a:	fbb1 f1f0 	udiv	r1, r1, r0
      tenMillionthsOfMinutes += (*term - '0') * multiplier;
   d545e:	fb01 3302 	mla	r3, r1, r2, r3

  while (isdigit(*term))
    ++term;

  if (*term == '.')
    while (isdigit(*++term))
   d5462:	e7f5      	b.n	d5450 <_ZN11TinyGPSPlus12parseDegreesEPKcR10RawDegrees+0x34>
    {
      multiplier /= 10;
      tenMillionthsOfMinutes += (*term - '0') * multiplier;
    }

  deg.billionths = (5 * tenMillionthsOfMinutes + 1) / 3;
   d5464:	eb03 0383 	add.w	r3, r3, r3, lsl #2
   d5468:	3301      	adds	r3, #1
   d546a:	2203      	movs	r2, #3
   d546c:	fbb3 f3f2 	udiv	r3, r3, r2
   d5470:	606b      	str	r3, [r5, #4]
  deg.negative = false;
   d5472:	2300      	movs	r3, #0
   d5474:	722b      	strb	r3, [r5, #8]
   d5476:	bd38      	pop	{r3, r4, r5, pc}
   d5478:	00989680 	.word	0x00989680

000d547c <_ZN15TinyGPSLocation6commitEv>:
  int direction = (int)((course + 11.25f) / 22.5f);
  return directions[direction % 16];
}

void TinyGPSLocation::commit()
{
   d547c:	b510      	push	{r4, lr}
   rawLatData = rawNewLatData;
   d547e:	4603      	mov	r3, r0
  int direction = (int)((course + 11.25f) / 22.5f);
  return directions[direction % 16];
}

void TinyGPSLocation::commit()
{
   d5480:	4604      	mov	r4, r0
   rawLatData = rawNewLatData;
   d5482:	f853 2f1c 	ldr.w	r2, [r3, #28]!
   d5486:	6042      	str	r2, [r0, #4]
   d5488:	685a      	ldr	r2, [r3, #4]
   d548a:	6082      	str	r2, [r0, #8]
   d548c:	7a1b      	ldrb	r3, [r3, #8]
   d548e:	7303      	strb	r3, [r0, #12]
   rawLngData = rawNewLngData;
   d5490:	4603      	mov	r3, r0
   d5492:	f853 2f28 	ldr.w	r2, [r3, #40]!
   d5496:	6102      	str	r2, [r0, #16]
   d5498:	685a      	ldr	r2, [r3, #4]
   d549a:	6142      	str	r2, [r0, #20]
   d549c:	7a1b      	ldrb	r3, [r3, #8]
   d549e:	7603      	strb	r3, [r0, #24]

#ifdef __cplusplus
extern "C" {
#endif

inline system_tick_t millis(void) { return HAL_Timer_Get_Milli_Seconds(); }
   d54a0:	f000 faf4 	bl	d5a8c <HAL_Timer_Get_Milli_Seconds>
   lastCommitTime = millis();
   valid = updated = true;
   d54a4:	2301      	movs	r3, #1

void TinyGPSLocation::commit()
{
   rawLatData = rawNewLatData;
   rawLngData = rawNewLngData;
   lastCommitTime = millis();
   d54a6:	6360      	str	r0, [r4, #52]	; 0x34
   valid = updated = true;
   d54a8:	7063      	strb	r3, [r4, #1]
   d54aa:	7023      	strb	r3, [r4, #0]
   d54ac:	bd10      	pop	{r4, pc}
	...

000d54b0 <_ZN15TinyGPSLocation3latEv>:
{
   TinyGPSPlus::parseDegrees(term, rawNewLngData);
}

double TinyGPSLocation::lat()
{
   d54b0:	b5d0      	push	{r4, r6, r7, lr}
   updated = false;
   d54b2:	2300      	movs	r3, #0
{
   TinyGPSPlus::parseDegrees(term, rawNewLngData);
}

double TinyGPSLocation::lat()
{
   d54b4:	4604      	mov	r4, r0
   updated = false;
   d54b6:	7043      	strb	r3, [r0, #1]
   double ret = rawLatData.deg + rawLatData.billionths / 1000000000.0;
   d54b8:	6880      	ldr	r0, [r0, #8]
   d54ba:	f002 f97d 	bl	d77b8 <__aeabi_ui2d>
   d54be:	a30e      	add	r3, pc, #56	; (adr r3, d54f8 <_ZN15TinyGPSLocation3latEv+0x48>)
   d54c0:	e9d3 2300 	ldrd	r2, r3, [r3]
   d54c4:	f002 fb18 	bl	d7af8 <__aeabi_ddiv>
   d54c8:	4606      	mov	r6, r0
   d54ca:	88a0      	ldrh	r0, [r4, #4]
   d54cc:	460f      	mov	r7, r1
   d54ce:	f002 f983 	bl	d77d8 <__aeabi_i2d>
   d54d2:	460b      	mov	r3, r1
   d54d4:	4602      	mov	r2, r0
   d54d6:	4639      	mov	r1, r7
   d54d8:	4630      	mov	r0, r6
   d54da:	f002 f831 	bl	d7540 <__adddf3>
   return rawLatData.negative ? -ret : ret;
   d54de:	7b23      	ldrb	r3, [r4, #12]
   d54e0:	b11b      	cbz	r3, d54ea <_ZN15TinyGPSLocation3latEv+0x3a>
   d54e2:	4602      	mov	r2, r0
   d54e4:	f101 4300 	add.w	r3, r1, #2147483648	; 0x80000000
   d54e8:	e001      	b.n	d54ee <_ZN15TinyGPSLocation3latEv+0x3e>
   d54ea:	4602      	mov	r2, r0
   d54ec:	460b      	mov	r3, r1
}
   d54ee:	ec43 2b10 	vmov	d0, r2, r3
   d54f2:	bdd0      	pop	{r4, r6, r7, pc}
   d54f4:	f3af 8000 	nop.w
   d54f8:	00000000 	.word	0x00000000
   d54fc:	41cdcd65 	.word	0x41cdcd65

000d5500 <_ZN15TinyGPSLocation3lngEv>:

double TinyGPSLocation::lng()
{
   d5500:	b5d0      	push	{r4, r6, r7, lr}
   updated = false;
   d5502:	2300      	movs	r3, #0
   double ret = rawLatData.deg + rawLatData.billionths / 1000000000.0;
   return rawLatData.negative ? -ret : ret;
}

double TinyGPSLocation::lng()
{
   d5504:	4604      	mov	r4, r0
   updated = false;
   d5506:	7043      	strb	r3, [r0, #1]
   double ret = rawLngData.deg + rawLngData.billionths / 1000000000.0;
   d5508:	6940      	ldr	r0, [r0, #20]
   d550a:	f002 f955 	bl	d77b8 <__aeabi_ui2d>
   d550e:	a30e      	add	r3, pc, #56	; (adr r3, d5548 <_ZN15TinyGPSLocation3lngEv+0x48>)
   d5510:	e9d3 2300 	ldrd	r2, r3, [r3]
   d5514:	f002 faf0 	bl	d7af8 <__aeabi_ddiv>
   d5518:	4606      	mov	r6, r0
   d551a:	8a20      	ldrh	r0, [r4, #16]
   d551c:	460f      	mov	r7, r1
   d551e:	f002 f95b 	bl	d77d8 <__aeabi_i2d>
   d5522:	460b      	mov	r3, r1
   d5524:	4602      	mov	r2, r0
   d5526:	4639      	mov	r1, r7
   d5528:	4630      	mov	r0, r6
   d552a:	f002 f809 	bl	d7540 <__adddf3>
   return rawLngData.negative ? -ret : ret;
   d552e:	7e23      	ldrb	r3, [r4, #24]
   d5530:	b11b      	cbz	r3, d553a <_ZN15TinyGPSLocation3lngEv+0x3a>
   d5532:	4602      	mov	r2, r0
   d5534:	f101 4300 	add.w	r3, r1, #2147483648	; 0x80000000
   d5538:	e001      	b.n	d553e <_ZN15TinyGPSLocation3lngEv+0x3e>
   d553a:	4602      	mov	r2, r0
   d553c:	460b      	mov	r3, r1
}
   d553e:	ec43 2b10 	vmov	d0, r2, r3
   d5542:	bdd0      	pop	{r4, r6, r7, pc}
   d5544:	f3af 8000 	nop.w
   d5548:	00000000 	.word	0x00000000
   d554c:	41cdcd65 	.word	0x41cdcd65

000d5550 <_ZN11TinyGPSDate6commitEv>:

void TinyGPSDate::commit()
{
   d5550:	b510      	push	{r4, lr}
   date = newDate;
   d5552:	6883      	ldr	r3, [r0, #8]
   d5554:	6043      	str	r3, [r0, #4]
   double ret = rawLngData.deg + rawLngData.billionths / 1000000000.0;
   return rawLngData.negative ? -ret : ret;
}

void TinyGPSDate::commit()
{
   d5556:	4604      	mov	r4, r0
   d5558:	f000 fa98 	bl	d5a8c <HAL_Timer_Get_Milli_Seconds>
   date = newDate;
   lastCommitTime = millis();
   valid = updated = true;
   d555c:	2301      	movs	r3, #1
}

void TinyGPSDate::commit()
{
   date = newDate;
   lastCommitTime = millis();
   d555e:	60e0      	str	r0, [r4, #12]
   valid = updated = true;
   d5560:	7063      	strb	r3, [r4, #1]
   d5562:	7023      	strb	r3, [r4, #0]
   d5564:	bd10      	pop	{r4, pc}

000d5566 <_ZN11TinyGPSTime6commitEv>:
}

void TinyGPSTime::commit()
{
   d5566:	b510      	push	{r4, lr}
   time = newTime;
   d5568:	6883      	ldr	r3, [r0, #8]
   d556a:	6043      	str	r3, [r0, #4]
   lastCommitTime = millis();
   valid = updated = true;
}

void TinyGPSTime::commit()
{
   d556c:	4604      	mov	r4, r0
   d556e:	f000 fa8d 	bl	d5a8c <HAL_Timer_Get_Milli_Seconds>
   time = newTime;
   lastCommitTime = millis();
   valid = updated = true;
   d5572:	2301      	movs	r3, #1
}

void TinyGPSTime::commit()
{
   time = newTime;
   lastCommitTime = millis();
   d5574:	60e0      	str	r0, [r4, #12]
   valid = updated = true;
   d5576:	7063      	strb	r3, [r4, #1]
   d5578:	7023      	strb	r3, [r4, #0]
   d557a:	bd10      	pop	{r4, pc}

000d557c <_ZN11TinyGPSTime7setTimeEPKc>:
}

void TinyGPSTime::setTime(const char *term)
{
   d557c:	b510      	push	{r4, lr}
   d557e:	4604      	mov	r4, r0
   newTime = (uint32_t)TinyGPSPlus::parseDecimal(term);
   d5580:	4608      	mov	r0, r1
   d5582:	f7ff ff26 	bl	d53d2 <_ZN11TinyGPSPlus12parseDecimalEPKc>
   d5586:	60a0      	str	r0, [r4, #8]
   d5588:	bd10      	pop	{r4, pc}

000d558a <_ZN11TinyGPSDate7setDateEPKc>:
}

void TinyGPSDate::setDate(const char *term)
{
   d558a:	b510      	push	{r4, lr}
   d558c:	4604      	mov	r4, r0
   newDate = atol(term);
   d558e:	4608      	mov	r0, r1
   d5590:	f002 fbea 	bl	d7d68 <atol>
   d5594:	60a0      	str	r0, [r4, #8]
   d5596:	bd10      	pop	{r4, pc}

000d5598 <_ZN11TinyGPSTime4hourEv>:
   return date / 10000;
}

uint8_t TinyGPSTime::hour()
{
   updated = false;
   d5598:	2300      	movs	r3, #0
   d559a:	7043      	strb	r3, [r0, #1]
   return time / 1000000;
   d559c:	6843      	ldr	r3, [r0, #4]
   d559e:	4802      	ldr	r0, [pc, #8]	; (d55a8 <_ZN11TinyGPSTime4hourEv+0x10>)
   d55a0:	fbb3 f0f0 	udiv	r0, r3, r0
}
   d55a4:	b2c0      	uxtb	r0, r0
   d55a6:	4770      	bx	lr
   d55a8:	000f4240 	.word	0x000f4240

000d55ac <_ZN11TinyGPSTime6minuteEv>:

uint8_t TinyGPSTime::minute()
{
   updated = false;
   d55ac:	2300      	movs	r3, #0
   d55ae:	7043      	strb	r3, [r0, #1]
   return (time / 10000) % 100;
   d55b0:	6843      	ldr	r3, [r0, #4]
   d55b2:	f242 7010 	movw	r0, #10000	; 0x2710
   d55b6:	fbb3 f3f0 	udiv	r3, r3, r0
   d55ba:	2064      	movs	r0, #100	; 0x64
   d55bc:	fbb3 f2f0 	udiv	r2, r3, r0
   d55c0:	fb00 3012 	mls	r0, r0, r2, r3
}
   d55c4:	b2c0      	uxtb	r0, r0
   d55c6:	4770      	bx	lr

000d55c8 <_ZN11TinyGPSTime6secondEv>:

uint8_t TinyGPSTime::second()
{
   updated = false;
   d55c8:	2300      	movs	r3, #0
   d55ca:	7043      	strb	r3, [r0, #1]
   return (time / 100) % 100;
   d55cc:	6843      	ldr	r3, [r0, #4]
   d55ce:	2064      	movs	r0, #100	; 0x64
   d55d0:	fbb3 f3f0 	udiv	r3, r3, r0
   d55d4:	fbb3 f2f0 	udiv	r2, r3, r0
   d55d8:	fb00 3012 	mls	r0, r0, r2, r3
}
   d55dc:	b2c0      	uxtb	r0, r0
   d55de:	4770      	bx	lr

000d55e0 <_ZN11TinyGPSTime11centisecondEv>:

uint8_t TinyGPSTime::centisecond()
{
   updated = false;
   d55e0:	2300      	movs	r3, #0
   d55e2:	7043      	strb	r3, [r0, #1]
   return time % 100;
   d55e4:	6840      	ldr	r0, [r0, #4]
   d55e6:	2264      	movs	r2, #100	; 0x64
   d55e8:	fbb0 f3f2 	udiv	r3, r0, r2
   d55ec:	fb02 0013 	mls	r0, r2, r3, r0
}
   d55f0:	b2c0      	uxtb	r0, r0
   d55f2:	4770      	bx	lr

000d55f4 <_ZN14TinyGPSDecimal6commitEv>:

void TinyGPSDecimal::commit()
{
   d55f4:	b510      	push	{r4, lr}
   val = newval;
   d55f6:	68c3      	ldr	r3, [r0, #12]
   d55f8:	6083      	str	r3, [r0, #8]
   updated = false;
   return time % 100;
}

void TinyGPSDecimal::commit()
{
   d55fa:	4604      	mov	r4, r0
   d55fc:	f000 fa46 	bl	d5a8c <HAL_Timer_Get_Milli_Seconds>
   val = newval;
   lastCommitTime = millis();
   valid = updated = true;
   d5600:	2301      	movs	r3, #1
}

void TinyGPSDecimal::commit()
{
   val = newval;
   lastCommitTime = millis();
   d5602:	6060      	str	r0, [r4, #4]
   valid = updated = true;
   d5604:	7063      	strb	r3, [r4, #1]
   d5606:	7023      	strb	r3, [r4, #0]
   d5608:	bd10      	pop	{r4, pc}

000d560a <_ZN14TinyGPSDecimal3setEPKc>:
}

void TinyGPSDecimal::set(const char *term)
{
   d560a:	b510      	push	{r4, lr}
   d560c:	4604      	mov	r4, r0
   newval = TinyGPSPlus::parseDecimal(term);
   d560e:	4608      	mov	r0, r1
   d5610:	f7ff fedf 	bl	d53d2 <_ZN11TinyGPSPlus12parseDecimalEPKc>
   d5614:	60e0      	str	r0, [r4, #12]
   d5616:	bd10      	pop	{r4, pc}

000d5618 <_ZN14TinyGPSInteger6commitEv>:
}

void TinyGPSInteger::commit()
{
   d5618:	b510      	push	{r4, lr}
   val = newval;
   d561a:	68c3      	ldr	r3, [r0, #12]
   d561c:	6083      	str	r3, [r0, #8]
{
   newval = TinyGPSPlus::parseDecimal(term);
}

void TinyGPSInteger::commit()
{
   d561e:	4604      	mov	r4, r0
   d5620:	f000 fa34 	bl	d5a8c <HAL_Timer_Get_Milli_Seconds>
   val = newval;
   lastCommitTime = millis();
   valid = updated = true;
   d5624:	2301      	movs	r3, #1
}

void TinyGPSInteger::commit()
{
   val = newval;
   lastCommitTime = millis();
   d5626:	6060      	str	r0, [r4, #4]
   valid = updated = true;
   d5628:	7063      	strb	r3, [r4, #1]
   d562a:	7023      	strb	r3, [r4, #0]
   d562c:	bd10      	pop	{r4, pc}

000d562e <_ZN14TinyGPSInteger3setEPKc>:
}

void TinyGPSInteger::set(const char *term)
{
   d562e:	b510      	push	{r4, lr}
   d5630:	4604      	mov	r4, r0
   newval = atol(term);
   d5632:	4608      	mov	r0, r1
   d5634:	f002 fb98 	bl	d7d68 <atol>
   d5638:	60e0      	str	r0, [r4, #12]
   d563a:	bd10      	pop	{r4, pc}

000d563c <_ZN13TinyGPSCustom6commitEv>:
   // Insert this item into the GPS tree
   gps.insertCustom(this, _sentenceName, _termNumber);
}

void TinyGPSCustom::commit()
{
   d563c:	b510      	push	{r4, lr}
   strcpy(this->buffer, this->stagingBuffer);
   d563e:	4601      	mov	r1, r0
   // Insert this item into the GPS tree
   gps.insertCustom(this, _sentenceName, _termNumber);
}

void TinyGPSCustom::commit()
{
   d5640:	4604      	mov	r4, r0
   strcpy(this->buffer, this->stagingBuffer);
   d5642:	3010      	adds	r0, #16
   d5644:	f002 fc22 	bl	d7e8c <strcpy>
   d5648:	f000 fa20 	bl	d5a8c <HAL_Timer_Get_Milli_Seconds>
   lastCommitTime = millis();
   valid = updated = true;
   d564c:	2301      	movs	r3, #1
}

void TinyGPSCustom::commit()
{
   strcpy(this->buffer, this->stagingBuffer);
   lastCommitTime = millis();
   d564e:	6220      	str	r0, [r4, #32]
   valid = updated = true;
   d5650:	f884 3025 	strb.w	r3, [r4, #37]	; 0x25
   d5654:	f884 3024 	strb.w	r3, [r4, #36]	; 0x24
   d5658:	bd10      	pop	{r4, pc}

000d565a <_ZN13TinyGPSCustom3setEPKc>:
}

void TinyGPSCustom::set(const char *term)
{
   strncpy(this->stagingBuffer, term, sizeof(this->stagingBuffer));
   d565a:	2210      	movs	r2, #16
   d565c:	f002 bc41 	b.w	d7ee2 <strncpy>

000d5660 <_ZN11TinyGPSPlus16endOfTermHandlerEv>:
#define COMBINE(sentence_type, term_number) (((unsigned)(sentence_type) << 5) | term_number)

// Processes a just-completed term
// Returns true if new sentence has just passed checksum test and is validated
bool TinyGPSPlus::endOfTermHandler()
{
   d5660:	b5f8      	push	{r3, r4, r5, r6, r7, lr}
  // If it's the checksum term, and the checksum checks out, commit
  if (isChecksumTerm)
   d5662:	f890 50a9 	ldrb.w	r5, [r0, #169]	; 0xa9
#define COMBINE(sentence_type, term_number) (((unsigned)(sentence_type) << 5) | term_number)

// Processes a just-completed term
// Returns true if new sentence has just passed checksum test and is validated
bool TinyGPSPlus::endOfTermHandler()
{
   d5666:	4604      	mov	r4, r0
  // If it's the checksum term, and the checksum checks out, commit
  if (isChecksumTerm)
   d5668:	2d00      	cmp	r5, #0
   d566a:	d067      	beq.n	d573c <_ZN11TinyGPSPlus16endOfTermHandlerEv+0xdc>
  {
    byte checksum = 16 * fromHex(term[0]) + fromHex(term[1]);
   d566c:	f890 10aa 	ldrb.w	r1, [r0, #170]	; 0xaa
   d5670:	f7ff fe9f 	bl	d53b2 <_ZN11TinyGPSPlus7fromHexEc>
   d5674:	f894 10ab 	ldrb.w	r1, [r4, #171]	; 0xab
   d5678:	4602      	mov	r2, r0
   d567a:	4620      	mov	r0, r4
   d567c:	f7ff fe99 	bl	d53b2 <_ZN11TinyGPSPlus7fromHexEc>
    if (checksum == parity)
   d5680:	f894 30a8 	ldrb.w	r3, [r4, #168]	; 0xa8
   d5684:	eb00 1002 	add.w	r0, r0, r2, lsl #4
   d5688:	b2c0      	uxtb	r0, r0
   d568a:	4283      	cmp	r3, r0
   d568c:	d14f      	bne.n	d572e <_ZN11TinyGPSPlus16endOfTermHandlerEv+0xce>
    {
      passedChecksumCount++;
   d568e:	f8d4 30d4 	ldr.w	r3, [r4, #212]	; 0xd4
   d5692:	3301      	adds	r3, #1
   d5694:	f8c4 30d4 	str.w	r3, [r4, #212]	; 0xd4
      if (sentenceHasFix)
   d5698:	f894 30bc 	ldrb.w	r3, [r4, #188]	; 0xbc
   d569c:	b123      	cbz	r3, d56a8 <_ZN11TinyGPSPlus16endOfTermHandlerEv+0x48>
        ++sentencesWithFixCount;
   d569e:	f8d4 30cc 	ldr.w	r3, [r4, #204]	; 0xcc
   d56a2:	3301      	adds	r3, #1
   d56a4:	f8c4 30cc 	str.w	r3, [r4, #204]	; 0xcc

      switch(curSentenceType)
   d56a8:	f894 30b9 	ldrb.w	r3, [r4, #185]	; 0xb9
   d56ac:	b1b3      	cbz	r3, d56dc <_ZN11TinyGPSPlus16endOfTermHandlerEv+0x7c>
   d56ae:	2b01      	cmp	r3, #1
   d56b0:	d12a      	bne.n	d5708 <_ZN11TinyGPSPlus16endOfTermHandlerEv+0xa8>
      {
      case GPS_SENTENCE_GPRMC:
        date.commit();
   d56b2:	f104 0038 	add.w	r0, r4, #56	; 0x38
   d56b6:	f7ff ff4b 	bl	d5550 <_ZN11TinyGPSDate6commitEv>
        time.commit();
   d56ba:	f104 0048 	add.w	r0, r4, #72	; 0x48
   d56be:	f7ff ff52 	bl	d5566 <_ZN11TinyGPSTime6commitEv>
        if (sentenceHasFix)
   d56c2:	f894 30bc 	ldrb.w	r3, [r4, #188]	; 0xbc
   d56c6:	b1fb      	cbz	r3, d5708 <_ZN11TinyGPSPlus16endOfTermHandlerEv+0xa8>
        {
           location.commit();
   d56c8:	4620      	mov	r0, r4
   d56ca:	f7ff fed7 	bl	d547c <_ZN15TinyGPSLocation6commitEv>
           speed.commit();
   d56ce:	f104 0058 	add.w	r0, r4, #88	; 0x58
   d56d2:	f7ff ff8f 	bl	d55f4 <_ZN14TinyGPSDecimal6commitEv>
           course.commit();
   d56d6:	f104 0068 	add.w	r0, r4, #104	; 0x68
   d56da:	e013      	b.n	d5704 <_ZN11TinyGPSPlus16endOfTermHandlerEv+0xa4>
        }
        break;
      case GPS_SENTENCE_GPGGA:
        time.commit();
   d56dc:	f104 0048 	add.w	r0, r4, #72	; 0x48
   d56e0:	f7ff ff41 	bl	d5566 <_ZN11TinyGPSTime6commitEv>
        if (sentenceHasFix)
   d56e4:	f894 30bc 	ldrb.w	r3, [r4, #188]	; 0xbc
   d56e8:	b133      	cbz	r3, d56f8 <_ZN11TinyGPSPlus16endOfTermHandlerEv+0x98>
        {
          location.commit();
   d56ea:	4620      	mov	r0, r4
   d56ec:	f7ff fec6 	bl	d547c <_ZN15TinyGPSLocation6commitEv>
          altitude.commit();
   d56f0:	f104 0078 	add.w	r0, r4, #120	; 0x78
   d56f4:	f7ff ff7e 	bl	d55f4 <_ZN14TinyGPSDecimal6commitEv>
        }
        satellites.commit();
   d56f8:	f104 0088 	add.w	r0, r4, #136	; 0x88
   d56fc:	f7ff ff8c 	bl	d5618 <_ZN14TinyGPSInteger6commitEv>
        hdop.commit();
   d5700:	f104 0098 	add.w	r0, r4, #152	; 0x98
   d5704:	f7ff ff76 	bl	d55f4 <_ZN14TinyGPSDecimal6commitEv>
        break;
      }

      // Commit all custom listeners of this sentence type
      for (TinyGPSCustom *p = customCandidates; p != NULL && strcmp(p->sentenceName, customCandidates->sentenceName) == 0; p = p->next)
   d5708:	f8d4 60c4 	ldr.w	r6, [r4, #196]	; 0xc4
   d570c:	2e00      	cmp	r6, #0
   d570e:	f000 80c5 	beq.w	d589c <_ZN11TinyGPSPlus16endOfTermHandlerEv+0x23c>
   d5712:	f8d4 30c4 	ldr.w	r3, [r4, #196]	; 0xc4
   d5716:	6ab0      	ldr	r0, [r6, #40]	; 0x28
   d5718:	6a99      	ldr	r1, [r3, #40]	; 0x28
   d571a:	f002 fbad 	bl	d7e78 <strcmp>
   d571e:	2800      	cmp	r0, #0
   d5720:	f040 80bc 	bne.w	d589c <_ZN11TinyGPSPlus16endOfTermHandlerEv+0x23c>
         p->commit();
   d5724:	4630      	mov	r0, r6
   d5726:	f7ff ff89 	bl	d563c <_ZN13TinyGPSCustom6commitEv>
        hdop.commit();
        break;
      }

      // Commit all custom listeners of this sentence type
      for (TinyGPSCustom *p = customCandidates; p != NULL && strcmp(p->sentenceName, customCandidates->sentenceName) == 0; p = p->next)
   d572a:	6b36      	ldr	r6, [r6, #48]	; 0x30
   d572c:	e7ee      	b.n	d570c <_ZN11TinyGPSPlus16endOfTermHandlerEv+0xac>
      return true;
    }

    else
    {
      ++failedChecksumCount;
   d572e:	f8d4 30d0 	ldr.w	r3, [r4, #208]	; 0xd0
   d5732:	3301      	adds	r3, #1
   d5734:	f8c4 30d0 	str.w	r3, [r4, #208]	; 0xd0
    }

    return false;
   d5738:	2500      	movs	r5, #0
   d573a:	e0af      	b.n	d589c <_ZN11TinyGPSPlus16endOfTermHandlerEv+0x23c>
  }

  // the first term determines the sentence type
  if (curTermNumber == 0)
   d573c:	f890 20ba 	ldrb.w	r2, [r0, #186]	; 0xba
   d5740:	bb2a      	cbnz	r2, d578e <_ZN11TinyGPSPlus16endOfTermHandlerEv+0x12e>
  {
    if (!strcmp(term, _GPRMCterm))
   d5742:	f100 07aa 	add.w	r7, r0, #170	; 0xaa
   d5746:	4956      	ldr	r1, [pc, #344]	; (d58a0 <_ZN11TinyGPSPlus16endOfTermHandlerEv+0x240>)
   d5748:	4638      	mov	r0, r7
   d574a:	f002 fb95 	bl	d7e78 <strcmp>
   d574e:	b908      	cbnz	r0, d5754 <_ZN11TinyGPSPlus16endOfTermHandlerEv+0xf4>
      curSentenceType = GPS_SENTENCE_GPRMC;
   d5750:	2301      	movs	r3, #1
   d5752:	e008      	b.n	d5766 <_ZN11TinyGPSPlus16endOfTermHandlerEv+0x106>
    else if (!strcmp(term, _GPGGAterm))
   d5754:	4953      	ldr	r1, [pc, #332]	; (d58a4 <_ZN11TinyGPSPlus16endOfTermHandlerEv+0x244>)
   d5756:	4638      	mov	r0, r7
   d5758:	f002 fb8e 	bl	d7e78 <strcmp>
   d575c:	b910      	cbnz	r0, d5764 <_ZN11TinyGPSPlus16endOfTermHandlerEv+0x104>
      curSentenceType = GPS_SENTENCE_GPGGA;
   d575e:	f884 50b9 	strb.w	r5, [r4, #185]	; 0xb9
   d5762:	e002      	b.n	d576a <_ZN11TinyGPSPlus16endOfTermHandlerEv+0x10a>
    else
      curSentenceType = GPS_SENTENCE_OTHER;
   d5764:	2302      	movs	r3, #2
   d5766:	f884 30b9 	strb.w	r3, [r4, #185]	; 0xb9

    // Any custom candidates of this sentence type?
    for (customCandidates = customElts; customCandidates != NULL && strcmp(customCandidates->sentenceName, term) < 0; customCandidates = customCandidates->next);
   d576a:	f8d4 30c0 	ldr.w	r3, [r4, #192]	; 0xc0
   d576e:	f8c4 30c4 	str.w	r3, [r4, #196]	; 0xc4
   d5772:	f8d4 60c4 	ldr.w	r6, [r4, #196]	; 0xc4
   d5776:	2e00      	cmp	r6, #0
   d5778:	f000 8090 	beq.w	d589c <_ZN11TinyGPSPlus16endOfTermHandlerEv+0x23c>
   d577c:	4639      	mov	r1, r7
   d577e:	6ab0      	ldr	r0, [r6, #40]	; 0x28
   d5780:	f002 fb7a 	bl	d7e78 <strcmp>
   d5784:	2800      	cmp	r0, #0
   d5786:	f280 8085 	bge.w	d5894 <_ZN11TinyGPSPlus16endOfTermHandlerEv+0x234>
   d578a:	6b33      	ldr	r3, [r6, #48]	; 0x30
   d578c:	e7ef      	b.n	d576e <_ZN11TinyGPSPlus16endOfTermHandlerEv+0x10e>
       customCandidates = NULL;

    return false;
  }

  if (curSentenceType != GPS_SENTENCE_OTHER && term[0])
   d578e:	f890 10b9 	ldrb.w	r1, [r0, #185]	; 0xb9
   d5792:	2902      	cmp	r1, #2
   d5794:	d066      	beq.n	d5864 <_ZN11TinyGPSPlus16endOfTermHandlerEv+0x204>
   d5796:	f890 30aa 	ldrb.w	r3, [r0, #170]	; 0xaa
   d579a:	2b00      	cmp	r3, #0
   d579c:	d062      	beq.n	d5864 <_ZN11TinyGPSPlus16endOfTermHandlerEv+0x204>
    switch(COMBINE(curSentenceType, curTermNumber))
   d579e:	ea42 1241 	orr.w	r2, r2, r1, lsl #5
   d57a2:	3a01      	subs	r2, #1
   d57a4:	2a28      	cmp	r2, #40	; 0x28
   d57a6:	d85d      	bhi.n	d5864 <_ZN11TinyGPSPlus16endOfTermHandlerEv+0x204>
   d57a8:	e8df f002 	tbb	[pc, r2]
   d57ac:	2a232015 	.word	0x2a232015
   d57b0:	534d4631 	.word	0x534d4631
   d57b4:	5c5c5c57 	.word	0x5c5c5c57
   d57b8:	5c5c5c5c 	.word	0x5c5c5c5c
   d57bc:	5c5c5c5c 	.word	0x5c5c5c5c
   d57c0:	5c5c5c5c 	.word	0x5c5c5c5c
   d57c4:	5c5c5c5c 	.word	0x5c5c5c5c
   d57c8:	5c5c5c5c 	.word	0x5c5c5c5c
   d57cc:	23201b15 	.word	0x23201b15
   d57d0:	3c38312a 	.word	0x3c38312a
   d57d4:	40          	.byte	0x40
   d57d5:	00          	.byte	0x00
  {
    case COMBINE(GPS_SENTENCE_GPRMC, 1): // Time in both sentences
    case COMBINE(GPS_SENTENCE_GPGGA, 1):
      time.setTime(term);
   d57d6:	f100 01aa 	add.w	r1, r0, #170	; 0xaa
   d57da:	3048      	adds	r0, #72	; 0x48
   d57dc:	f7ff fece 	bl	d557c <_ZN11TinyGPSTime7setTimeEPKc>
      break;
   d57e0:	e040      	b.n	d5864 <_ZN11TinyGPSPlus16endOfTermHandlerEv+0x204>
    case COMBINE(GPS_SENTENCE_GPRMC, 2): // GPRMC validity
      sentenceHasFix = term[0] == 'A';
   d57e2:	f1a3 0041 	sub.w	r0, r3, #65	; 0x41
   d57e6:	4243      	negs	r3, r0
   d57e8:	4143      	adcs	r3, r0
   d57ea:	e029      	b.n	d5840 <_ZN11TinyGPSPlus16endOfTermHandlerEv+0x1e0>
   valid = updated = true;
}

void TinyGPSLocation::setLatitude(const char *term)
{
   TinyGPSPlus::parseDegrees(term, rawNewLatData);
   d57ec:	f100 011c 	add.w	r1, r0, #28
   d57f0:	e008      	b.n	d5804 <_ZN11TinyGPSPlus16endOfTermHandlerEv+0x1a4>
    case COMBINE(GPS_SENTENCE_GPGGA, 2):
      location.setLatitude(term);
      break;
    case COMBINE(GPS_SENTENCE_GPRMC, 4): // N/S
    case COMBINE(GPS_SENTENCE_GPGGA, 3):
      location.rawNewLatData.negative = term[0] == 'S';
   d57f2:	f1a3 0153 	sub.w	r1, r3, #83	; 0x53
   d57f6:	424b      	negs	r3, r1
   d57f8:	414b      	adcs	r3, r1
   d57fa:	f880 3024 	strb.w	r3, [r0, #36]	; 0x24
      break;
   d57fe:	e031      	b.n	d5864 <_ZN11TinyGPSPlus16endOfTermHandlerEv+0x204>
   TinyGPSPlus::parseDegrees(term, rawNewLatData);
}

void TinyGPSLocation::setLongitude(const char *term)
{
   TinyGPSPlus::parseDegrees(term, rawNewLngData);
   d5800:	f100 0128 	add.w	r1, r0, #40	; 0x28
   d5804:	f104 00aa 	add.w	r0, r4, #170	; 0xaa
   d5808:	f7ff fe08 	bl	d541c <_ZN11TinyGPSPlus12parseDegreesEPKcR10RawDegrees>
   d580c:	e02a      	b.n	d5864 <_ZN11TinyGPSPlus16endOfTermHandlerEv+0x204>
    case COMBINE(GPS_SENTENCE_GPGGA, 4):
      location.setLongitude(term);
      break;
    case COMBINE(GPS_SENTENCE_GPRMC, 6): // E/W
    case COMBINE(GPS_SENTENCE_GPGGA, 5):
      location.rawNewLngData.negative = term[0] == 'W';
   d580e:	f1a3 0257 	sub.w	r2, r3, #87	; 0x57
   d5812:	4253      	negs	r3, r2
   d5814:	4153      	adcs	r3, r2
   d5816:	f880 3030 	strb.w	r3, [r0, #48]	; 0x30
      break;
   d581a:	e023      	b.n	d5864 <_ZN11TinyGPSPlus16endOfTermHandlerEv+0x204>
    case COMBINE(GPS_SENTENCE_GPRMC, 7): // Speed (GPRMC)
      speed.set(term);
   d581c:	f100 01aa 	add.w	r1, r0, #170	; 0xaa
   d5820:	3058      	adds	r0, #88	; 0x58
   d5822:	e01d      	b.n	d5860 <_ZN11TinyGPSPlus16endOfTermHandlerEv+0x200>
      break;
    case COMBINE(GPS_SENTENCE_GPRMC, 8): // Course (GPRMC)
      course.set(term);
   d5824:	f100 01aa 	add.w	r1, r0, #170	; 0xaa
   d5828:	3068      	adds	r0, #104	; 0x68
   d582a:	e019      	b.n	d5860 <_ZN11TinyGPSPlus16endOfTermHandlerEv+0x200>
      break;
    case COMBINE(GPS_SENTENCE_GPRMC, 9): // Date (GPRMC)
      date.setDate(term);
   d582c:	f100 01aa 	add.w	r1, r0, #170	; 0xaa
   d5830:	3038      	adds	r0, #56	; 0x38
   d5832:	f7ff feaa 	bl	d558a <_ZN11TinyGPSDate7setDateEPKc>
      break;
   d5836:	e015      	b.n	d5864 <_ZN11TinyGPSPlus16endOfTermHandlerEv+0x204>
    case COMBINE(GPS_SENTENCE_GPGGA, 6): // Fix data (GPGGA)
      sentenceHasFix = term[0] > '0';
   d5838:	2b30      	cmp	r3, #48	; 0x30
   d583a:	bf94      	ite	ls
   d583c:	2300      	movls	r3, #0
   d583e:	2301      	movhi	r3, #1
   d5840:	f884 30bc 	strb.w	r3, [r4, #188]	; 0xbc
      break;
   d5844:	e00e      	b.n	d5864 <_ZN11TinyGPSPlus16endOfTermHandlerEv+0x204>
    case COMBINE(GPS_SENTENCE_GPGGA, 7): // Satellites used (GPGGA)
      satellites.set(term);
   d5846:	f100 01aa 	add.w	r1, r0, #170	; 0xaa
   d584a:	3088      	adds	r0, #136	; 0x88
   d584c:	f7ff feef 	bl	d562e <_ZN14TinyGPSInteger3setEPKc>
      break;
   d5850:	e008      	b.n	d5864 <_ZN11TinyGPSPlus16endOfTermHandlerEv+0x204>
    case COMBINE(GPS_SENTENCE_GPGGA, 8): // HDOP
      hdop.set(term);
   d5852:	f100 01aa 	add.w	r1, r0, #170	; 0xaa
   d5856:	3098      	adds	r0, #152	; 0x98
   d5858:	e002      	b.n	d5860 <_ZN11TinyGPSPlus16endOfTermHandlerEv+0x200>
      break;
    case COMBINE(GPS_SENTENCE_GPGGA, 9): // Altitude (GPGGA)
      altitude.set(term);
   d585a:	f100 01aa 	add.w	r1, r0, #170	; 0xaa
   d585e:	3078      	adds	r0, #120	; 0x78
   d5860:	f7ff fed3 	bl	d560a <_ZN14TinyGPSDecimal3setEPKc>
      break;
  }

  // Set custom values as needed
  for (TinyGPSCustom *p = customCandidates; p != NULL && strcmp(p->sentenceName, customCandidates->sentenceName) == 0 && p->termNumber <= curTermNumber; p = p->next)
   d5864:	f8d4 60c4 	ldr.w	r6, [r4, #196]	; 0xc4
    if (p->termNumber == curTermNumber)
         p->set(term);
   d5868:	f104 07aa 	add.w	r7, r4, #170	; 0xaa
      altitude.set(term);
      break;
  }

  // Set custom values as needed
  for (TinyGPSCustom *p = customCandidates; p != NULL && strcmp(p->sentenceName, customCandidates->sentenceName) == 0 && p->termNumber <= curTermNumber; p = p->next)
   d586c:	b1b6      	cbz	r6, d589c <_ZN11TinyGPSPlus16endOfTermHandlerEv+0x23c>
   d586e:	f8d4 30c4 	ldr.w	r3, [r4, #196]	; 0xc4
   d5872:	6ab0      	ldr	r0, [r6, #40]	; 0x28
   d5874:	6a99      	ldr	r1, [r3, #40]	; 0x28
   d5876:	f002 faff 	bl	d7e78 <strcmp>
   d587a:	b978      	cbnz	r0, d589c <_ZN11TinyGPSPlus16endOfTermHandlerEv+0x23c>
   d587c:	6af2      	ldr	r2, [r6, #44]	; 0x2c
   d587e:	f894 30ba 	ldrb.w	r3, [r4, #186]	; 0xba
   d5882:	429a      	cmp	r2, r3
   d5884:	dc0a      	bgt.n	d589c <_ZN11TinyGPSPlus16endOfTermHandlerEv+0x23c>
    if (p->termNumber == curTermNumber)
   d5886:	d103      	bne.n	d5890 <_ZN11TinyGPSPlus16endOfTermHandlerEv+0x230>
         p->set(term);
   d5888:	4639      	mov	r1, r7
   d588a:	4630      	mov	r0, r6
   d588c:	f7ff fee5 	bl	d565a <_ZN13TinyGPSCustom3setEPKc>
      altitude.set(term);
      break;
  }

  // Set custom values as needed
  for (TinyGPSCustom *p = customCandidates; p != NULL && strcmp(p->sentenceName, customCandidates->sentenceName) == 0 && p->termNumber <= curTermNumber; p = p->next)
   d5890:	6b36      	ldr	r6, [r6, #48]	; 0x30
   d5892:	e7eb      	b.n	d586c <_ZN11TinyGPSPlus16endOfTermHandlerEv+0x20c>
    else
      curSentenceType = GPS_SENTENCE_OTHER;

    // Any custom candidates of this sentence type?
    for (customCandidates = customElts; customCandidates != NULL && strcmp(customCandidates->sentenceName, term) < 0; customCandidates = customCandidates->next);
    if (customCandidates != NULL && strcmp(customCandidates->sentenceName, term) > 0)
   d5894:	d002      	beq.n	d589c <_ZN11TinyGPSPlus16endOfTermHandlerEv+0x23c>
       customCandidates = NULL;
   d5896:	2300      	movs	r3, #0
   d5898:	f8c4 30c4 	str.w	r3, [r4, #196]	; 0xc4
  for (TinyGPSCustom *p = customCandidates; p != NULL && strcmp(p->sentenceName, customCandidates->sentenceName) == 0 && p->termNumber <= curTermNumber; p = p->next)
    if (p->termNumber == curTermNumber)
         p->set(term);

  return false;
}
   d589c:	4628      	mov	r0, r5
   d589e:	bdf8      	pop	{r3, r4, r5, r6, r7, pc}
   d58a0:	000d86f9 	.word	0x000d86f9
   d58a4:	000d86ff 	.word	0x000d86ff

000d58a8 <_ZN11TinyGPSPlus6encodeEc>:
//
// public methods
//

bool TinyGPSPlus::encode(char c)
{
   d58a8:	b538      	push	{r3, r4, r5, lr}
  ++encodedCharCount;
   d58aa:	f8d0 30c8 	ldr.w	r3, [r0, #200]	; 0xc8

  switch(c)
   d58ae:	2924      	cmp	r1, #36	; 0x24
// public methods
//

bool TinyGPSPlus::encode(char c)
{
  ++encodedCharCount;
   d58b0:	f103 0301 	add.w	r3, r3, #1
//
// public methods
//

bool TinyGPSPlus::encode(char c)
{
   d58b4:	4604      	mov	r4, r0
   d58b6:	460d      	mov	r5, r1
  ++encodedCharCount;
   d58b8:	f8c0 30c8 	str.w	r3, [r0, #200]	; 0xc8

  switch(c)
   d58bc:	d02a      	beq.n	d5914 <_ZN11TinyGPSPlus6encodeEc+0x6c>
   d58be:	f890 30bb 	ldrb.w	r3, [r0, #187]	; 0xbb
   d58c2:	d804      	bhi.n	d58ce <_ZN11TinyGPSPlus6encodeEc+0x26>
   d58c4:	290a      	cmp	r1, #10
   d58c6:	d00c      	beq.n	d58e2 <_ZN11TinyGPSPlus6encodeEc+0x3a>
   d58c8:	290d      	cmp	r1, #13
   d58ca:	d132      	bne.n	d5932 <_ZN11TinyGPSPlus6encodeEc+0x8a>
   d58cc:	e009      	b.n	d58e2 <_ZN11TinyGPSPlus6encodeEc+0x3a>
   d58ce:	292a      	cmp	r1, #42	; 0x2a
   d58d0:	d007      	beq.n	d58e2 <_ZN11TinyGPSPlus6encodeEc+0x3a>
   d58d2:	292c      	cmp	r1, #44	; 0x2c
   d58d4:	d12d      	bne.n	d5932 <_ZN11TinyGPSPlus6encodeEc+0x8a>
  {
  case ',': // term terminators
    parity ^= (uint8_t)c;
   d58d6:	f890 20a8 	ldrb.w	r2, [r0, #168]	; 0xa8
   d58da:	f082 022c 	eor.w	r2, r2, #44	; 0x2c
   d58de:	f880 20a8 	strb.w	r2, [r0, #168]	; 0xa8
  case '\r':
  case '\n':
  case '*':
    {
      bool isValidSentence = false;
      if (curTermOffset < sizeof(term))
   d58e2:	2b0e      	cmp	r3, #14
   d58e4:	f04f 0000 	mov.w	r0, #0
   d58e8:	d805      	bhi.n	d58f6 <_ZN11TinyGPSPlus6encodeEc+0x4e>
      {
        term[curTermOffset] = 0;
   d58ea:	4423      	add	r3, r4
   d58ec:	f883 00aa 	strb.w	r0, [r3, #170]	; 0xaa
        isValidSentence = endOfTermHandler();
   d58f0:	4620      	mov	r0, r4
   d58f2:	f7ff feb5 	bl	d5660 <_ZN11TinyGPSPlus16endOfTermHandlerEv>
      }
      ++curTermNumber;
   d58f6:	f894 30ba 	ldrb.w	r3, [r4, #186]	; 0xba
   d58fa:	3301      	adds	r3, #1
   d58fc:	f884 30ba 	strb.w	r3, [r4, #186]	; 0xba
      curTermOffset = 0;
   d5900:	2300      	movs	r3, #0
   d5902:	f884 30bb 	strb.w	r3, [r4, #187]	; 0xbb
      isChecksumTerm = c == '*';
   d5906:	f1a5 032a 	sub.w	r3, r5, #42	; 0x2a
   d590a:	425d      	negs	r5, r3
   d590c:	415d      	adcs	r5, r3
   d590e:	f884 50a9 	strb.w	r5, [r4, #169]	; 0xa9
      return isValidSentence;
   d5912:	bd38      	pop	{r3, r4, r5, pc}
    }
    break;

  case '$': // sentence begin
    curTermNumber = curTermOffset = 0;
   d5914:	2000      	movs	r0, #0
    parity = 0;
    curSentenceType = GPS_SENTENCE_OTHER;
   d5916:	2302      	movs	r3, #2
      return isValidSentence;
    }
    break;

  case '$': // sentence begin
    curTermNumber = curTermOffset = 0;
   d5918:	f884 00bb 	strb.w	r0, [r4, #187]	; 0xbb
   d591c:	f884 00ba 	strb.w	r0, [r4, #186]	; 0xba
    parity = 0;
   d5920:	f884 00a8 	strb.w	r0, [r4, #168]	; 0xa8
    curSentenceType = GPS_SENTENCE_OTHER;
   d5924:	f884 30b9 	strb.w	r3, [r4, #185]	; 0xb9
    isChecksumTerm = false;
   d5928:	f884 00a9 	strb.w	r0, [r4, #169]	; 0xa9
    sentenceHasFix = false;
   d592c:	f884 00bc 	strb.w	r0, [r4, #188]	; 0xbc
    return false;
   d5930:	bd38      	pop	{r3, r4, r5, pc}

  default: // ordinary characters
    if (curTermOffset < sizeof(term) - 1)
   d5932:	2b0d      	cmp	r3, #13
      term[curTermOffset++] = c;
   d5934:	bf9f      	itttt	ls
   d5936:	1c5a      	addls	r2, r3, #1
   d5938:	191b      	addls	r3, r3, r4
   d593a:	f884 20bb 	strbls.w	r2, [r4, #187]	; 0xbb
   d593e:	f883 50aa 	strbls.w	r5, [r3, #170]	; 0xaa
    if (!isChecksumTerm)
   d5942:	f894 00a9 	ldrb.w	r0, [r4, #169]	; 0xa9
   d5946:	b928      	cbnz	r0, d5954 <_ZN11TinyGPSPlus6encodeEc+0xac>
      parity ^= c;
   d5948:	f894 10a8 	ldrb.w	r1, [r4, #168]	; 0xa8
   d594c:	404d      	eors	r5, r1
   d594e:	f884 50a8 	strb.w	r5, [r4, #168]	; 0xa8
   d5952:	bd38      	pop	{r3, r4, r5, pc}
    return false;
   d5954:	2000      	movs	r0, #0
  }

  return false;
}
   d5956:	bd38      	pop	{r3, r4, r5, pc}

000d5958 <_GLOBAL__sub_I__ZN11TinyGPSPlusC2Ev>:
   d5958:	f000 b810 	b.w	d597c <HAL_Pin_Map>

000d595c <netdb_freeaddrinfo>:

DYNALIB_BEGIN(hal_netdb)

DYNALIB_FN(0, hal_netdb, netdb_gethostbyname, struct hostent*(const char*))
DYNALIB_FN(1, hal_netdb, netdb_gethostbyname_r, int(const char*, struct hostent*, char*, size_t, struct hostent**, int*))
DYNALIB_FN(2, hal_netdb, netdb_freeaddrinfo, void(struct addrinfo*))
   d595c:	b508      	push	{r3, lr}
   d595e:	4b02      	ldr	r3, [pc, #8]	; (d5968 <netdb_freeaddrinfo+0xc>)
   d5960:	681b      	ldr	r3, [r3, #0]
   d5962:	689b      	ldr	r3, [r3, #8]
   d5964:	9301      	str	r3, [sp, #4]
   d5966:	bd08      	pop	{r3, pc}
   d5968:	00030268 	.word	0x00030268

000d596c <netdb_getaddrinfo>:
DYNALIB_FN(3, hal_netdb, netdb_getaddrinfo, int(const char*, const char*, const struct addrinfo*, struct addrinfo**))
   d596c:	b508      	push	{r3, lr}
   d596e:	4b02      	ldr	r3, [pc, #8]	; (d5978 <netdb_getaddrinfo+0xc>)
   d5970:	681b      	ldr	r3, [r3, #0]
   d5972:	68db      	ldr	r3, [r3, #12]
   d5974:	9301      	str	r3, [sp, #4]
   d5976:	bd08      	pop	{r3, pc}
   d5978:	00030268 	.word	0x00030268

000d597c <HAL_Pin_Map>:
// New HAL functions must be added to the end of this list.
// GNINRAW

DYNALIB_BEGIN(hal_gpio)

DYNALIB_FN(0, hal_gpio, HAL_Pin_Map, Hal_Pin_Info*(void))
   d597c:	b508      	push	{r3, lr}
   d597e:	4b02      	ldr	r3, [pc, #8]	; (d5988 <HAL_Pin_Map+0xc>)
   d5980:	681b      	ldr	r3, [r3, #0]
   d5982:	681b      	ldr	r3, [r3, #0]
   d5984:	9301      	str	r3, [sp, #4]
   d5986:	bd08      	pop	{r3, pc}
   d5988:	0003022c 	.word	0x0003022c

000d598c <HAL_Pin_Mode>:
DYNALIB_FN(1, hal_gpio, HAL_Validate_Pin_Function, PinFunction(pin_t, PinFunction))
DYNALIB_FN(2, hal_gpio, HAL_Pin_Mode, void(pin_t, PinMode))
   d598c:	b508      	push	{r3, lr}
   d598e:	4b02      	ldr	r3, [pc, #8]	; (d5998 <HAL_Pin_Mode+0xc>)
   d5990:	681b      	ldr	r3, [r3, #0]
   d5992:	689b      	ldr	r3, [r3, #8]
   d5994:	9301      	str	r3, [sp, #4]
   d5996:	bd08      	pop	{r3, pc}
   d5998:	0003022c 	.word	0x0003022c

000d599c <HAL_Get_Pin_Mode>:
DYNALIB_FN(3, hal_gpio, HAL_Get_Pin_Mode, PinMode(pin_t))
   d599c:	b508      	push	{r3, lr}
   d599e:	4b02      	ldr	r3, [pc, #8]	; (d59a8 <HAL_Get_Pin_Mode+0xc>)
   d59a0:	681b      	ldr	r3, [r3, #0]
   d59a2:	68db      	ldr	r3, [r3, #12]
   d59a4:	9301      	str	r3, [sp, #4]
   d59a6:	bd08      	pop	{r3, pc}
   d59a8:	0003022c 	.word	0x0003022c

000d59ac <HAL_GPIO_Write>:
DYNALIB_FN(4, hal_gpio, HAL_GPIO_Write, void(pin_t, uint8_t))
   d59ac:	b508      	push	{r3, lr}
   d59ae:	4b02      	ldr	r3, [pc, #8]	; (d59b8 <HAL_GPIO_Write+0xc>)
   d59b0:	681b      	ldr	r3, [r3, #0]
   d59b2:	691b      	ldr	r3, [r3, #16]
   d59b4:	9301      	str	r3, [sp, #4]
   d59b6:	bd08      	pop	{r3, pc}
   d59b8:	0003022c 	.word	0x0003022c

000d59bc <HAL_GPIO_Read>:
DYNALIB_FN(5, hal_gpio, HAL_GPIO_Read, int32_t(pin_t))
   d59bc:	b508      	push	{r3, lr}
   d59be:	4b02      	ldr	r3, [pc, #8]	; (d59c8 <HAL_GPIO_Read+0xc>)
   d59c0:	681b      	ldr	r3, [r3, #0]
   d59c2:	695b      	ldr	r3, [r3, #20]
   d59c4:	9301      	str	r3, [sp, #4]
   d59c6:	bd08      	pop	{r3, pc}
   d59c8:	0003022c 	.word	0x0003022c

000d59cc <HAL_SPI_Begin>:
// New HAL functions must be added to the end of this list.
// GNINRAW

DYNALIB_BEGIN(hal_spi)

DYNALIB_FN(0, hal_spi, HAL_SPI_Begin, void(HAL_SPI_Interface, uint16_t))
   d59cc:	b508      	push	{r3, lr}
   d59ce:	4b02      	ldr	r3, [pc, #8]	; (d59d8 <HAL_SPI_Begin+0xc>)
   d59d0:	681b      	ldr	r3, [r3, #0]
   d59d2:	681b      	ldr	r3, [r3, #0]
   d59d4:	9301      	str	r3, [sp, #4]
   d59d6:	bd08      	pop	{r3, pc}
   d59d8:	00030230 	.word	0x00030230

000d59dc <HAL_SPI_Set_Bit_Order>:
DYNALIB_FN(1, hal_spi, HAL_SPI_End, void(HAL_SPI_Interface))
DYNALIB_FN(2, hal_spi, HAL_SPI_Set_Bit_Order, void(HAL_SPI_Interface, uint8_t))
   d59dc:	b508      	push	{r3, lr}
   d59de:	4b02      	ldr	r3, [pc, #8]	; (d59e8 <HAL_SPI_Set_Bit_Order+0xc>)
   d59e0:	681b      	ldr	r3, [r3, #0]
   d59e2:	689b      	ldr	r3, [r3, #8]
   d59e4:	9301      	str	r3, [sp, #4]
   d59e6:	bd08      	pop	{r3, pc}
   d59e8:	00030230 	.word	0x00030230

000d59ec <HAL_SPI_Set_Data_Mode>:
DYNALIB_FN(3, hal_spi, HAL_SPI_Set_Data_Mode, void(HAL_SPI_Interface, uint8_t))
   d59ec:	b508      	push	{r3, lr}
   d59ee:	4b02      	ldr	r3, [pc, #8]	; (d59f8 <HAL_SPI_Set_Data_Mode+0xc>)
   d59f0:	681b      	ldr	r3, [r3, #0]
   d59f2:	68db      	ldr	r3, [r3, #12]
   d59f4:	9301      	str	r3, [sp, #4]
   d59f6:	bd08      	pop	{r3, pc}
   d59f8:	00030230 	.word	0x00030230

000d59fc <HAL_SPI_Set_Clock_Divider>:
DYNALIB_FN(4, hal_spi, HAL_SPI_Set_Clock_Divider, void(HAL_SPI_Interface, uint8_t))
   d59fc:	b508      	push	{r3, lr}
   d59fe:	4b02      	ldr	r3, [pc, #8]	; (d5a08 <HAL_SPI_Set_Clock_Divider+0xc>)
   d5a00:	681b      	ldr	r3, [r3, #0]
   d5a02:	691b      	ldr	r3, [r3, #16]
   d5a04:	9301      	str	r3, [sp, #4]
   d5a06:	bd08      	pop	{r3, pc}
   d5a08:	00030230 	.word	0x00030230

000d5a0c <HAL_SPI_Send_Receive_Data>:
DYNALIB_FN(5, hal_spi, HAL_SPI_Send_Receive_Data, uint16_t(HAL_SPI_Interface, uint16_t))
   d5a0c:	b508      	push	{r3, lr}
   d5a0e:	4b02      	ldr	r3, [pc, #8]	; (d5a18 <HAL_SPI_Send_Receive_Data+0xc>)
   d5a10:	681b      	ldr	r3, [r3, #0]
   d5a12:	695b      	ldr	r3, [r3, #20]
   d5a14:	9301      	str	r3, [sp, #4]
   d5a16:	bd08      	pop	{r3, pc}
   d5a18:	00030230 	.word	0x00030230

000d5a1c <HAL_SPI_Init>:
DYNALIB_FN(6, hal_spi, HAL_SPI_Is_Enabled_Old, bool(void))
DYNALIB_FN(7, hal_spi, HAL_SPI_Init, void(HAL_SPI_Interface))
   d5a1c:	b508      	push	{r3, lr}
   d5a1e:	4b02      	ldr	r3, [pc, #8]	; (d5a28 <HAL_SPI_Init+0xc>)
   d5a20:	681b      	ldr	r3, [r3, #0]
   d5a22:	69db      	ldr	r3, [r3, #28]
   d5a24:	9301      	str	r3, [sp, #4]
   d5a26:	bd08      	pop	{r3, pc}
   d5a28:	00030230 	.word	0x00030230

000d5a2c <HAL_SPI_Is_Enabled>:
DYNALIB_FN(8, hal_spi, HAL_SPI_Is_Enabled, bool(HAL_SPI_Interface))
   d5a2c:	b508      	push	{r3, lr}
   d5a2e:	4b02      	ldr	r3, [pc, #8]	; (d5a38 <HAL_SPI_Is_Enabled+0xc>)
   d5a30:	681b      	ldr	r3, [r3, #0]
   d5a32:	6a1b      	ldr	r3, [r3, #32]
   d5a34:	9301      	str	r3, [sp, #4]
   d5a36:	bd08      	pop	{r3, pc}
   d5a38:	00030230 	.word	0x00030230

000d5a3c <HAL_SPI_Info>:
DYNALIB_FN(9, hal_spi, HAL_SPI_Info, void(HAL_SPI_Interface, hal_spi_info_t*, void*))
   d5a3c:	b508      	push	{r3, lr}
   d5a3e:	4b02      	ldr	r3, [pc, #8]	; (d5a48 <HAL_SPI_Info+0xc>)
   d5a40:	681b      	ldr	r3, [r3, #0]
   d5a42:	6a5b      	ldr	r3, [r3, #36]	; 0x24
   d5a44:	9301      	str	r3, [sp, #4]
   d5a46:	bd08      	pop	{r3, pc}
   d5a48:	00030230 	.word	0x00030230

000d5a4c <HAL_SPI_Acquire>:
DYNALIB_FN(12, hal_spi, HAL_SPI_Set_Callback_On_Select, void(HAL_SPI_Interface, HAL_SPI_Select_UserCallback, void*))
DYNALIB_FN(13, hal_spi, HAL_SPI_DMA_Transfer_Cancel, void(HAL_SPI_Interface))
DYNALIB_FN(14, hal_spi, HAL_SPI_DMA_Transfer_Status, int32_t(HAL_SPI_Interface, HAL_SPI_TransferStatus*))
DYNALIB_FN(15, hal_spi, HAL_SPI_Set_Settings, int32_t(HAL_SPI_Interface, uint8_t, uint8_t, uint8_t, uint8_t, void*))
#if HAL_PLATFORM_SPI_HAL_THREAD_SAFETY
DYNALIB_FN(16, hal_spi, HAL_SPI_Acquire, int32_t(HAL_SPI_Interface, const HAL_SPI_AcquireConfig*))
   d5a4c:	b508      	push	{r3, lr}
   d5a4e:	4b02      	ldr	r3, [pc, #8]	; (d5a58 <HAL_SPI_Acquire+0xc>)
   d5a50:	681b      	ldr	r3, [r3, #0]
   d5a52:	6c1b      	ldr	r3, [r3, #64]	; 0x40
   d5a54:	9301      	str	r3, [sp, #4]
   d5a56:	bd08      	pop	{r3, pc}
   d5a58:	00030230 	.word	0x00030230

000d5a5c <HAL_SPI_Release>:
DYNALIB_FN(17, hal_spi, HAL_SPI_Release, int32_t(HAL_SPI_Interface, void*))
   d5a5c:	b508      	push	{r3, lr}
   d5a5e:	4b02      	ldr	r3, [pc, #8]	; (d5a68 <HAL_SPI_Release+0xc>)
   d5a60:	681b      	ldr	r3, [r3, #0]
   d5a62:	6c5b      	ldr	r3, [r3, #68]	; 0x44
   d5a64:	9301      	str	r3, [sp, #4]
   d5a66:	bd08      	pop	{r3, pc}
   d5a68:	00030230 	.word	0x00030230

000d5a6c <HAL_RNG_GetRandomNumber>:

DYNALIB_BEGIN(hal)

#if PLATFORM_ID > 3
DYNALIB_FN(0, hal, HAL_RNG_Configuration, void(void))
DYNALIB_FN(1, hal, HAL_RNG_GetRandomNumber, uint32_t(void))
   d5a6c:	b508      	push	{r3, lr}
   d5a6e:	4b02      	ldr	r3, [pc, #8]	; (d5a78 <HAL_RNG_GetRandomNumber+0xc>)
   d5a70:	681b      	ldr	r3, [r3, #0]
   d5a72:	685b      	ldr	r3, [r3, #4]
   d5a74:	9301      	str	r3, [sp, #4]
   d5a76:	bd08      	pop	{r3, pc}
   d5a78:	00030218 	.word	0x00030218

000d5a7c <HAL_Delay_Microseconds>:
#else
#define BASE_IDX 0
#endif

DYNALIB_FN(BASE_IDX + 0, hal, HAL_Delay_Milliseconds, void(uint32_t))
DYNALIB_FN(BASE_IDX + 1, hal, HAL_Delay_Microseconds, void(uint32_t))
   d5a7c:	b508      	push	{r3, lr}
   d5a7e:	4b02      	ldr	r3, [pc, #8]	; (d5a88 <HAL_Delay_Microseconds+0xc>)
   d5a80:	681b      	ldr	r3, [r3, #0]
   d5a82:	68db      	ldr	r3, [r3, #12]
   d5a84:	9301      	str	r3, [sp, #4]
   d5a86:	bd08      	pop	{r3, pc}
   d5a88:	00030218 	.word	0x00030218

000d5a8c <HAL_Timer_Get_Milli_Seconds>:
DYNALIB_FN(BASE_IDX + 2, hal, HAL_Timer_Get_Micro_Seconds, system_tick_t(void))
DYNALIB_FN(BASE_IDX + 3, hal, HAL_Timer_Get_Milli_Seconds, system_tick_t(void))
   d5a8c:	b508      	push	{r3, lr}
   d5a8e:	4b02      	ldr	r3, [pc, #8]	; (d5a98 <HAL_Timer_Get_Milli_Seconds+0xc>)
   d5a90:	681b      	ldr	r3, [r3, #0]
   d5a92:	695b      	ldr	r3, [r3, #20]
   d5a94:	9301      	str	r3, [sp, #4]
   d5a96:	bd08      	pop	{r3, pc}
   d5a98:	00030218 	.word	0x00030218

000d5a9c <os_thread_is_current>:
DYNALIB_BEGIN(hal_concurrent)

#if PLATFORM_THREADING
DYNALIB_FN(0, hal_concurrent, __gthread_equal, bool(__gthread_t, __gthread_t))
DYNALIB_FN(1, hal_concurrent, os_thread_create, os_result_t(os_thread_t*, const char*, os_thread_prio_t, os_thread_fn_t, void*, size_t))
DYNALIB_FN(2, hal_concurrent, os_thread_is_current, bool(os_thread_t))
   d5a9c:	b508      	push	{r3, lr}
   d5a9e:	4b02      	ldr	r3, [pc, #8]	; (d5aa8 <os_thread_is_current+0xc>)
   d5aa0:	681b      	ldr	r3, [r3, #0]
   d5aa2:	689b      	ldr	r3, [r3, #8]
   d5aa4:	9301      	str	r3, [sp, #4]
   d5aa6:	bd08      	pop	{r3, pc}
   d5aa8:	00030248 	.word	0x00030248

000d5aac <os_thread_join>:
DYNALIB_FN(3, hal_concurrent, os_thread_yield, os_result_t(void))
DYNALIB_FN(4, hal_concurrent, os_thread_join, os_result_t(os_thread_t))
   d5aac:	b508      	push	{r3, lr}
   d5aae:	4b02      	ldr	r3, [pc, #8]	; (d5ab8 <os_thread_join+0xc>)
   d5ab0:	681b      	ldr	r3, [r3, #0]
   d5ab2:	691b      	ldr	r3, [r3, #16]
   d5ab4:	9301      	str	r3, [sp, #4]
   d5ab6:	bd08      	pop	{r3, pc}
   d5ab8:	00030248 	.word	0x00030248

000d5abc <os_thread_cleanup>:
DYNALIB_FN(5, hal_concurrent, os_thread_cleanup, os_result_t(os_thread_t))
   d5abc:	b508      	push	{r3, lr}
   d5abe:	4b02      	ldr	r3, [pc, #8]	; (d5ac8 <os_thread_cleanup+0xc>)
   d5ac0:	681b      	ldr	r3, [r3, #0]
   d5ac2:	695b      	ldr	r3, [r3, #20]
   d5ac4:	9301      	str	r3, [sp, #4]
   d5ac6:	bd08      	pop	{r3, pc}
   d5ac8:	00030248 	.word	0x00030248

000d5acc <os_mutex_recursive_create>:
DYNALIB_FN(13, hal_concurrent, os_mutex_destroy, int(os_mutex_t))
DYNALIB_FN(14, hal_concurrent, os_mutex_lock, int(os_mutex_t))
DYNALIB_FN(15, hal_concurrent, os_mutex_trylock, int(os_mutex_t))
DYNALIB_FN(16, hal_concurrent, os_mutex_unlock, int(os_mutex_t))

DYNALIB_FN(17, hal_concurrent, os_mutex_recursive_create, int(os_mutex_recursive_t*))
   d5acc:	b508      	push	{r3, lr}
   d5ace:	4b02      	ldr	r3, [pc, #8]	; (d5ad8 <os_mutex_recursive_create+0xc>)
   d5ad0:	681b      	ldr	r3, [r3, #0]
   d5ad2:	6c5b      	ldr	r3, [r3, #68]	; 0x44
   d5ad4:	9301      	str	r3, [sp, #4]
   d5ad6:	bd08      	pop	{r3, pc}
   d5ad8:	00030248 	.word	0x00030248

000d5adc <os_mutex_recursive_destroy>:
DYNALIB_FN(18, hal_concurrent, os_mutex_recursive_destroy, int(os_mutex_recursive_t))
   d5adc:	b508      	push	{r3, lr}
   d5ade:	4b02      	ldr	r3, [pc, #8]	; (d5ae8 <os_mutex_recursive_destroy+0xc>)
   d5ae0:	681b      	ldr	r3, [r3, #0]
   d5ae2:	6c9b      	ldr	r3, [r3, #72]	; 0x48
   d5ae4:	9301      	str	r3, [sp, #4]
   d5ae6:	bd08      	pop	{r3, pc}
   d5ae8:	00030248 	.word	0x00030248

000d5aec <inet_inet_ntop>:
DYNALIB_FN(0, hal_inet, inet_inet_addr, in_addr_t(const char*))
DYNALIB_FN(1, hal_inet, inet_inet_aton, int(const char*, struct in_addr*))
DYNALIB_FN(2, hal_inet, inet_inet_network, in_addr_t(const char*))
DYNALIB_FN(3, hal_inet, inet_inet_ntoa, char*(struct in_addr))
DYNALIB_FN(4, hal_inet, inet_inet_ntoa_r, char*(struct in_addr, char*, socklen_t))
DYNALIB_FN(5, hal_inet, inet_inet_ntop, const char*(int, const void*, char*, socklen_t))
   d5aec:	b508      	push	{r3, lr}
   d5aee:	4b02      	ldr	r3, [pc, #8]	; (d5af8 <inet_inet_ntop+0xc>)
   d5af0:	681b      	ldr	r3, [r3, #0]
   d5af2:	695b      	ldr	r3, [r3, #20]
   d5af4:	9301      	str	r3, [sp, #4]
   d5af6:	bd08      	pop	{r3, pc}
   d5af8:	00030264 	.word	0x00030264

000d5afc <HAL_USART_Init>:
#define BASE_IDX 6 // Base index for all subsequent functions
#else
#define BASE_IDX 0
#endif

DYNALIB_FN(BASE_IDX + 0, hal_usart, HAL_USART_Init, void(HAL_USART_Serial, Ring_Buffer*, Ring_Buffer*))
   d5afc:	b508      	push	{r3, lr}
   d5afe:	4b02      	ldr	r3, [pc, #8]	; (d5b08 <HAL_USART_Init+0xc>)
   d5b00:	681b      	ldr	r3, [r3, #0]
   d5b02:	681b      	ldr	r3, [r3, #0]
   d5b04:	9301      	str	r3, [sp, #4]
   d5b06:	bd08      	pop	{r3, pc}
   d5b08:	0003023c 	.word	0x0003023c

000d5b0c <HAL_USART_Write_Data>:
DYNALIB_FN(BASE_IDX + 1, hal_usart, HAL_USART_Begin, void(HAL_USART_Serial, uint32_t))
DYNALIB_FN(BASE_IDX + 2, hal_usart, HAL_USART_End, void(HAL_USART_Serial))
DYNALIB_FN(BASE_IDX + 3, hal_usart, HAL_USART_Write_Data, uint32_t(HAL_USART_Serial, uint8_t))
   d5b0c:	b508      	push	{r3, lr}
   d5b0e:	4b02      	ldr	r3, [pc, #8]	; (d5b18 <HAL_USART_Write_Data+0xc>)
   d5b10:	681b      	ldr	r3, [r3, #0]
   d5b12:	68db      	ldr	r3, [r3, #12]
   d5b14:	9301      	str	r3, [sp, #4]
   d5b16:	bd08      	pop	{r3, pc}
   d5b18:	0003023c 	.word	0x0003023c

000d5b1c <HAL_USART_Available_Data>:
DYNALIB_FN(BASE_IDX + 4, hal_usart, HAL_USART_Available_Data, int32_t(HAL_USART_Serial))
   d5b1c:	b508      	push	{r3, lr}
   d5b1e:	4b02      	ldr	r3, [pc, #8]	; (d5b28 <HAL_USART_Available_Data+0xc>)
   d5b20:	681b      	ldr	r3, [r3, #0]
   d5b22:	691b      	ldr	r3, [r3, #16]
   d5b24:	9301      	str	r3, [sp, #4]
   d5b26:	bd08      	pop	{r3, pc}
   d5b28:	0003023c 	.word	0x0003023c

000d5b2c <HAL_USART_Read_Data>:
DYNALIB_FN(BASE_IDX + 5, hal_usart, HAL_USART_Read_Data, int32_t(HAL_USART_Serial))
   d5b2c:	b508      	push	{r3, lr}
   d5b2e:	4b02      	ldr	r3, [pc, #8]	; (d5b38 <HAL_USART_Read_Data+0xc>)
   d5b30:	681b      	ldr	r3, [r3, #0]
   d5b32:	695b      	ldr	r3, [r3, #20]
   d5b34:	9301      	str	r3, [sp, #4]
   d5b36:	bd08      	pop	{r3, pc}
   d5b38:	0003023c 	.word	0x0003023c

000d5b3c <HAL_USART_Peek_Data>:
DYNALIB_FN(BASE_IDX + 6, hal_usart, HAL_USART_Peek_Data, int32_t(HAL_USART_Serial))
   d5b3c:	b508      	push	{r3, lr}
   d5b3e:	4b02      	ldr	r3, [pc, #8]	; (d5b48 <HAL_USART_Peek_Data+0xc>)
   d5b40:	681b      	ldr	r3, [r3, #0]
   d5b42:	699b      	ldr	r3, [r3, #24]
   d5b44:	9301      	str	r3, [sp, #4]
   d5b46:	bd08      	pop	{r3, pc}
   d5b48:	0003023c 	.word	0x0003023c

000d5b4c <HAL_USART_Flush_Data>:
DYNALIB_FN(BASE_IDX + 7, hal_usart, HAL_USART_Flush_Data, void(HAL_USART_Serial))
   d5b4c:	b508      	push	{r3, lr}
   d5b4e:	4b02      	ldr	r3, [pc, #8]	; (d5b58 <HAL_USART_Flush_Data+0xc>)
   d5b50:	681b      	ldr	r3, [r3, #0]
   d5b52:	69db      	ldr	r3, [r3, #28]
   d5b54:	9301      	str	r3, [sp, #4]
   d5b56:	bd08      	pop	{r3, pc}
   d5b58:	0003023c 	.word	0x0003023c

000d5b5c <HAL_USART_Is_Enabled>:
DYNALIB_FN(BASE_IDX + 8, hal_usart, HAL_USART_Is_Enabled, bool(HAL_USART_Serial))
   d5b5c:	b508      	push	{r3, lr}
   d5b5e:	4b02      	ldr	r3, [pc, #8]	; (d5b68 <HAL_USART_Is_Enabled+0xc>)
   d5b60:	681b      	ldr	r3, [r3, #0]
   d5b62:	6a1b      	ldr	r3, [r3, #32]
   d5b64:	9301      	str	r3, [sp, #4]
   d5b66:	bd08      	pop	{r3, pc}
   d5b68:	0003023c 	.word	0x0003023c

000d5b6c <HAL_USART_Available_Data_For_Write>:
DYNALIB_FN(BASE_IDX + 9, hal_usart, HAL_USART_Half_Duplex, void(HAL_USART_Serial, bool))
DYNALIB_FN(BASE_IDX + 10, hal_usart, HAL_USART_Available_Data_For_Write, int32_t(HAL_USART_Serial))
   d5b6c:	b508      	push	{r3, lr}
   d5b6e:	4b02      	ldr	r3, [pc, #8]	; (d5b78 <HAL_USART_Available_Data_For_Write+0xc>)
   d5b70:	681b      	ldr	r3, [r3, #0]
   d5b72:	6a9b      	ldr	r3, [r3, #40]	; 0x28
   d5b74:	9301      	str	r3, [sp, #4]
   d5b76:	bd08      	pop	{r3, pc}
   d5b78:	0003023c 	.word	0x0003023c

000d5b7c <HAL_USART_BeginConfig>:
#define BASE_IDX2 (BASE_IDX+13)
#else
#define BASE_IDX2 (BASE_IDX+11)
#endif

DYNALIB_FN(BASE_IDX2 + 0, hal_usart, HAL_USART_BeginConfig, void(HAL_USART_Serial serial, uint32_t baud, uint32_t config, void *ptr))
   d5b7c:	b508      	push	{r3, lr}
   d5b7e:	4b02      	ldr	r3, [pc, #8]	; (d5b88 <HAL_USART_BeginConfig+0xc>)
   d5b80:	681b      	ldr	r3, [r3, #0]
   d5b82:	6adb      	ldr	r3, [r3, #44]	; 0x2c
   d5b84:	9301      	str	r3, [sp, #4]
   d5b86:	bd08      	pop	{r3, pc}
   d5b88:	0003023c 	.word	0x0003023c

000d5b8c <HAL_I2C_Begin>:
#endif

DYNALIB_FN(BASE_IDX + 0, hal_i2c, HAL_I2C_Set_Speed, void(HAL_I2C_Interface, uint32_t, void*))
DYNALIB_FN(BASE_IDX + 1, hal_i2c, HAL_I2C_Enable_DMA_Mode, void(HAL_I2C_Interface, bool, void*))
DYNALIB_FN(BASE_IDX + 2, hal_i2c, HAL_I2C_Stretch_Clock, void(HAL_I2C_Interface, bool, void*))
DYNALIB_FN(BASE_IDX + 3, hal_i2c, HAL_I2C_Begin, void(HAL_I2C_Interface, I2C_Mode, uint8_t, void*))
   d5b8c:	b508      	push	{r3, lr}
   d5b8e:	4b02      	ldr	r3, [pc, #8]	; (d5b98 <HAL_I2C_Begin+0xc>)
   d5b90:	681b      	ldr	r3, [r3, #0]
   d5b92:	68db      	ldr	r3, [r3, #12]
   d5b94:	9301      	str	r3, [sp, #4]
   d5b96:	bd08      	pop	{r3, pc}
   d5b98:	00030228 	.word	0x00030228

000d5b9c <HAL_I2C_Begin_Transmission>:
DYNALIB_FN(BASE_IDX + 4, hal_i2c, HAL_I2C_End, void(HAL_I2C_Interface, void*))
DYNALIB_FN(BASE_IDX + 5, hal_i2c, HAL_I2C_Request_Data, uint32_t(HAL_I2C_Interface, uint8_t, uint8_t, uint8_t, void*))
DYNALIB_FN(BASE_IDX + 6, hal_i2c, HAL_I2C_Begin_Transmission, void(HAL_I2C_Interface, uint8_t, const HAL_I2C_Transmission_Config*))
   d5b9c:	b508      	push	{r3, lr}
   d5b9e:	4b02      	ldr	r3, [pc, #8]	; (d5ba8 <HAL_I2C_Begin_Transmission+0xc>)
   d5ba0:	681b      	ldr	r3, [r3, #0]
   d5ba2:	699b      	ldr	r3, [r3, #24]
   d5ba4:	9301      	str	r3, [sp, #4]
   d5ba6:	bd08      	pop	{r3, pc}
   d5ba8:	00030228 	.word	0x00030228

000d5bac <HAL_I2C_End_Transmission>:
DYNALIB_FN(BASE_IDX + 7, hal_i2c, HAL_I2C_End_Transmission, uint8_t(HAL_I2C_Interface, uint8_t, void*))
   d5bac:	b508      	push	{r3, lr}
   d5bae:	4b02      	ldr	r3, [pc, #8]	; (d5bb8 <HAL_I2C_End_Transmission+0xc>)
   d5bb0:	681b      	ldr	r3, [r3, #0]
   d5bb2:	69db      	ldr	r3, [r3, #28]
   d5bb4:	9301      	str	r3, [sp, #4]
   d5bb6:	bd08      	pop	{r3, pc}
   d5bb8:	00030228 	.word	0x00030228

000d5bbc <HAL_I2C_Write_Data>:
DYNALIB_FN(BASE_IDX + 8, hal_i2c, HAL_I2C_Write_Data, uint32_t(HAL_I2C_Interface, uint8_t, void*))
   d5bbc:	b508      	push	{r3, lr}
   d5bbe:	4b02      	ldr	r3, [pc, #8]	; (d5bc8 <HAL_I2C_Write_Data+0xc>)
   d5bc0:	681b      	ldr	r3, [r3, #0]
   d5bc2:	6a1b      	ldr	r3, [r3, #32]
   d5bc4:	9301      	str	r3, [sp, #4]
   d5bc6:	bd08      	pop	{r3, pc}
   d5bc8:	00030228 	.word	0x00030228

000d5bcc <HAL_I2C_Available_Data>:
DYNALIB_FN(BASE_IDX + 9, hal_i2c, HAL_I2C_Available_Data, int32_t(HAL_I2C_Interface, void*))
   d5bcc:	b508      	push	{r3, lr}
   d5bce:	4b02      	ldr	r3, [pc, #8]	; (d5bd8 <HAL_I2C_Available_Data+0xc>)
   d5bd0:	681b      	ldr	r3, [r3, #0]
   d5bd2:	6a5b      	ldr	r3, [r3, #36]	; 0x24
   d5bd4:	9301      	str	r3, [sp, #4]
   d5bd6:	bd08      	pop	{r3, pc}
   d5bd8:	00030228 	.word	0x00030228

000d5bdc <HAL_I2C_Read_Data>:
DYNALIB_FN(BASE_IDX + 10, hal_i2c, HAL_I2C_Read_Data, int32_t(HAL_I2C_Interface, void*))
   d5bdc:	b508      	push	{r3, lr}
   d5bde:	4b02      	ldr	r3, [pc, #8]	; (d5be8 <HAL_I2C_Read_Data+0xc>)
   d5be0:	681b      	ldr	r3, [r3, #0]
   d5be2:	6a9b      	ldr	r3, [r3, #40]	; 0x28
   d5be4:	9301      	str	r3, [sp, #4]
   d5be6:	bd08      	pop	{r3, pc}
   d5be8:	00030228 	.word	0x00030228

000d5bec <HAL_I2C_Peek_Data>:
DYNALIB_FN(BASE_IDX + 11, hal_i2c, HAL_I2C_Peek_Data, int32_t(HAL_I2C_Interface, void*))
   d5bec:	b508      	push	{r3, lr}
   d5bee:	4b02      	ldr	r3, [pc, #8]	; (d5bf8 <HAL_I2C_Peek_Data+0xc>)
   d5bf0:	681b      	ldr	r3, [r3, #0]
   d5bf2:	6adb      	ldr	r3, [r3, #44]	; 0x2c
   d5bf4:	9301      	str	r3, [sp, #4]
   d5bf6:	bd08      	pop	{r3, pc}
   d5bf8:	00030228 	.word	0x00030228

000d5bfc <HAL_I2C_Flush_Data>:
DYNALIB_FN(BASE_IDX + 12, hal_i2c, HAL_I2C_Flush_Data, void(HAL_I2C_Interface, void*))
   d5bfc:	b508      	push	{r3, lr}
   d5bfe:	4b02      	ldr	r3, [pc, #8]	; (d5c08 <HAL_I2C_Flush_Data+0xc>)
   d5c00:	681b      	ldr	r3, [r3, #0]
   d5c02:	6b1b      	ldr	r3, [r3, #48]	; 0x30
   d5c04:	9301      	str	r3, [sp, #4]
   d5c06:	bd08      	pop	{r3, pc}
   d5c08:	00030228 	.word	0x00030228

000d5c0c <HAL_I2C_Is_Enabled>:
DYNALIB_FN(BASE_IDX + 13, hal_i2c, HAL_I2C_Is_Enabled, bool(HAL_I2C_Interface, void*))
   d5c0c:	b508      	push	{r3, lr}
   d5c0e:	4b02      	ldr	r3, [pc, #8]	; (d5c18 <HAL_I2C_Is_Enabled+0xc>)
   d5c10:	681b      	ldr	r3, [r3, #0]
   d5c12:	6b5b      	ldr	r3, [r3, #52]	; 0x34
   d5c14:	9301      	str	r3, [sp, #4]
   d5c16:	bd08      	pop	{r3, pc}
   d5c18:	00030228 	.word	0x00030228

000d5c1c <HAL_I2C_Init>:
DYNALIB_FN(BASE_IDX + 14, hal_i2c, HAL_I2C_Set_Callback_On_Receive, void(HAL_I2C_Interface, void(*)(int), void*))
DYNALIB_FN(BASE_IDX + 15, hal_i2c, HAL_I2C_Set_Callback_On_Request, void(HAL_I2C_Interface, void(*)(void), void*))
DYNALIB_FN(BASE_IDX + 16, hal_i2c, HAL_I2C_Init, int(HAL_I2C_Interface, const HAL_I2C_Config*))
   d5c1c:	b508      	push	{r3, lr}
   d5c1e:	4b02      	ldr	r3, [pc, #8]	; (d5c28 <HAL_I2C_Init+0xc>)
   d5c20:	681b      	ldr	r3, [r3, #0]
   d5c22:	6c1b      	ldr	r3, [r3, #64]	; 0x40
   d5c24:	9301      	str	r3, [sp, #4]
   d5c26:	bd08      	pop	{r3, pc}
   d5c28:	00030228 	.word	0x00030228

000d5c2c <HAL_USB_USART_Init>:
#endif

DYNALIB_BEGIN(hal_usb)

#ifdef USB_CDC_ENABLE
DYNALIB_FN(0, hal_usb, HAL_USB_USART_Init, void(HAL_USB_USART_Serial, const HAL_USB_USART_Config*))
   d5c2c:	b508      	push	{r3, lr}
   d5c2e:	4b02      	ldr	r3, [pc, #8]	; (d5c38 <HAL_USB_USART_Init+0xc>)
   d5c30:	681b      	ldr	r3, [r3, #0]
   d5c32:	681b      	ldr	r3, [r3, #0]
   d5c34:	9301      	str	r3, [sp, #4]
   d5c36:	bd08      	pop	{r3, pc}
   d5c38:	0003024c 	.word	0x0003024c

000d5c3c <HAL_USB_USART_Begin>:
DYNALIB_FN(1, hal_usb, HAL_USB_USART_Begin, void(HAL_USB_USART_Serial, uint32_t, void *))
   d5c3c:	b508      	push	{r3, lr}
   d5c3e:	4b02      	ldr	r3, [pc, #8]	; (d5c48 <HAL_USB_USART_Begin+0xc>)
   d5c40:	681b      	ldr	r3, [r3, #0]
   d5c42:	685b      	ldr	r3, [r3, #4]
   d5c44:	9301      	str	r3, [sp, #4]
   d5c46:	bd08      	pop	{r3, pc}
   d5c48:	0003024c 	.word	0x0003024c

000d5c4c <HAL_USB_USART_Available_Data>:
DYNALIB_FN(2, hal_usb, HAL_USB_USART_End, void(HAL_USB_USART_Serial))
DYNALIB_FN(3, hal_usb, HAL_USB_USART_Baud_Rate, unsigned int(HAL_USB_USART_Serial))
DYNALIB_FN(4, hal_usb, HAL_USB_USART_Available_Data, int32_t(HAL_USB_USART_Serial))
   d5c4c:	b508      	push	{r3, lr}
   d5c4e:	4b02      	ldr	r3, [pc, #8]	; (d5c58 <HAL_USB_USART_Available_Data+0xc>)
   d5c50:	681b      	ldr	r3, [r3, #0]
   d5c52:	691b      	ldr	r3, [r3, #16]
   d5c54:	9301      	str	r3, [sp, #4]
   d5c56:	bd08      	pop	{r3, pc}
   d5c58:	0003024c 	.word	0x0003024c

000d5c5c <HAL_USB_USART_Available_Data_For_Write>:
DYNALIB_FN(5, hal_usb, HAL_USB_USART_Available_Data_For_Write, int32_t(HAL_USB_USART_Serial))
   d5c5c:	b508      	push	{r3, lr}
   d5c5e:	4b02      	ldr	r3, [pc, #8]	; (d5c68 <HAL_USB_USART_Available_Data_For_Write+0xc>)
   d5c60:	681b      	ldr	r3, [r3, #0]
   d5c62:	695b      	ldr	r3, [r3, #20]
   d5c64:	9301      	str	r3, [sp, #4]
   d5c66:	bd08      	pop	{r3, pc}
   d5c68:	0003024c 	.word	0x0003024c

000d5c6c <HAL_USB_USART_Receive_Data>:
DYNALIB_FN(6, hal_usb, HAL_USB_USART_Receive_Data, int32_t(HAL_USB_USART_Serial, uint8_t))
   d5c6c:	b508      	push	{r3, lr}
   d5c6e:	4b02      	ldr	r3, [pc, #8]	; (d5c78 <HAL_USB_USART_Receive_Data+0xc>)
   d5c70:	681b      	ldr	r3, [r3, #0]
   d5c72:	699b      	ldr	r3, [r3, #24]
   d5c74:	9301      	str	r3, [sp, #4]
   d5c76:	bd08      	pop	{r3, pc}
   d5c78:	0003024c 	.word	0x0003024c

000d5c7c <HAL_USB_USART_Send_Data>:
DYNALIB_FN(7, hal_usb, HAL_USB_USART_Send_Data, int32_t(HAL_USB_USART_Serial, uint8_t))
   d5c7c:	b508      	push	{r3, lr}
   d5c7e:	4b02      	ldr	r3, [pc, #8]	; (d5c88 <HAL_USB_USART_Send_Data+0xc>)
   d5c80:	681b      	ldr	r3, [r3, #0]
   d5c82:	69db      	ldr	r3, [r3, #28]
   d5c84:	9301      	str	r3, [sp, #4]
   d5c86:	bd08      	pop	{r3, pc}
   d5c88:	0003024c 	.word	0x0003024c

000d5c8c <HAL_USB_USART_Flush_Data>:
DYNALIB_FN(8, hal_usb, HAL_USB_USART_Flush_Data, void(HAL_USB_USART_Serial))
   d5c8c:	b508      	push	{r3, lr}
   d5c8e:	4b02      	ldr	r3, [pc, #8]	; (d5c98 <HAL_USB_USART_Flush_Data+0xc>)
   d5c90:	681b      	ldr	r3, [r3, #0]
   d5c92:	6a1b      	ldr	r3, [r3, #32]
   d5c94:	9301      	str	r3, [sp, #4]
   d5c96:	bd08      	pop	{r3, pc}
   d5c98:	0003024c 	.word	0x0003024c

000d5c9c <panic_>:
DYNALIB_FN(9, services, LED_Toggle, void(Led_TypeDef))
DYNALIB_FN(10, services, LED_Fade, void(Led_TypeDef))
DYNALIB_FN(11, services, Get_LED_Brightness, uint8_t(void))

DYNALIB_FN(12, services, set_logger_output, void(debug_output_fn, LoggerOutputLevel)) // Deprecated
DYNALIB_FN(13, services, panic_, void(ePanicCode, void*, void(*)(uint32_t)))
   d5c9c:	b508      	push	{r3, lr}
   d5c9e:	4b02      	ldr	r3, [pc, #8]	; (d5ca8 <panic_+0xc>)
   d5ca0:	681b      	ldr	r3, [r3, #0]
   d5ca2:	6b5b      	ldr	r3, [r3, #52]	; 0x34
   d5ca4:	9301      	str	r3, [sp, #4]
   d5ca6:	bd08      	pop	{r3, pc}
   d5ca8:	00030260 	.word	0x00030260

000d5cac <set_system_mode>:
#endif

DYNALIB_BEGIN(system)

DYNALIB_FN(0, system, system_mode, System_Mode_TypeDef(void))
DYNALIB_FN(1, system, set_system_mode, void(System_Mode_TypeDef))
   d5cac:	b508      	push	{r3, lr}
   d5cae:	4b02      	ldr	r3, [pc, #8]	; (d5cb8 <set_system_mode+0xc>)
   d5cb0:	681b      	ldr	r3, [r3, #0]
   d5cb2:	685b      	ldr	r3, [r3, #4]
   d5cb4:	9301      	str	r3, [sp, #4]
   d5cb6:	bd08      	pop	{r3, pc}
   d5cb8:	00030220 	.word	0x00030220

000d5cbc <system_delay_ms>:

DYNALIB_FN(2, system, set_ymodem_serial_flash_update_handler, void(ymodem_serial_flash_update_handler))
DYNALIB_FN(3, system, system_firmwareUpdate, bool(Stream*, void*))
DYNALIB_FN(4, system, system_fileTransfer, bool(system_file_transfer_t*, void*))

DYNALIB_FN(5, system, system_delay_ms, void(unsigned long, bool))
   d5cbc:	b508      	push	{r3, lr}
   d5cbe:	4b02      	ldr	r3, [pc, #8]	; (d5cc8 <system_delay_ms+0xc>)
   d5cc0:	681b      	ldr	r3, [r3, #0]
   d5cc2:	695b      	ldr	r3, [r3, #20]
   d5cc4:	9301      	str	r3, [sp, #4]
   d5cc6:	bd08      	pop	{r3, pc}
   d5cc8:	00030220 	.word	0x00030220

000d5ccc <system_thread_set_state>:
DYNALIB_FN(6, system, system_sleep, int(Spark_Sleep_TypeDef, long, uint32_t, void*))
DYNALIB_FN(7, system, system_sleep_pin, int(uint16_t, uint16_t, long, uint32_t, void*))
DYNALIB_FN(8, system, system_subscribe_event, int(system_event_t, system_event_handler_t*, void*))
DYNALIB_FN(9, system, system_unsubscribe_event, void(system_event_t, system_event_handler_t*, void*))
DYNALIB_FN(10, system, system_button_pushed_duration, uint16_t(uint8_t, void*))
DYNALIB_FN(11, system, system_thread_set_state, void(spark::feature::State, void*))
   d5ccc:	b508      	push	{r3, lr}
   d5cce:	4b02      	ldr	r3, [pc, #8]	; (d5cd8 <system_thread_set_state+0xc>)
   d5cd0:	681b      	ldr	r3, [r3, #0]
   d5cd2:	6adb      	ldr	r3, [r3, #44]	; 0x2c
   d5cd4:	9301      	str	r3, [sp, #4]
   d5cd6:	bd08      	pop	{r3, pc}
   d5cd8:	00030220 	.word	0x00030220

000d5cdc <application_thread_current>:
DYNALIB_FN(15, system, system_get_flag, int(system_flag_t, uint8_t*, void*))
DYNALIB_FN(16, system, Spark_Prepare_For_Firmware_Update, int(FileTransfer::Descriptor&, uint32_t, void*))
DYNALIB_FN(17, system, Spark_Save_Firmware_Chunk, int(FileTransfer::Descriptor&, const uint8_t*, void*))
DYNALIB_FN(18, system, Spark_Finish_Firmware_Update, int(FileTransfer::Descriptor&, uint32_t, void*))

DYNALIB_FN(19, system, application_thread_current, uint8_t(void*))
   d5cdc:	b508      	push	{r3, lr}
   d5cde:	4b02      	ldr	r3, [pc, #8]	; (d5ce8 <application_thread_current+0xc>)
   d5ce0:	681b      	ldr	r3, [r3, #0]
   d5ce2:	6cdb      	ldr	r3, [r3, #76]	; 0x4c
   d5ce4:	9301      	str	r3, [sp, #4]
   d5ce6:	bd08      	pop	{r3, pc}
   d5ce8:	00030220 	.word	0x00030220

000d5cec <application_thread_invoke>:
DYNALIB_FN(20, system, system_thread_current, uint8_t(void*))
DYNALIB_FN(21, system, application_thread_invoke, uint8_t(void(*)(void*), void*, void*))
   d5cec:	b508      	push	{r3, lr}
   d5cee:	4b02      	ldr	r3, [pc, #8]	; (d5cf8 <application_thread_invoke+0xc>)
   d5cf0:	681b      	ldr	r3, [r3, #0]
   d5cf2:	6d5b      	ldr	r3, [r3, #84]	; 0x54
   d5cf4:	9301      	str	r3, [sp, #4]
   d5cf6:	bd08      	pop	{r3, pc}
   d5cf8:	00030220 	.word	0x00030220

000d5cfc <system_ctrl_set_app_request_handler>:
DYNALIB_FN(BASE_IDX + 6, system, led_pattern_period, uint16_t(int, int, void*))
DYNALIB_FN(BASE_IDX + 7, system, system_set_tester_handlers, int(system_tester_handlers_t*, void*))
DYNALIB_FN(BASE_IDX + 8, system, system_format_diag_data, int(const uint16_t*, size_t, unsigned, appender_fn, void*, void*))

// Control requests
DYNALIB_FN(BASE_IDX + 9, system, system_ctrl_set_app_request_handler, int(ctrl_request_handler_fn, void*))
   d5cfc:	b508      	push	{r3, lr}
   d5cfe:	4b03      	ldr	r3, [pc, #12]	; (d5d0c <system_ctrl_set_app_request_handler+0x10>)
   d5d00:	681b      	ldr	r3, [r3, #0]
   d5d02:	f8d3 3088 	ldr.w	r3, [r3, #136]	; 0x88
   d5d06:	9301      	str	r3, [sp, #4]
   d5d08:	bd08      	pop	{r3, pc}
   d5d0a:	0000      	.short	0x0000
   d5d0c:	00030220 	.word	0x00030220

000d5d10 <system_ctrl_set_result>:
DYNALIB_FN(BASE_IDX + 10, system, system_ctrl_alloc_reply_data, int(ctrl_request*, size_t, void*))
DYNALIB_FN(BASE_IDX + 11, system, system_ctrl_free_request_data, void(ctrl_request*, void*))
DYNALIB_FN(BASE_IDX + 12, system, system_ctrl_set_result, void(ctrl_request*, int, ctrl_completion_handler_fn, void*, void*))
   d5d10:	b508      	push	{r3, lr}
   d5d12:	4b03      	ldr	r3, [pc, #12]	; (d5d20 <system_ctrl_set_result+0x10>)
   d5d14:	681b      	ldr	r3, [r3, #0]
   d5d16:	f8d3 3094 	ldr.w	r3, [r3, #148]	; 0x94
   d5d1a:	9301      	str	r3, [sp, #4]
   d5d1c:	bd08      	pop	{r3, pc}
   d5d1e:	0000      	.short	0x0000
   d5d20:	00030220 	.word	0x00030220

000d5d24 <network_connect>:
#endif

DYNALIB_BEGIN(system_net)

DYNALIB_FN(0, system_net, network_config, const void*(network_handle_t, uint32_t, void*))
DYNALIB_FN(1, system_net, network_connect, void(network_handle_t, uint32_t, uint32_t, void*))
   d5d24:	b508      	push	{r3, lr}
   d5d26:	4b02      	ldr	r3, [pc, #8]	; (d5d30 <network_connect+0xc>)
   d5d28:	681b      	ldr	r3, [r3, #0]
   d5d2a:	685b      	ldr	r3, [r3, #4]
   d5d2c:	9301      	str	r3, [sp, #4]
   d5d2e:	bd08      	pop	{r3, pc}
   d5d30:	00030240 	.word	0x00030240

000d5d34 <network_connecting>:
DYNALIB_FN(2, system_net, network_connecting, bool(network_handle_t, uint32_t, void*))
   d5d34:	b508      	push	{r3, lr}
   d5d36:	4b02      	ldr	r3, [pc, #8]	; (d5d40 <network_connecting+0xc>)
   d5d38:	681b      	ldr	r3, [r3, #0]
   d5d3a:	689b      	ldr	r3, [r3, #8]
   d5d3c:	9301      	str	r3, [sp, #4]
   d5d3e:	bd08      	pop	{r3, pc}
   d5d40:	00030240 	.word	0x00030240

000d5d44 <network_disconnect>:
DYNALIB_FN(3, system_net, network_disconnect, void(network_handle_t, uint32_t, void*))
   d5d44:	b508      	push	{r3, lr}
   d5d46:	4b02      	ldr	r3, [pc, #8]	; (d5d50 <network_disconnect+0xc>)
   d5d48:	681b      	ldr	r3, [r3, #0]
   d5d4a:	68db      	ldr	r3, [r3, #12]
   d5d4c:	9301      	str	r3, [sp, #4]
   d5d4e:	bd08      	pop	{r3, pc}
   d5d50:	00030240 	.word	0x00030240

000d5d54 <network_ready>:
DYNALIB_FN(4, system_net, network_ready, bool(network_handle_t, uint32_t, void*))
   d5d54:	b508      	push	{r3, lr}
   d5d56:	4b02      	ldr	r3, [pc, #8]	; (d5d60 <network_ready+0xc>)
   d5d58:	681b      	ldr	r3, [r3, #0]
   d5d5a:	691b      	ldr	r3, [r3, #16]
   d5d5c:	9301      	str	r3, [sp, #4]
   d5d5e:	bd08      	pop	{r3, pc}
   d5d60:	00030240 	.word	0x00030240

000d5d64 <network_on>:
DYNALIB_FN(5, system_net, network_on, void(network_handle_t, uint32_t, uint32_t, void*))
   d5d64:	b508      	push	{r3, lr}
   d5d66:	4b02      	ldr	r3, [pc, #8]	; (d5d70 <network_on+0xc>)
   d5d68:	681b      	ldr	r3, [r3, #0]
   d5d6a:	695b      	ldr	r3, [r3, #20]
   d5d6c:	9301      	str	r3, [sp, #4]
   d5d6e:	bd08      	pop	{r3, pc}
   d5d70:	00030240 	.word	0x00030240

000d5d74 <network_off>:
DYNALIB_FN(6, system_net, network_off, void(network_handle_t, uint32_t, uint32_t, void*))
   d5d74:	b508      	push	{r3, lr}
   d5d76:	4b02      	ldr	r3, [pc, #8]	; (d5d80 <network_off+0xc>)
   d5d78:	681b      	ldr	r3, [r3, #0]
   d5d7a:	699b      	ldr	r3, [r3, #24]
   d5d7c:	9301      	str	r3, [sp, #4]
   d5d7e:	bd08      	pop	{r3, pc}
   d5d80:	00030240 	.word	0x00030240

000d5d84 <network_listen>:
DYNALIB_FN(7, system_net, network_listen, void(network_handle_t, uint32_t, void*))
   d5d84:	b508      	push	{r3, lr}
   d5d86:	4b02      	ldr	r3, [pc, #8]	; (d5d90 <network_listen+0xc>)
   d5d88:	681b      	ldr	r3, [r3, #0]
   d5d8a:	69db      	ldr	r3, [r3, #28]
   d5d8c:	9301      	str	r3, [sp, #4]
   d5d8e:	bd08      	pop	{r3, pc}
   d5d90:	00030240 	.word	0x00030240

000d5d94 <network_listening>:
DYNALIB_FN(8, system_net, network_listening, bool(network_handle_t, uint32_t, void*))
   d5d94:	b508      	push	{r3, lr}
   d5d96:	4b02      	ldr	r3, [pc, #8]	; (d5da0 <network_listening+0xc>)
   d5d98:	681b      	ldr	r3, [r3, #0]
   d5d9a:	6a1b      	ldr	r3, [r3, #32]
   d5d9c:	9301      	str	r3, [sp, #4]
   d5d9e:	bd08      	pop	{r3, pc}
   d5da0:	00030240 	.word	0x00030240

000d5da4 <network_set_listen_timeout>:
DYNALIB_FN(9, system_net, network_has_credentials, bool(network_handle_t, uint32_t, void*))
DYNALIB_FN(10, system_net, network_set_credentials, int(network_handle_t, uint32_t, NetworkCredentials*, void*))
DYNALIB_FN(11, system_net, network_clear_credentials, bool(network_handle_t, uint32_t, NetworkCredentials*, void*))
DYNALIB_FN(12, system_net, network_set_listen_timeout, void(network_handle_t, uint16_t, void*))
   d5da4:	b508      	push	{r3, lr}
   d5da6:	4b02      	ldr	r3, [pc, #8]	; (d5db0 <network_set_listen_timeout+0xc>)
   d5da8:	681b      	ldr	r3, [r3, #0]
   d5daa:	6b1b      	ldr	r3, [r3, #48]	; 0x30
   d5dac:	9301      	str	r3, [sp, #4]
   d5dae:	bd08      	pop	{r3, pc}
   d5db0:	00030240 	.word	0x00030240

000d5db4 <network_get_listen_timeout>:
DYNALIB_FN(13, system_net, network_get_listen_timeout, uint16_t(network_handle_t, uint32_t, void*))
   d5db4:	b508      	push	{r3, lr}
   d5db6:	4b02      	ldr	r3, [pc, #8]	; (d5dc0 <network_get_listen_timeout+0xc>)
   d5db8:	681b      	ldr	r3, [r3, #0]
   d5dba:	6b5b      	ldr	r3, [r3, #52]	; 0x34
   d5dbc:	9301      	str	r3, [sp, #4]
   d5dbe:	bd08      	pop	{r3, pc}
   d5dc0:	00030240 	.word	0x00030240

000d5dc4 <spark_cloud_flag_connected>:
DYNALIB_FN(0, system_cloud, spark_variable, bool(const char*, const void*, Spark_Data_TypeDef, spark_variable_t*))
DYNALIB_FN(1, system_cloud, spark_function, bool(const char*, p_user_function_int_str_t, void*))
DYNALIB_FN(2, system_cloud, spark_process, void(void))
DYNALIB_FN(3, system_cloud, spark_cloud_flag_connect, void(void))
DYNALIB_FN(4, system_cloud, spark_cloud_flag_disconnect, void(void))
DYNALIB_FN(5, system_cloud, spark_cloud_flag_connected, bool(void))
   d5dc4:	b508      	push	{r3, lr}
   d5dc6:	4b02      	ldr	r3, [pc, #8]	; (d5dd0 <spark_cloud_flag_connected+0xc>)
   d5dc8:	681b      	ldr	r3, [r3, #0]
   d5dca:	695b      	ldr	r3, [r3, #20]
   d5dcc:	9301      	str	r3, [sp, #4]
   d5dce:	bd08      	pop	{r3, pc}
   d5dd0:	00030244 	.word	0x00030244

000d5dd4 <spark_send_event>:
DYNALIB_FN(6, system_cloud, system_cloud_protocol_instance, ProtocolFacade*(void))
DYNALIB_FN(7, system_cloud, spark_deviceID, String(void))
DYNALIB_FN(8, system_cloud, spark_send_event, bool(const char*, const char*, int, uint32_t, void*))
   d5dd4:	b508      	push	{r3, lr}
   d5dd6:	4b02      	ldr	r3, [pc, #8]	; (d5de0 <spark_send_event+0xc>)
   d5dd8:	681b      	ldr	r3, [r3, #0]
   d5dda:	6a1b      	ldr	r3, [r3, #32]
   d5ddc:	9301      	str	r3, [sp, #4]
   d5dde:	bd08      	pop	{r3, pc}
   d5de0:	00030244 	.word	0x00030244

000d5de4 <spark_set_random_seed_from_cloud_handler>:
DYNALIB_FN(10, system_cloud, spark_unsubscribe, void(void*))
DYNALIB_FN(11, system_cloud, spark_sync_time, bool(void*))
DYNALIB_FN(12, system_cloud, spark_sync_time_pending, bool(void*))
DYNALIB_FN(13, system_cloud, spark_sync_time_last, system_tick_t(time_t*, void*))
DYNALIB_FN(14, system_cloud, spark_set_connection_property, int(unsigned, unsigned, particle::protocol::connection_properties_t*, void*))
DYNALIB_FN(15, system_cloud, spark_set_random_seed_from_cloud_handler, int(void (*handler)(unsigned int), void*))
   d5de4:	b508      	push	{r3, lr}
   d5de6:	4b02      	ldr	r3, [pc, #8]	; (d5df0 <spark_set_random_seed_from_cloud_handler+0xc>)
   d5de8:	681b      	ldr	r3, [r3, #0]
   d5dea:	6bdb      	ldr	r3, [r3, #60]	; 0x3c
   d5dec:	9301      	str	r3, [sp, #4]
   d5dee:	bd08      	pop	{r3, pc}
   d5df0:	00030244 	.word	0x00030244

000d5df4 <malloc>:
#include <assert.h>
#endif

DYNALIB_BEGIN(rt)

DYNALIB_FN(0, rt, malloc, void*(size_t))
   d5df4:	b508      	push	{r3, lr}
   d5df6:	4b02      	ldr	r3, [pc, #8]	; (d5e00 <malloc+0xc>)
   d5df8:	681b      	ldr	r3, [r3, #0]
   d5dfa:	681b      	ldr	r3, [r3, #0]
   d5dfc:	9301      	str	r3, [sp, #4]
   d5dfe:	bd08      	pop	{r3, pc}
   d5e00:	0003021c 	.word	0x0003021c

000d5e04 <free>:
DYNALIB_FN(1, rt, free, void(void*))
   d5e04:	b508      	push	{r3, lr}
   d5e06:	4b02      	ldr	r3, [pc, #8]	; (d5e10 <free+0xc>)
   d5e08:	681b      	ldr	r3, [r3, #0]
   d5e0a:	685b      	ldr	r3, [r3, #4]
   d5e0c:	9301      	str	r3, [sp, #4]
   d5e0e:	bd08      	pop	{r3, pc}
   d5e10:	0003021c 	.word	0x0003021c

000d5e14 <vsnprintf>:
DYNALIB_FN(4, rt, siprintf, int(char*, const char*, ...))
DYNALIB_FN(5, rt, sscanf, int(const char*, const char*, ...))
DYNALIB_FN(6, rt, siscanf, int(const char*, const char*, ...))
DYNALIB_FN(7, rt, snprintf, int(char*, size_t, const char*, ...))
DYNALIB_FN(8, rt, sniprintf, int(char*, size_t, const char*, ...))
DYNALIB_FN(9, rt, vsnprintf, int(char*, size_t, const char*, va_list))
   d5e14:	b508      	push	{r3, lr}
   d5e16:	4b02      	ldr	r3, [pc, #8]	; (d5e20 <vsnprintf+0xc>)
   d5e18:	681b      	ldr	r3, [r3, #0]
   d5e1a:	6a5b      	ldr	r3, [r3, #36]	; 0x24
   d5e1c:	9301      	str	r3, [sp, #4]
   d5e1e:	bd08      	pop	{r3, pc}
   d5e20:	0003021c 	.word	0x0003021c

000d5e24 <abort>:
DYNALIB_FN(10, rt, vsniprintf, int(char*, size_t, const char*, va_list))
DYNALIB_FN(11, rt, abort, void(void))
   d5e24:	b508      	push	{r3, lr}
   d5e26:	4b02      	ldr	r3, [pc, #8]	; (d5e30 <abort+0xc>)
   d5e28:	681b      	ldr	r3, [r3, #0]
   d5e2a:	6adb      	ldr	r3, [r3, #44]	; 0x2c
   d5e2c:	9301      	str	r3, [sp, #4]
   d5e2e:	bd08      	pop	{r3, pc}
   d5e30:	0003021c 	.word	0x0003021c

000d5e34 <_malloc_r>:
DYNALIB_FN(12, rt, _malloc_r, void*(struct _reent*, size_t))
   d5e34:	b508      	push	{r3, lr}
   d5e36:	4b02      	ldr	r3, [pc, #8]	; (d5e40 <_malloc_r+0xc>)
   d5e38:	681b      	ldr	r3, [r3, #0]
   d5e3a:	6b1b      	ldr	r3, [r3, #48]	; 0x30
   d5e3c:	9301      	str	r3, [sp, #4]
   d5e3e:	bd08      	pop	{r3, pc}
   d5e40:	0003021c 	.word	0x0003021c

000d5e44 <_ZN5spark13EthernetClass9listeningEv>:
    uint16_t getListenTimeout(void) {
        return network_get_listen_timeout(*this, 0, NULL);
    }

    bool listening(void) {
        return network_listening(*this, 0, NULL);
   d5e44:	2200      	movs	r2, #0
   d5e46:	4611      	mov	r1, r2
   d5e48:	6840      	ldr	r0, [r0, #4]
   d5e4a:	f7ff bfa3 	b.w	d5d94 <network_listening>

000d5e4e <_ZN5spark13EthernetClass16getListenTimeoutEv>:
    void setListenTimeout(uint16_t timeout) {
        network_set_listen_timeout(*this, timeout, NULL);
    }

    uint16_t getListenTimeout(void) {
        return network_get_listen_timeout(*this, 0, NULL);
   d5e4e:	2200      	movs	r2, #0
   d5e50:	4611      	mov	r1, r2
   d5e52:	6840      	ldr	r0, [r0, #4]
   d5e54:	f7ff bfae 	b.w	d5db4 <network_get_listen_timeout>

000d5e58 <_ZN5spark13EthernetClass16setListenTimeoutEt>:
    void listen(bool begin=true) {
        network_listen(*this, begin ? 0 : 1, NULL);
    }

    void setListenTimeout(uint16_t timeout) {
        network_set_listen_timeout(*this, timeout, NULL);
   d5e58:	2200      	movs	r2, #0
   d5e5a:	6840      	ldr	r0, [r0, #4]
   d5e5c:	f7ff bfa2 	b.w	d5da4 <network_set_listen_timeout>

000d5e60 <_ZN5spark13EthernetClass6listenEb>:
    void disconnect() {
        network_disconnect(*this, NETWORK_DISCONNECT_REASON_USER, NULL);
    }

    void listen(bool begin=true) {
        network_listen(*this, begin ? 0 : 1, NULL);
   d5e60:	2200      	movs	r2, #0
   d5e62:	f081 0101 	eor.w	r1, r1, #1
   d5e66:	6840      	ldr	r0, [r0, #4]
   d5e68:	f7ff bf8c 	b.w	d5d84 <network_listen>

000d5e6c <_ZN5spark13EthernetClass3offEv>:
    void on() {
        network_on(*this, 0, 0, NULL);
    }

    void off() {
        network_off(*this, 0, 0, NULL);
   d5e6c:	2300      	movs	r3, #0
   d5e6e:	461a      	mov	r2, r3
   d5e70:	4619      	mov	r1, r3
   d5e72:	6840      	ldr	r0, [r0, #4]
   d5e74:	f7ff bf7e 	b.w	d5d74 <network_off>

000d5e78 <_ZN5spark13EthernetClass2onEv>:
    EthernetClass() :
            NetworkClass(NETWORK_INTERFACE_ETHERNET) {
    }

    void on() {
        network_on(*this, 0, 0, NULL);
   d5e78:	2300      	movs	r3, #0
   d5e7a:	461a      	mov	r2, r3
   d5e7c:	4619      	mov	r1, r3
   d5e7e:	6840      	ldr	r0, [r0, #4]
   d5e80:	f7ff bf70 	b.w	d5d64 <network_on>

000d5e84 <_ZN5spark13EthernetClass5readyEv>:
    bool listening(void) {
        return network_listening(*this, 0, NULL);
    }

    bool ready() {
        return network_ready(*this, 0,  NULL);
   d5e84:	2200      	movs	r2, #0
   d5e86:	4611      	mov	r1, r2
   d5e88:	6840      	ldr	r0, [r0, #4]
   d5e8a:	f7ff bf63 	b.w	d5d54 <network_ready>

000d5e8e <_ZN5spark13EthernetClass10connectingEv>:
    void connect(unsigned flags=0) {
        network_connect(*this, flags, 0, NULL);
    }

    bool connecting(void) {
        return network_connecting(*this, 0, NULL);
   d5e8e:	2200      	movs	r2, #0
   d5e90:	4611      	mov	r1, r2
   d5e92:	6840      	ldr	r0, [r0, #4]
   d5e94:	f7ff bf4e 	b.w	d5d34 <network_connecting>

000d5e98 <_ZN5spark13EthernetClass10disconnectEv>:
    }

    void disconnect() {
        network_disconnect(*this, NETWORK_DISCONNECT_REASON_USER, NULL);
   d5e98:	2200      	movs	r2, #0
   d5e9a:	2102      	movs	r1, #2
   d5e9c:	6840      	ldr	r0, [r0, #4]
   d5e9e:	f7ff bf51 	b.w	d5d44 <network_disconnect>

000d5ea2 <_ZN5spark13EthernetClass7connectEj>:
    void off() {
        network_off(*this, 0, 0, NULL);
    }

    void connect(unsigned flags=0) {
        network_connect(*this, flags, 0, NULL);
   d5ea2:	2300      	movs	r3, #0
   d5ea4:	461a      	mov	r2, r3
   d5ea6:	6840      	ldr	r0, [r0, #4]
   d5ea8:	f7ff bf3c 	b.w	d5d24 <network_connect>

000d5eac <_GLOBAL__sub_I__ZN5spark8EthernetE>:
    static NetworkClass& from(network_interface_t nif);

    virtual IPAddress resolve(const char* name);

    explicit NetworkClass(network_interface_t iface)
            : iface_(iface) {
   d5eac:	4b02      	ldr	r3, [pc, #8]	; (d5eb8 <_GLOBAL__sub_I__ZN5spark8EthernetE+0xc>)
   d5eae:	2203      	movs	r2, #3
   d5eb0:	605a      	str	r2, [r3, #4]
    }

class EthernetClass : public NetworkClass {
public:
    EthernetClass() :
            NetworkClass(NETWORK_INTERFACE_ETHERNET) {
   d5eb2:	4a02      	ldr	r2, [pc, #8]	; (d5ebc <_GLOBAL__sub_I__ZN5spark8EthernetE+0x10>)
   d5eb4:	601a      	str	r2, [r3, #0]
   d5eb6:	4770      	bx	lr
   d5eb8:	2003e3b4 	.word	0x2003e3b4
   d5ebc:	000d8734 	.word	0x000d8734

000d5ec0 <_ZN8SPIClass4lockEv.isra.0>:
  }

  int lock()
  {
#if HAL_PLATFORM_SPI_HAL_THREAD_SAFETY
    return HAL_SPI_Acquire(_spi, nullptr);
   d5ec0:	2100      	movs	r1, #0
   d5ec2:	f7ff bdc3 	b.w	d5a4c <HAL_SPI_Acquire>

000d5ec6 <_ZN8SPIClass6unlockEv.isra.1>:
  }

  void unlock()
  {
#if HAL_PLATFORM_SPI_HAL_THREAD_SAFETY
    HAL_SPI_Release(_spi, nullptr);
   d5ec6:	2100      	movs	r1, #0
   d5ec8:	f7ff bdc8 	b.w	d5a5c <HAL_SPI_Release>

000d5ecc <_ZN8SPIClassC1E17HAL_SPI_Interface>:
    }
    return particle::__SPISettings(info->clock, info->bit_order, info->data_mode);
}
} // namespace

SPIClass::SPIClass(HAL_SPI_Interface spi)
   d5ecc:	b510      	push	{r4, lr}
   d5ece:	4604      	mov	r4, r0
{
    _spi = spi;
   d5ed0:	7001      	strb	r1, [r0, #0]
    HAL_SPI_Init(_spi);
   d5ed2:	4608      	mov	r0, r1
   d5ed4:	f7ff fda2 	bl	d5a1c <HAL_SPI_Init>
    _dividerReference = SPI_CLK_SYSTEM; // 0 indicates the system clock
   d5ed8:	2300      	movs	r3, #0
   d5eda:	6063      	str	r3, [r4, #4]
}
   d5edc:	4620      	mov	r0, r4
   d5ede:	bd10      	pop	{r4, pc}

000d5ee0 <_ZN8SPIClass5beginEv>:

void SPIClass::begin()
{
   d5ee0:	b510      	push	{r4, lr}
   d5ee2:	4604      	mov	r4, r0
    // TODO: Fetch default pin from HAL
    if (!lock())
   d5ee4:	7800      	ldrb	r0, [r0, #0]
   d5ee6:	f7ff ffeb 	bl	d5ec0 <_ZN8SPIClass4lockEv.isra.0>
   d5eea:	b948      	cbnz	r0, d5f00 <_ZN8SPIClass5beginEv+0x20>
    {
        HAL_SPI_Begin(_spi, SPI_DEFAULT_SS);
   d5eec:	7820      	ldrb	r0, [r4, #0]
   d5eee:	f64f 71ff 	movw	r1, #65535	; 0xffff
   d5ef2:	f7ff fd6b 	bl	d59cc <HAL_SPI_Begin>
        unlock();
   d5ef6:	7820      	ldrb	r0, [r4, #0]
    }
}
   d5ef8:	e8bd 4010 	ldmia.w	sp!, {r4, lr}
{
    // TODO: Fetch default pin from HAL
    if (!lock())
    {
        HAL_SPI_Begin(_spi, SPI_DEFAULT_SS);
        unlock();
   d5efc:	f7ff bfe3 	b.w	d5ec6 <_ZN8SPIClass6unlockEv.isra.1>
   d5f00:	bd10      	pop	{r4, pc}

000d5f02 <_ZN8SPIClass11setBitOrderEh>:
        unlock();
    }
}

void SPIClass::setBitOrder(uint8_t bitOrder)
{
   d5f02:	b538      	push	{r3, r4, r5, lr}
   d5f04:	4604      	mov	r4, r0
    if (!lock())
   d5f06:	7800      	ldrb	r0, [r0, #0]
        unlock();
    }
}

void SPIClass::setBitOrder(uint8_t bitOrder)
{
   d5f08:	460d      	mov	r5, r1
    if (!lock())
   d5f0a:	f7ff ffd9 	bl	d5ec0 <_ZN8SPIClass4lockEv.isra.0>
   d5f0e:	b940      	cbnz	r0, d5f22 <_ZN8SPIClass11setBitOrderEh+0x20>
    {
        HAL_SPI_Set_Bit_Order(_spi, bitOrder);
   d5f10:	7820      	ldrb	r0, [r4, #0]
   d5f12:	4629      	mov	r1, r5
   d5f14:	f7ff fd62 	bl	d59dc <HAL_SPI_Set_Bit_Order>
        unlock();
   d5f18:	7820      	ldrb	r0, [r4, #0]
    }
}
   d5f1a:	e8bd 4038 	ldmia.w	sp!, {r3, r4, r5, lr}
void SPIClass::setBitOrder(uint8_t bitOrder)
{
    if (!lock())
    {
        HAL_SPI_Set_Bit_Order(_spi, bitOrder);
        unlock();
   d5f1e:	f7ff bfd2 	b.w	d5ec6 <_ZN8SPIClass6unlockEv.isra.1>
   d5f22:	bd38      	pop	{r3, r4, r5, pc}

000d5f24 <_ZN8SPIClass11setDataModeEh>:
    }
}

void SPIClass::setDataMode(uint8_t mode)
{
   d5f24:	b538      	push	{r3, r4, r5, lr}
   d5f26:	4604      	mov	r4, r0
    if (!lock())
   d5f28:	7800      	ldrb	r0, [r0, #0]
        unlock();
    }
}

void SPIClass::setDataMode(uint8_t mode)
{
   d5f2a:	460d      	mov	r5, r1
    if (!lock())
   d5f2c:	f7ff ffc8 	bl	d5ec0 <_ZN8SPIClass4lockEv.isra.0>
   d5f30:	b940      	cbnz	r0, d5f44 <_ZN8SPIClass11setDataModeEh+0x20>
    {
        HAL_SPI_Set_Data_Mode(_spi, mode);
   d5f32:	7820      	ldrb	r0, [r4, #0]
   d5f34:	4629      	mov	r1, r5
   d5f36:	f7ff fd59 	bl	d59ec <HAL_SPI_Set_Data_Mode>
        unlock();
   d5f3a:	7820      	ldrb	r0, [r4, #0]
    }
}
   d5f3c:	e8bd 4038 	ldmia.w	sp!, {r3, r4, r5, lr}
void SPIClass::setDataMode(uint8_t mode)
{
    if (!lock())
    {
        HAL_SPI_Set_Data_Mode(_spi, mode);
        unlock();
   d5f40:	f7ff bfc1 	b.w	d5ec6 <_ZN8SPIClass6unlockEv.isra.1>
   d5f44:	bd38      	pop	{r3, r4, r5, pc}
	...

000d5f48 <_ZN8SPIClass19computeClockDividerEjjRhRj>:
void SPIClass::computeClockDivider(unsigned reference, unsigned targetSpeed, uint8_t& divider,
                                   unsigned& clock)
{
    clock = reference;
    uint8_t scale = 0;
    clock >>= 1; // div2 is the first
   d5f48:	0840      	lsrs	r0, r0, #1
    }
}

void SPIClass::computeClockDivider(unsigned reference, unsigned targetSpeed, uint8_t& divider,
                                   unsigned& clock)
{
   d5f4a:	b530      	push	{r4, r5, lr}
    clock = reference;
    uint8_t scale = 0;
    clock >>= 1; // div2 is the first
   d5f4c:	6018      	str	r0, [r3, #0]
   d5f4e:	2400      	movs	r4, #0
    while (clock > targetSpeed && scale < 7)
   d5f50:	6818      	ldr	r0, [r3, #0]
   d5f52:	4288      	cmp	r0, r1
   d5f54:	b2e5      	uxtb	r5, r4
   d5f56:	d906      	bls.n	d5f66 <_ZN8SPIClass19computeClockDividerEjjRhRj+0x1e>
   d5f58:	3401      	adds	r4, #1
   d5f5a:	2c08      	cmp	r4, #8
   d5f5c:	d002      	beq.n	d5f64 <_ZN8SPIClass19computeClockDividerEjjRhRj+0x1c>
    {
        clock >>= 1;
   d5f5e:	0840      	lsrs	r0, r0, #1
   d5f60:	6018      	str	r0, [r3, #0]
                                   unsigned& clock)
{
    clock = reference;
    uint8_t scale = 0;
    clock >>= 1; // div2 is the first
    while (clock > targetSpeed && scale < 7)
   d5f62:	e7f5      	b.n	d5f50 <_ZN8SPIClass19computeClockDividerEjjRhRj+0x8>
   d5f64:	2507      	movs	r5, #7
    {
        clock >>= 1;
        scale++;
    }
    divider = clock_divisors[scale];
   d5f66:	4b02      	ldr	r3, [pc, #8]	; (d5f70 <_ZN8SPIClass19computeClockDividerEjjRhRj+0x28>)
   d5f68:	5d5b      	ldrb	r3, [r3, r5]
   d5f6a:	7013      	strb	r3, [r2, #0]
   d5f6c:	bd30      	pop	{r4, r5, pc}
   d5f6e:	bf00      	nop
   d5f70:	000d8760 	.word	0x000d8760

000d5f74 <_ZN8SPIClass13setClockSpeedEjj>:
}

unsigned SPIClass::setClockSpeed(unsigned value, unsigned value_scale)
{
   d5f74:	e92d 41f0 	stmdb	sp!, {r4, r5, r6, r7, r8, lr}
   d5f78:	b088      	sub	sp, #32
    unsigned clock = 0;
   d5f7a:	2300      	movs	r3, #0
    }
    divider = clock_divisors[scale];
}

unsigned SPIClass::setClockSpeed(unsigned value, unsigned value_scale)
{
   d5f7c:	4604      	mov	r4, r0
    unsigned clock = 0;

    // actual speed is the system clock divided by some scalar
    unsigned targetSpeed = value * value_scale;

    if (!lock())
   d5f7e:	7800      	ldrb	r0, [r0, #0]
    divider = clock_divisors[scale];
}

unsigned SPIClass::setClockSpeed(unsigned value, unsigned value_scale)
{
    unsigned clock = 0;
   d5f80:	9302      	str	r3, [sp, #8]
    }
    divider = clock_divisors[scale];
}

unsigned SPIClass::setClockSpeed(unsigned value, unsigned value_scale)
{
   d5f82:	460e      	mov	r6, r1
   d5f84:	4617      	mov	r7, r2
    unsigned clock = 0;

    // actual speed is the system clock divided by some scalar
    unsigned targetSpeed = value * value_scale;

    if (!lock())
   d5f86:	f7ff ff9b 	bl	d5ec0 <_ZN8SPIClass4lockEv.isra.0>
   d5f8a:	4605      	mov	r5, r0
   d5f8c:	bb00      	cbnz	r0, d5fd0 <_ZN8SPIClass13setClockSpeedEjj+0x5c>
    {
        // Query SPI info
        hal_spi_info_t info;
        querySpiInfo(_spi, &info);
   d5f8e:	f894 8000 	ldrb.w	r8, [r4]
 * \warning This method is NOT THREADSAFE and callers will need to utilize
 *          HAL synchronization primatives.
 */
static void querySpiInfo(HAL_SPI_Interface spi, hal_spi_info_t* info)
{
    memset(info, 0, sizeof(hal_spi_info_t));
   d5f92:	4601      	mov	r1, r0
   d5f94:	2214      	movs	r2, #20
   d5f96:	a803      	add	r0, sp, #12
   d5f98:	f001 ff03 	bl	d7da2 <memset>
    info->version = HAL_SPI_INFO_VERSION_1;
   d5f9c:	230b      	movs	r3, #11
    HAL_SPI_Info(spi, info, nullptr);
   d5f9e:	462a      	mov	r2, r5
   d5fa0:	a903      	add	r1, sp, #12
   d5fa2:	4640      	mov	r0, r8
 *          HAL synchronization primatives.
 */
static void querySpiInfo(HAL_SPI_Interface spi, hal_spi_info_t* info)
{
    memset(info, 0, sizeof(hal_spi_info_t));
    info->version = HAL_SPI_INFO_VERSION_1;
   d5fa4:	f8ad 300c 	strh.w	r3, [sp, #12]
    HAL_SPI_Info(spi, info, nullptr);
   d5fa8:	f7ff fd48 	bl	d5a3c <HAL_SPI_Info>
        hal_spi_info_t info;
        querySpiInfo(_spi, &info);

        // Calculate clock divider
        uint8_t divisor = 0;
        computeClockDivider(info.system_clock, targetSpeed, divisor, clock);
   d5fac:	ab02      	add	r3, sp, #8
   d5fae:	f10d 0207 	add.w	r2, sp, #7
   d5fb2:	fb07 f106 	mul.w	r1, r7, r6
   d5fb6:	9804      	ldr	r0, [sp, #16]
        // Query SPI info
        hal_spi_info_t info;
        querySpiInfo(_spi, &info);

        // Calculate clock divider
        uint8_t divisor = 0;
   d5fb8:	f88d 5007 	strb.w	r5, [sp, #7]
        computeClockDivider(info.system_clock, targetSpeed, divisor, clock);
   d5fbc:	f7ff ffc4 	bl	d5f48 <_ZN8SPIClass19computeClockDividerEjjRhRj>

        // Update SPI peripheral
        HAL_SPI_Set_Clock_Divider(_spi, divisor);
   d5fc0:	7820      	ldrb	r0, [r4, #0]
   d5fc2:	f89d 1007 	ldrb.w	r1, [sp, #7]
   d5fc6:	f7ff fd19 	bl	d59fc <HAL_SPI_Set_Clock_Divider>
        unlock();
   d5fca:	7820      	ldrb	r0, [r4, #0]
   d5fcc:	f7ff ff7b 	bl	d5ec6 <_ZN8SPIClass6unlockEv.isra.1>
    }

    return clock;
}
   d5fd0:	9802      	ldr	r0, [sp, #8]
   d5fd2:	b008      	add	sp, #32
   d5fd4:	e8bd 81f0 	ldmia.w	sp!, {r4, r5, r6, r7, r8, pc}

000d5fd8 <_ZN8SPIClass15setClockDividerEh>:
        unlock();
    }
}

void SPIClass::setClockDivider(uint8_t rate)
{
   d5fd8:	b538      	push	{r3, r4, r5, lr}
   d5fda:	4604      	mov	r4, r0
    if (!lock())
   d5fdc:	7800      	ldrb	r0, [r0, #0]
        unlock();
    }
}

void SPIClass::setClockDivider(uint8_t rate)
{
   d5fde:	460d      	mov	r5, r1
    if (!lock())
   d5fe0:	f7ff ff6e 	bl	d5ec0 <_ZN8SPIClass4lockEv.isra.0>
   d5fe4:	b9c8      	cbnz	r0, d601a <_ZN8SPIClass15setClockDividerEh+0x42>
    {
        if (_dividerReference)
   d5fe6:	6861      	ldr	r1, [r4, #4]
   d5fe8:	b171      	cbz	r1, d6008 <_ZN8SPIClass15setClockDividerEh+0x30>
uint8_t divisorShiftScale(uint8_t divider)
{
    unsigned result = 0;
    for (; result < arraySize(clock_divisors); result++)
    {
        if (clock_divisors[result] == divider)
   d5fea:	4b0c      	ldr	r3, [pc, #48]	; (d601c <_ZN8SPIClass15setClockDividerEh+0x44>)
   d5fec:	5cc2      	ldrb	r2, [r0, r3]
   d5fee:	42aa      	cmp	r2, r5
   d5ff0:	d002      	beq.n	d5ff8 <_ZN8SPIClass15setClockDividerEh+0x20>
 * Calculates how far a clock value should be right-shifted
 */
uint8_t divisorShiftScale(uint8_t divider)
{
    unsigned result = 0;
    for (; result < arraySize(clock_divisors); result++)
   d5ff2:	3001      	adds	r0, #1
   d5ff4:	2808      	cmp	r0, #8
   d5ff6:	d1f9      	bne.n	d5fec <_ZN8SPIClass15setClockDividerEh+0x14>
        if (_dividerReference)
        {
            // determine the clock speed
            uint8_t scale = divisorShiftScale(rate);
            unsigned targetSpeed = _dividerReference >> scale;
            setClockSpeed(targetSpeed);
   d5ff8:	3001      	adds	r0, #1
   d5ffa:	b2c0      	uxtb	r0, r0
   d5ffc:	40c1      	lsrs	r1, r0
   d5ffe:	2201      	movs	r2, #1
   d6000:	4620      	mov	r0, r4
   d6002:	f7ff ffb7 	bl	d5f74 <_ZN8SPIClass13setClockSpeedEjj>
   d6006:	e003      	b.n	d6010 <_ZN8SPIClass15setClockDividerEh+0x38>
        }
        else
        {
            HAL_SPI_Set_Clock_Divider(_spi, rate);
   d6008:	4629      	mov	r1, r5
   d600a:	7820      	ldrb	r0, [r4, #0]
   d600c:	f7ff fcf6 	bl	d59fc <HAL_SPI_Set_Clock_Divider>
        }
        unlock();
   d6010:	7820      	ldrb	r0, [r4, #0]
    }
}
   d6012:	e8bd 4038 	ldmia.w	sp!, {r3, r4, r5, lr}
        }
        else
        {
            HAL_SPI_Set_Clock_Divider(_spi, rate);
        }
        unlock();
   d6016:	f7ff bf56 	b.w	d5ec6 <_ZN8SPIClass6unlockEv.isra.1>
   d601a:	bd38      	pop	{r3, r4, r5, pc}
   d601c:	000d8760 	.word	0x000d8760

000d6020 <_ZN8SPIClass8transferEh>:

    return clock;
}

byte SPIClass::transfer(byte _data)
{
   d6020:	b508      	push	{r3, lr}
    return static_cast<byte>(HAL_SPI_Send_Receive_Data(_spi, _data));
   d6022:	7800      	ldrb	r0, [r0, #0]
   d6024:	f7ff fcf2 	bl	d5a0c <HAL_SPI_Send_Receive_Data>
}
   d6028:	b2c0      	uxtb	r0, r0
   d602a:	bd08      	pop	{r3, pc}

000d602c <_ZN8SPIClass9isEnabledEv>:
bool SPIClass::isEnabled()
{
    // XXX: pinAvailable() will call this method potentially even from
    // interrupt context. `enabled` flag in HAL is usually just a volatile
    // variable, so it's fine not to acquire the lock here.
    return HAL_SPI_Is_Enabled(_spi);
   d602c:	7800      	ldrb	r0, [r0, #0]
   d602e:	f7ff bcfd 	b.w	d5a2c <HAL_SPI_Is_Enabled>

000d6032 <_ZN17SystemSleepResult22freeWakeupSourceMemoryEv.isra.2>:
    operator SleepResult() {
        return toSleepResult();
    }

private:
    void freeWakeupSourceMemory() {
   d6032:	b510      	push	{r4, lr}
   d6034:	4604      	mov	r4, r0
        if (wakeupSource_) {
   d6036:	6800      	ldr	r0, [r0, #0]
   d6038:	b118      	cbz	r0, d6042 <_ZN17SystemSleepResult22freeWakeupSourceMemoryEv.isra.2+0x10>
            free(wakeupSource_);
   d603a:	f7ff fee3 	bl	d5e04 <free>
            wakeupSource_ = nullptr;
   d603e:	2300      	movs	r3, #0
   d6040:	6023      	str	r3, [r4, #0]
   d6042:	bd10      	pop	{r4, pc}

000d6044 <_ZN11SystemClassD1Ev>:
    system_error_t error_;
    SleepResult compatResult_;
};


class SystemClass {
   d6044:	b510      	push	{r4, lr}
   d6046:	4604      	mov	r4, r0
        }
        return *this;
    }

    ~SystemSleepResult() {
        freeWakeupSourceMemory();
   d6048:	f7ff fff3 	bl	d6032 <_ZN17SystemSleepResult22freeWakeupSourceMemoryEv.isra.2>
    system_error_t error_;
    SleepResult compatResult_;
};


class SystemClass {
   d604c:	4620      	mov	r0, r4
   d604e:	bd10      	pop	{r4, pc}

000d6050 <_GLOBAL__sub_I_System>:
    return wokenUpByRtc();
}

system_error_t SleepResult::error() const {
    return err_;
   d6050:	b510      	push	{r4, lr}

class SystemSleepResult {
public:
    SystemSleepResult()
            : wakeupSource_(nullptr),
              error_(SYSTEM_ERROR_NONE) {
   d6052:	4c09      	ldr	r4, [pc, #36]	; (d6078 <_GLOBAL__sub_I_System+0x28>)
   d6054:	2000      	movs	r0, #0
    WAKEUP_REASON_PIN_OR_RTC = 3,
    WAKEUP_REASON_UNKNOWN = 4
};

struct SleepResult {
    SleepResult() {}
   d6056:	f64f 73ff 	movw	r3, #65535	; 0xffff

class SystemSleepResult {
public:
    SystemSleepResult()
            : wakeupSource_(nullptr),
              error_(SYSTEM_ERROR_NONE) {
   d605a:	6020      	str	r0, [r4, #0]
   d605c:	80a0      	strh	r0, [r4, #4]
    WAKEUP_REASON_PIN_OR_RTC = 3,
    WAKEUP_REASON_UNKNOWN = 4
};

struct SleepResult {
    SleepResult() {}
   d605e:	71a0      	strb	r0, [r4, #6]
   d6060:	8120      	strh	r0, [r4, #8]
   d6062:	8163      	strh	r3, [r4, #10]

class SystemClass {
public:

    SystemClass(System_Mode_TypeDef mode = DEFAULT) {
        set_system_mode(mode);
   d6064:	f7ff fe22 	bl	d5cac <set_system_mode>

#if Wiring_LogConfig
extern void(*log_process_ctrl_request_callback)(ctrl_request* req);
#endif

SystemClass System;
   d6068:	4620      	mov	r0, r4
   d606a:	4a04      	ldr	r2, [pc, #16]	; (d607c <_GLOBAL__sub_I_System+0x2c>)
   d606c:	4904      	ldr	r1, [pc, #16]	; (d6080 <_GLOBAL__sub_I_System+0x30>)
    return wokenUpByRtc();
}

system_error_t SleepResult::error() const {
    return err_;
   d606e:	e8bd 4010 	ldmia.w	sp!, {r4, lr}

#if Wiring_LogConfig
extern void(*log_process_ctrl_request_callback)(ctrl_request* req);
#endif

SystemClass System;
   d6072:	f001 b8f3 	b.w	d725c <__aeabi_atexit>
   d6076:	bf00      	nop
   d6078:	2003e3bc 	.word	0x2003e3bc
   d607c:	2003e298 	.word	0x2003e298
   d6080:	000d6045 	.word	0x000d6045

000d6084 <_ZN14RecursiveMutexD1Ev>:
    RecursiveMutex() : handle_(nullptr)
    {
        os_mutex_recursive_create(&handle_);
    }

    ~RecursiveMutex() {
   d6084:	b510      	push	{r4, lr}
   d6086:	4604      	mov	r4, r0
        dispose();
    }

    void dispose()
    {
        if (handle_) {
   d6088:	6800      	ldr	r0, [r0, #0]
   d608a:	b108      	cbz	r0, d6090 <_ZN14RecursiveMutexD1Ev+0xc>
            os_mutex_recursive_destroy(handle_);
   d608c:	f7ff fd26 	bl	d5adc <os_mutex_recursive_destroy>
        os_mutex_recursive_create(&handle_);
    }

    ~RecursiveMutex() {
        dispose();
    }
   d6090:	4620      	mov	r0, r4
   d6092:	bd10      	pop	{r4, pc}

000d6094 <_ZNSt16_Sp_counted_baseILN9__gnu_cxx12_Lock_policyE0EE10_M_releaseEv.part.4.constprop.112>:
    _Sp_counted_base<_S_single>::_M_add_ref_copy()
    { ++_M_use_count; }

  template<>
    inline void
    _Sp_counted_base<_S_single>::_M_release() noexcept
   d6094:	b510      	push	{r4, lr}
    {
      if (--_M_use_count == 0)
        {
          _M_dispose();
   d6096:	6803      	ldr	r3, [r0, #0]
    _Sp_counted_base<_S_single>::_M_add_ref_copy()
    { ++_M_use_count; }

  template<>
    inline void
    _Sp_counted_base<_S_single>::_M_release() noexcept
   d6098:	4604      	mov	r4, r0
    {
      if (--_M_use_count == 0)
        {
          _M_dispose();
   d609a:	689b      	ldr	r3, [r3, #8]
   d609c:	4798      	blx	r3
          if (--_M_weak_count == 0)
   d609e:	68a3      	ldr	r3, [r4, #8]
   d60a0:	3b01      	subs	r3, #1
   d60a2:	60a3      	str	r3, [r4, #8]
   d60a4:	b92b      	cbnz	r3, d60b2 <_ZNSt16_Sp_counted_baseILN9__gnu_cxx12_Lock_policyE0EE10_M_releaseEv.part.4.constprop.112+0x1e>
            _M_destroy();
   d60a6:	6823      	ldr	r3, [r4, #0]
   d60a8:	4620      	mov	r0, r4
   d60aa:	68db      	ldr	r3, [r3, #12]
        }
    }
   d60ac:	e8bd 4010 	ldmia.w	sp!, {r4, lr}
    {
      if (--_M_use_count == 0)
        {
          _M_dispose();
          if (--_M_weak_count == 0)
            _M_destroy();
   d60b0:	4718      	bx	r3
   d60b2:	bd10      	pop	{r4, pc}

000d60b4 <_ZNSt14__shared_countILN9__gnu_cxx12_Lock_policyE0EEC1ERKS2_>:
	if (_M_pi != nullptr)
	  _M_pi->_M_release();
      }

      __shared_count(const __shared_count& __r) noexcept
      : _M_pi(__r._M_pi)
   d60b4:	680b      	ldr	r3, [r1, #0]
   d60b6:	6003      	str	r3, [r0, #0]
      {
	if (_M_pi != 0)
   d60b8:	b113      	cbz	r3, d60c0 <_ZNSt14__shared_countILN9__gnu_cxx12_Lock_policyE0EEC1ERKS2_+0xc>
    }

  template<>
    inline void
    _Sp_counted_base<_S_single>::_M_add_ref_copy()
    { ++_M_use_count; }
   d60ba:	685a      	ldr	r2, [r3, #4]
   d60bc:	3201      	adds	r2, #1
   d60be:	605a      	str	r2, [r3, #4]
      __shared_count(const __shared_count& __r) noexcept
      : _M_pi(__r._M_pi)
      {
	if (_M_pi != 0)
	  _M_pi->_M_add_ref_copy();
      }
   d60c0:	4770      	bx	lr

000d60c2 <_ZNSt14__shared_countILN9__gnu_cxx12_Lock_policyE0EED1Ev>:
      explicit __shared_count(const __weak_count<_Lp>& __r);

      // Does not throw if __r._M_get_use_count() == 0, caller must check.
      explicit __shared_count(const __weak_count<_Lp>& __r, std::nothrow_t);

      ~__shared_count() noexcept
   d60c2:	b510      	push	{r4, lr}
   d60c4:	4604      	mov	r4, r0
      {
	if (_M_pi != nullptr)
   d60c6:	6800      	ldr	r0, [r0, #0]
   d60c8:	b128      	cbz	r0, d60d6 <_ZNSt14__shared_countILN9__gnu_cxx12_Lock_policyE0EED1Ev+0x14>

  template<>
    inline void
    _Sp_counted_base<_S_single>::_M_release() noexcept
    {
      if (--_M_use_count == 0)
   d60ca:	6843      	ldr	r3, [r0, #4]
   d60cc:	3b01      	subs	r3, #1
   d60ce:	6043      	str	r3, [r0, #4]
   d60d0:	b90b      	cbnz	r3, d60d6 <_ZNSt14__shared_countILN9__gnu_cxx12_Lock_policyE0EED1Ev+0x14>
   d60d2:	f7ff ffdf 	bl	d6094 <_ZNSt16_Sp_counted_baseILN9__gnu_cxx12_Lock_policyE0EE10_M_releaseEv.part.4.constprop.112>

      ~__shared_count() noexcept
      {
	if (_M_pi != nullptr)
	  _M_pi->_M_release();
      }
   d60d6:	4620      	mov	r0, r4
   d60d8:	bd10      	pop	{r4, pc}
	...

000d60dc <_GLOBAL__sub_I__ZN8particle3ble13WiringBleLock6mutex_E>:
BleCharacteristic BleLocalDevice::addCharacteristic(const String& desc, EnumFlags<BleCharacteristicProperty> properties, BleOnDataReceivedCallback callback, void* context) {
    WiringBleLock lk;
    return addCharacteristic(desc.c_str(), properties, callback, context);
}

} /* namespace particle */
   d60dc:	b510      	push	{r4, lr}
    /**
     * Creates a shared mutex.
     */
    RecursiveMutex(os_mutex_recursive_t handle) : handle_(handle) {}

    RecursiveMutex() : handle_(nullptr)
   d60de:	4c06      	ldr	r4, [pc, #24]	; (d60f8 <_GLOBAL__sub_I__ZN8particle3ble13WiringBleLock6mutex_E+0x1c>)
   d60e0:	2300      	movs	r3, #0
    {
        os_mutex_recursive_create(&handle_);
   d60e2:	4620      	mov	r0, r4
    /**
     * Creates a shared mutex.
     */
    RecursiveMutex(os_mutex_recursive_t handle) : handle_(handle) {}

    RecursiveMutex() : handle_(nullptr)
   d60e4:	6023      	str	r3, [r4, #0]
    {
        os_mutex_recursive_create(&handle_);
   d60e6:	f7ff fcf1 	bl	d5acc <os_mutex_recursive_create>
private:
    bool locked_;
    static RecursiveMutex mutex_;
};

RecursiveMutex WiringBleLock::mutex_;
   d60ea:	4620      	mov	r0, r4
   d60ec:	4a03      	ldr	r2, [pc, #12]	; (d60fc <_GLOBAL__sub_I__ZN8particle3ble13WiringBleLock6mutex_E+0x20>)
   d60ee:	4904      	ldr	r1, [pc, #16]	; (d6100 <_GLOBAL__sub_I__ZN8particle3ble13WiringBleLock6mutex_E+0x24>)
BleCharacteristic BleLocalDevice::addCharacteristic(const String& desc, EnumFlags<BleCharacteristicProperty> properties, BleOnDataReceivedCallback callback, void* context) {
    WiringBleLock lk;
    return addCharacteristic(desc.c_str(), properties, callback, context);
}

} /* namespace particle */
   d60f0:	e8bd 4010 	ldmia.w	sp!, {r4, lr}
private:
    bool locked_;
    static RecursiveMutex mutex_;
};

RecursiveMutex WiringBleLock::mutex_;
   d60f4:	f001 b8b2 	b.w	d725c <__aeabi_atexit>
   d60f8:	2003e3c8 	.word	0x2003e3c8
   d60fc:	2003e298 	.word	0x2003e298
   d6100:	000d6085 	.word	0x000d6085

000d6104 <_ZN5Print5writeEPKhj>:

// Public Methods //////////////////////////////////////////////////////////////

/* default implementation: may be overridden */
size_t Print::write(const uint8_t *buffer, size_t size)
{
   d6104:	b5f8      	push	{r3, r4, r5, r6, r7, lr}
   d6106:	4606      	mov	r6, r0
   d6108:	460d      	mov	r5, r1
   d610a:	188f      	adds	r7, r1, r2
  size_t n = 0;
   d610c:	2400      	movs	r4, #0
  while (size--) {
   d610e:	42bd      	cmp	r5, r7
   d6110:	d00c      	beq.n	d612c <_ZN5Print5writeEPKhj+0x28>
     int chunk = write(*buffer++);
   d6112:	6833      	ldr	r3, [r6, #0]
   d6114:	f815 1b01 	ldrb.w	r1, [r5], #1
   d6118:	689b      	ldr	r3, [r3, #8]
   d611a:	4630      	mov	r0, r6
   d611c:	4798      	blx	r3
     if (chunk>=0)
   d611e:	2800      	cmp	r0, #0
   d6120:	db01      	blt.n	d6126 <_ZN5Print5writeEPKhj+0x22>
         n += chunk;
   d6122:	4404      	add	r4, r0

/* default implementation: may be overridden */
size_t Print::write(const uint8_t *buffer, size_t size)
{
  size_t n = 0;
  while (size--) {
   d6124:	e7f3      	b.n	d610e <_ZN5Print5writeEPKhj+0xa>
     int chunk = write(*buffer++);
   d6126:	2c00      	cmp	r4, #0
   d6128:	bf08      	it	eq
   d612a:	4604      	moveq	r4, r0
             n = chunk;
         break;
     }
  }
  return n;
}
   d612c:	4620      	mov	r0, r4
   d612e:	bdf8      	pop	{r3, r4, r5, r6, r7, pc}

000d6130 <_ZN5Print5writeEPKc>:

    int getWriteError() { return write_error; }
    void clearWriteError() { setWriteError(0); }

    virtual size_t write(uint8_t) = 0;
    size_t write(const char *str) {
   d6130:	b570      	push	{r4, r5, r6, lr}
   d6132:	4605      	mov	r5, r0
      if (str == NULL) return 0;
   d6134:	460c      	mov	r4, r1
      return write((const uint8_t *)str, strlen(str));
    }
   d6136:	4608      	mov	r0, r1
    int getWriteError() { return write_error; }
    void clearWriteError() { setWriteError(0); }

    virtual size_t write(uint8_t) = 0;
    size_t write(const char *str) {
      if (str == NULL) return 0;
   d6138:	b149      	cbz	r1, d614e <_ZN5Print5writeEPKc+0x1e>
      return write((const uint8_t *)str, strlen(str));
   d613a:	f001 feca 	bl	d7ed2 <strlen>
   d613e:	682b      	ldr	r3, [r5, #0]
   d6140:	4602      	mov	r2, r0
   d6142:	4621      	mov	r1, r4
   d6144:	4628      	mov	r0, r5
   d6146:	68db      	ldr	r3, [r3, #12]
    }
   d6148:	e8bd 4070 	ldmia.w	sp!, {r4, r5, r6, lr}
    void clearWriteError() { setWriteError(0); }

    virtual size_t write(uint8_t) = 0;
    size_t write(const char *str) {
      if (str == NULL) return 0;
      return write((const uint8_t *)str, strlen(str));
   d614c:	4718      	bx	r3
    }
   d614e:	bd70      	pop	{r4, r5, r6, pc}

000d6150 <_ZN5Print5printEc>:
  return write(str);
}

size_t Print::print(char c)
{
  return write(c);
   d6150:	6803      	ldr	r3, [r0, #0]
   d6152:	689b      	ldr	r3, [r3, #8]
   d6154:	4718      	bx	r3

000d6156 <_ZN5Print7printlnEv>:
{
  return print(reinterpret_cast<const char*>(str));
}

size_t Print::println(void)
{
   d6156:	b538      	push	{r3, r4, r5, lr}
  size_t n = print('\r');
   d6158:	210d      	movs	r1, #13
{
  return print(reinterpret_cast<const char*>(str));
}

size_t Print::println(void)
{
   d615a:	4605      	mov	r5, r0
  size_t n = print('\r');
   d615c:	f7ff fff8 	bl	d6150 <_ZN5Print5printEc>
  n += print('\n');
   d6160:	210a      	movs	r1, #10
  return print(reinterpret_cast<const char*>(str));
}

size_t Print::println(void)
{
  size_t n = print('\r');
   d6162:	4604      	mov	r4, r0
  n += print('\n');
   d6164:	4628      	mov	r0, r5
   d6166:	f7ff fff3 	bl	d6150 <_ZN5Print5printEc>
  return n;
}
   d616a:	4420      	add	r0, r4
   d616c:	bd38      	pop	{r3, r4, r5, pc}

000d616e <_ZN5Print7printlnEPKc>:

size_t Print::println(const char c[])
{
   d616e:	b538      	push	{r3, r4, r5, lr}
   d6170:	4605      	mov	r5, r0
  return n;
}

size_t Print::print(const char str[])
{
  return write(str);
   d6172:	f7ff ffdd 	bl	d6130 <_ZN5Print5writeEPKc>
   d6176:	4604      	mov	r4, r0
}

size_t Print::println(const char c[])
{
  size_t n = print(c);
  n += println();
   d6178:	4628      	mov	r0, r5
   d617a:	f7ff ffec 	bl	d6156 <_ZN5Print7printlnEv>
  return n;
}
   d617e:	4420      	add	r0, r4
   d6180:	bd38      	pop	{r3, r4, r5, pc}

000d6182 <_ZN5Print11printNumberEmh>:
  return println(reinterpret_cast<const char*>(str));
}

// Private Methods /////////////////////////////////////////////////////////////

size_t Print::printNumber(unsigned long n, uint8_t base) {
   d6182:	b530      	push	{r4, r5, lr}
   d6184:	b08b      	sub	sp, #44	; 0x2c
   d6186:	460b      	mov	r3, r1
  char buf[8 * sizeof(n) + 1]; // Assumes 8-bit chars plus zero byte.
  char *str = &buf[sizeof(buf) - 1];

  *str = '\0';
   d6188:	2100      	movs	r1, #0
   d618a:	f88d 1024 	strb.w	r1, [sp, #36]	; 0x24

  // prevent crash if called with base == 1
  if (base < 2) base = 10;
   d618e:	2a01      	cmp	r2, #1
   d6190:	bf98      	it	ls
   d6192:	220a      	movls	r2, #10
   d6194:	f10d 0423 	add.w	r4, sp, #35	; 0x23

  do {
   decltype(n) m = n;
   n /= base;
   d6198:	fbb3 f5f2 	udiv	r5, r3, r2
   char c = m - base * n;
   d619c:	fb05 3312 	mls	r3, r5, r2, r3
   d61a0:	f003 03ff 	and.w	r3, r3, #255	; 0xff
   *--str = c < 10 ? c + '0' : c + 'A' - 10;
   d61a4:	2b09      	cmp	r3, #9
   d61a6:	bf94      	ite	ls
   d61a8:	3330      	addls	r3, #48	; 0x30
   d61aa:	3337      	addhi	r3, #55	; 0x37
   d61ac:	b2db      	uxtb	r3, r3
   d61ae:	4621      	mov	r1, r4
   d61b0:	f804 3901 	strb.w	r3, [r4], #-1
   d61b4:	462b      	mov	r3, r5
  *str = '\0';

  // prevent crash if called with base == 1
  if (base < 2) base = 10;

  do {
   d61b6:	2d00      	cmp	r5, #0
   d61b8:	d1ee      	bne.n	d6198 <_ZN5Print11printNumberEmh+0x16>
   n /= base;
   char c = m - base * n;
   *--str = c < 10 ? c + '0' : c + 'A' - 10;
  } while(n);

  return write(str);
   d61ba:	f7ff ffb9 	bl	d6130 <_ZN5Print5writeEPKc>
}
   d61be:	b00b      	add	sp, #44	; 0x2c
   d61c0:	bd30      	pop	{r4, r5, pc}

000d61c2 <_ZN5Print11printf_implEbPKcz>:

  return n;
}

size_t Print::printf_impl(bool newline, const char* format, ...)
{
   d61c2:	b40c      	push	{r2, r3}
   d61c4:	e92d 43f0 	stmdb	sp!, {r4, r5, r6, r7, r8, r9, lr}
   d61c8:	b087      	sub	sp, #28
   d61ca:	af00      	add	r7, sp, #0
   d61cc:	f107 0438 	add.w	r4, r7, #56	; 0x38
   d61d0:	4605      	mov	r5, r0
   d61d2:	f854 9b04 	ldr.w	r9, [r4], #4
    const int bufsize = 20;
    char test[bufsize];
    va_list marker;
    va_start(marker, format);
   d61d6:	603c      	str	r4, [r7, #0]

  return n;
}

size_t Print::printf_impl(bool newline, const char* format, ...)
{
   d61d8:	460e      	mov	r6, r1
    const int bufsize = 20;
    char test[bufsize];
    va_list marker;
    va_start(marker, format);
    size_t n = vsnprintf(test, bufsize, format, marker);
   d61da:	4623      	mov	r3, r4
   d61dc:	464a      	mov	r2, r9
   d61de:	2114      	movs	r1, #20
   d61e0:	1d38      	adds	r0, r7, #4
   d61e2:	f7ff fe17 	bl	d5e14 <vsnprintf>
    va_end(marker);

    if (n<bufsize)
   d61e6:	2813      	cmp	r0, #19
   d61e8:	d805      	bhi.n	d61f6 <_ZN5Print11printf_implEbPKcz+0x34>
  return n;
}

size_t Print::print(const char str[])
{
  return write(str);
   d61ea:	1d39      	adds	r1, r7, #4
   d61ec:	4628      	mov	r0, r5
   d61ee:	f7ff ff9f 	bl	d6130 <_ZN5Print5writeEPKc>
   d61f2:	4604      	mov	r4, r0
   d61f4:	e013      	b.n	d621e <_ZN5Print11printf_implEbPKcz+0x5c>
    {
        n = print(test);
    }
    else
    {
        char bigger[n+1];
   d61f6:	f100 0308 	add.w	r3, r0, #8
   d61fa:	f023 0307 	bic.w	r3, r3, #7
        va_start(marker, format);
        n = vsnprintf(bigger, n+1, format, marker);
        va_end(marker);
        n = print(bigger);
   d61fe:	46e8      	mov	r8, sp
    {
        n = print(test);
    }
    else
    {
        char bigger[n+1];
   d6200:	ebad 0d03 	sub.w	sp, sp, r3
        va_start(marker, format);
        n = vsnprintf(bigger, n+1, format, marker);
   d6204:	1c41      	adds	r1, r0, #1
   d6206:	4623      	mov	r3, r4
   d6208:	464a      	mov	r2, r9
   d620a:	4668      	mov	r0, sp
        n = print(test);
    }
    else
    {
        char bigger[n+1];
        va_start(marker, format);
   d620c:	603c      	str	r4, [r7, #0]
        n = vsnprintf(bigger, n+1, format, marker);
   d620e:	f7ff fe01 	bl	d5e14 <vsnprintf>
  return n;
}

size_t Print::print(const char str[])
{
  return write(str);
   d6212:	4669      	mov	r1, sp
   d6214:	4628      	mov	r0, r5
   d6216:	f7ff ff8b 	bl	d6130 <_ZN5Print5writeEPKc>
   d621a:	4604      	mov	r4, r0
   d621c:	46c5      	mov	sp, r8
        va_start(marker, format);
        n = vsnprintf(bigger, n+1, format, marker);
        va_end(marker);
        n = print(bigger);
    }
    if (newline)
   d621e:	b11e      	cbz	r6, d6228 <_ZN5Print11printf_implEbPKcz+0x66>
        n += println();
   d6220:	4628      	mov	r0, r5
   d6222:	f7ff ff98 	bl	d6156 <_ZN5Print7printlnEv>
   d6226:	4404      	add	r4, r0
    return n;
}
   d6228:	4620      	mov	r0, r4
   d622a:	371c      	adds	r7, #28
   d622c:	46bd      	mov	sp, r7
   d622e:	e8bd 43f0 	ldmia.w	sp!, {r4, r5, r6, r7, r8, r9, lr}
   d6232:	b002      	add	sp, #8
   d6234:	4770      	bx	lr
	...

000d6238 <_GLOBAL__sub_I__ZN5spark3LogE>:
    // This handler doesn't support direct logging
}

// spark::Logger
inline spark::Logger::Logger(const char *name) :
        name_(name) {
   d6238:	4b01      	ldr	r3, [pc, #4]	; (d6240 <_GLOBAL__sub_I__ZN5spark3LogE+0x8>)
   d623a:	4a02      	ldr	r2, [pc, #8]	; (d6244 <_GLOBAL__sub_I__ZN5spark3LogE+0xc>)
   d623c:	601a      	str	r2, [r3, #0]
   d623e:	4770      	bx	lr
   d6240:	2003e3cc 	.word	0x2003e3cc
   d6244:	000d87db 	.word	0x000d87db

000d6248 <_GLOBAL__sub_I_TIME_FORMAT_DEFAULT>:
            calendar_time_cache = Convert_UnixTime_To_CalendarTime(unix_time);
            unix_time_cache = unix_time;
    }
}

const char* TimeClass::format_spec = TIME_FORMAT_DEFAULT;
   d6248:	4b02      	ldr	r3, [pc, #8]	; (d6254 <_GLOBAL__sub_I_TIME_FORMAT_DEFAULT+0xc>)
   d624a:	681a      	ldr	r2, [r3, #0]
   d624c:	4b02      	ldr	r3, [pc, #8]	; (d6258 <_GLOBAL__sub_I_TIME_FORMAT_DEFAULT+0x10>)
   d624e:	601a      	str	r2, [r3, #0]
   d6250:	4770      	bx	lr
   d6252:	bf00      	nop
   d6254:	2003e22c 	.word	0x2003e22c
   d6258:	2003e3d0 	.word	0x2003e3d0

000d625c <delay>:
    return (value - fromStart) * (toEnd - toStart) / (fromEnd - fromStart) + toStart;
}

void delay(unsigned long ms)
{
    system_delay_ms(ms, false);
   d625c:	2100      	movs	r1, #0
   d625e:	f7ff bd2d 	b.w	d5cbc <system_delay_ms>

000d6262 <_ZNSt14_Function_baseD1Ev>:
	}
      };

    _Function_base() : _M_manager(nullptr) { }

    ~_Function_base()
   d6262:	b510      	push	{r4, lr}
    {
      if (_M_manager)
   d6264:	6883      	ldr	r3, [r0, #8]
	}
      };

    _Function_base() : _M_manager(nullptr) { }

    ~_Function_base()
   d6266:	4604      	mov	r4, r0
    {
      if (_M_manager)
   d6268:	b113      	cbz	r3, d6270 <_ZNSt14_Function_baseD1Ev+0xe>
	_M_manager(_M_functor, _M_functor, __destroy_functor);
   d626a:	2203      	movs	r2, #3
   d626c:	4601      	mov	r1, r0
   d626e:	4798      	blx	r3
    }
   d6270:	4620      	mov	r0, r4
   d6272:	bd10      	pop	{r4, pc}

000d6274 <_ZN8RGBClassD1Ev>:
#include "rgbled.h"

typedef void (raw_rgb_change_handler_t)(uint8_t, uint8_t, uint8_t);
typedef std::function<raw_rgb_change_handler_t> wiring_rgb_change_handler_t;

class RGBClass {
   d6274:	b510      	push	{r4, lr}
   d6276:	4604      	mov	r4, r0
   *  @ingroup functors
   *
   *  Polymorphic function wrapper.
   */
  template<typename _Res, typename... _ArgTypes>
    class function<_Res(_ArgTypes...)>
   d6278:	f7ff fff3 	bl	d6262 <_ZNSt14_Function_baseD1Ev>
   d627c:	4620      	mov	r0, r4
   d627e:	bd10      	pop	{r4, pc}

000d6280 <_ZSt4swapISt9_Any_dataEvRT_S2_>:
   *  @param  __b  Another thing of arbitrary type.
   *  @return   Nothing.
  */
  template<typename _Tp>
    inline void
    swap(_Tp& __a, _Tp& __b)
   d6280:	b513      	push	{r0, r1, r4, lr}
   d6282:	460b      	mov	r3, r1
   d6284:	4604      	mov	r4, r0
#endif
    {
      // concept requirements
      __glibcxx_function_requires(_SGIAssignableConcept<_Tp>)

      _Tp __tmp = _GLIBCXX_MOVE(__a);
   d6286:	c803      	ldmia	r0, {r0, r1}
   d6288:	e88d 0003 	stmia.w	sp, {r0, r1}
      __a = _GLIBCXX_MOVE(__b);
   d628c:	e893 0003 	ldmia.w	r3, {r0, r1}
   d6290:	e884 0003 	stmia.w	r4, {r0, r1}
      __b = _GLIBCXX_MOVE(__tmp);
   d6294:	e89d 0003 	ldmia.w	sp, {r0, r1}
   d6298:	e883 0003 	stmia.w	r3, {r0, r1}
    }
   d629c:	b002      	add	sp, #8
   d629e:	bd10      	pop	{r4, pc}

000d62a0 <_GLOBAL__sub_I_RGB>:
	{
	  _Base::_M_init_functor(__functor, std::__addressof(__f.get()));
	}
      };

    _Function_base() : _M_manager(nullptr) { }
   d62a0:	4803      	ldr	r0, [pc, #12]	; (d62b0 <_GLOBAL__sub_I_RGB+0x10>)
#include "spark_wiring_rgb.h"
#include "spark_wiring_interrupts.h"

#include "core_hal.h"

RGBClass RGB;
   d62a2:	4a04      	ldr	r2, [pc, #16]	; (d62b4 <_GLOBAL__sub_I_RGB+0x14>)
   d62a4:	4904      	ldr	r1, [pc, #16]	; (d62b8 <_GLOBAL__sub_I_RGB+0x18>)
   d62a6:	2300      	movs	r3, #0
   d62a8:	6083      	str	r3, [r0, #8]
   d62aa:	f000 bfd7 	b.w	d725c <__aeabi_atexit>
   d62ae:	bf00      	nop
   d62b0:	2003e3d4 	.word	0x2003e3d4
   d62b4:	2003e298 	.word	0x2003e298
   d62b8:	000d6275 	.word	0x000d6275

000d62bc <serialEventRun>:

/**
 * Provides background processing of serial data.
 */
void serialEventRun()
{
   d62bc:	b508      	push	{r3, lr}
    if (serialEvent && Serial.available()>0)
   d62be:	4b0c      	ldr	r3, [pc, #48]	; (d62f0 <serialEventRun+0x34>)
   d62c0:	b133      	cbz	r3, d62d0 <serialEventRun+0x14>
   d62c2:	f000 fc1b 	bl	d6afc <_Z16_fetch_usbserialv>
   d62c6:	6803      	ldr	r3, [r0, #0]
   d62c8:	691b      	ldr	r3, [r3, #16]
   d62ca:	4798      	blx	r3
   d62cc:	2800      	cmp	r0, #0
   d62ce:	dc09      	bgt.n	d62e4 <serialEventRun+0x28>
        serialEvent();

    if (serialEvent1 && Serial1.available()>0)
   d62d0:	4b08      	ldr	r3, [pc, #32]	; (d62f4 <serialEventRun+0x38>)
   d62d2:	b163      	cbz	r3, d62ee <serialEventRun+0x32>
   d62d4:	f000 fce6 	bl	d6ca4 <_Z22__fetch_global_Serial1v>
   d62d8:	6803      	ldr	r3, [r0, #0]
   d62da:	691b      	ldr	r3, [r3, #16]
   d62dc:	4798      	blx	r3
   d62de:	2800      	cmp	r0, #0
   d62e0:	dc03      	bgt.n	d62ea <serialEventRun+0x2e>
   d62e2:	bd08      	pop	{r3, pc}
 * Provides background processing of serial data.
 */
void serialEventRun()
{
    if (serialEvent && Serial.available()>0)
        serialEvent();
   d62e4:	f3af 8000 	nop.w
   d62e8:	e7f2      	b.n	d62d0 <serialEventRun+0x14>

    if (serialEvent1 && Serial1.available()>0)
        serialEvent1();
   d62ea:	f3af 8000 	nop.w
   d62ee:	bd08      	pop	{r3, pc}
	...

000d62f8 <_post_loop>:
#if Wiring_Serial5
void serialEvent5() __attribute__((weak));
#endif

void _post_loop()
{
   d62f8:	b508      	push	{r3, lr}
	serialEventRun();
   d62fa:	f7ff ffdf 	bl	d62bc <serialEventRun>
		return !timeout_fn;
	}

	static inline system_tick_t current_time()
	{
		return HAL_Timer_Get_Milli_Seconds();
   d62fe:	f7ff fbc5 	bl	d5a8c <HAL_Timer_Get_Milli_Seconds>
	/**
	 * Lifesign that the application is still working normally.
	 */
	static void checkin()
	{
		last_checkin = current_time();
   d6302:	4b01      	ldr	r3, [pc, #4]	; (d6308 <_post_loop+0x10>)
   d6304:	6018      	str	r0, [r3, #0]
   d6306:	bd08      	pop	{r3, pc}
   d6308:	2003e730 	.word	0x2003e730

000d630c <_Z33system_initialize_user_backup_ramv>:
 * the dynamically linked application module.
 */
void system_initialize_user_backup_ram()
{
    size_t len = &link_global_retained_end-&link_global_retained_start;
    memcpy(&link_global_retained_start, &link_global_retained_initial_values, len);
   d630c:	4802      	ldr	r0, [pc, #8]	; (d6318 <_Z33system_initialize_user_backup_ramv+0xc>)
   d630e:	4a03      	ldr	r2, [pc, #12]	; (d631c <_Z33system_initialize_user_backup_ramv+0x10>)
   d6310:	4903      	ldr	r1, [pc, #12]	; (d6320 <_Z33system_initialize_user_backup_ramv+0x14>)
   d6312:	1a12      	subs	r2, r2, r0
   d6314:	f001 bd3a 	b.w	d7d8c <memcpy>
   d6318:	2003f400 	.word	0x2003f400
   d631c:	2003f404 	.word	0x2003f404
   d6320:	000d8b70 	.word	0x000d8b70

000d6324 <_Z27ctrl_request_custom_handlerP12ctrl_request>:
bool __backup_ram_was_valid() { return false; }

#endif

// Default handler for CTRL_REQUEST_APP_CUSTOM requests
void __attribute((weak)) ctrl_request_custom_handler(ctrl_request* req) {
   d6324:	b507      	push	{r0, r1, r2, lr}
    system_ctrl_set_result(req, SYSTEM_ERROR_NOT_SUPPORTED, nullptr, nullptr, nullptr);
   d6326:	2300      	movs	r3, #0
   d6328:	9300      	str	r3, [sp, #0]
   d632a:	461a      	mov	r2, r3
   d632c:	f06f 0177 	mvn.w	r1, #119	; 0x77
   d6330:	f7ff fcee 	bl	d5d10 <system_ctrl_set_result>
}
   d6334:	b003      	add	sp, #12
   d6336:	f85d fb04 	ldr.w	pc, [sp], #4
	...

000d633c <_ZL20ctrl_request_handlerP12ctrl_request>:
// Callback invoked to process a logging configuration request
void(*log_process_ctrl_request_callback)(ctrl_request* req) = nullptr;
#endif

// Application handler for control requests
static void ctrl_request_handler(ctrl_request* req) {
   d633c:	b507      	push	{r0, r1, r2, lr}
    switch (req->type) {
   d633e:	8843      	ldrh	r3, [r0, #2]
   d6340:	2b0a      	cmp	r3, #10
   d6342:	d008      	beq.n	d6356 <_ZL20ctrl_request_handlerP12ctrl_request+0x1a>
   d6344:	2b50      	cmp	r3, #80	; 0x50
   d6346:	d109      	bne.n	d635c <_ZL20ctrl_request_handlerP12ctrl_request+0x20>
#if Wiring_LogConfig
    case CTRL_REQUEST_LOG_CONFIG: {
        if (log_process_ctrl_request_callback) {
   d6348:	4b09      	ldr	r3, [pc, #36]	; (d6370 <_ZL20ctrl_request_handlerP12ctrl_request+0x34>)
   d634a:	681b      	ldr	r3, [r3, #0]
   d634c:	b13b      	cbz	r3, d635e <_ZL20ctrl_request_handlerP12ctrl_request+0x22>
    }
    default:
        system_ctrl_set_result(req, SYSTEM_ERROR_NOT_SUPPORTED, nullptr, nullptr, nullptr);
        break;
    }
}
   d634e:	b003      	add	sp, #12
   d6350:	f85d eb04 	ldr.w	lr, [sp], #4
static void ctrl_request_handler(ctrl_request* req) {
    switch (req->type) {
#if Wiring_LogConfig
    case CTRL_REQUEST_LOG_CONFIG: {
        if (log_process_ctrl_request_callback) {
            log_process_ctrl_request_callback(req);
   d6354:	4718      	bx	r3
        }
        break;
    }
#endif
    case CTRL_REQUEST_APP_CUSTOM: {
        ctrl_request_custom_handler(req);
   d6356:	f7ff ffe5 	bl	d6324 <_Z27ctrl_request_custom_handlerP12ctrl_request>
        break;
   d635a:	e006      	b.n	d636a <_ZL20ctrl_request_handlerP12ctrl_request+0x2e>
    }
    default:
        system_ctrl_set_result(req, SYSTEM_ERROR_NOT_SUPPORTED, nullptr, nullptr, nullptr);
   d635c:	2300      	movs	r3, #0
   d635e:	9300      	str	r3, [sp, #0]
   d6360:	461a      	mov	r2, r3
   d6362:	f06f 0177 	mvn.w	r1, #119	; 0x77
   d6366:	f7ff fcd3 	bl	d5d10 <system_ctrl_set_result>
        break;
    }
}
   d636a:	b003      	add	sp, #12
   d636c:	f85d fb04 	ldr.w	pc, [sp], #4
   d6370:	2003e3e4 	.word	0x2003e3e4

000d6374 <module_user_init_hook>:

void module_user_init_hook()
{
   d6374:	b538      	push	{r3, r4, r5, lr}
#if HAL_PLATFORM_BACKUP_RAM
    backup_ram_was_valid_ =  __backup_sram_signature==signature;
   d6376:	4c10      	ldr	r4, [pc, #64]	; (d63b8 <module_user_init_hook+0x44>)
   d6378:	4d10      	ldr	r5, [pc, #64]	; (d63bc <module_user_init_hook+0x48>)
   d637a:	6823      	ldr	r3, [r4, #0]
   d637c:	42ab      	cmp	r3, r5
   d637e:	4b10      	ldr	r3, [pc, #64]	; (d63c0 <module_user_init_hook+0x4c>)
   d6380:	bf0c      	ite	eq
   d6382:	2201      	moveq	r2, #1
   d6384:	2200      	movne	r2, #0
   d6386:	701a      	strb	r2, [r3, #0]
    if (!backup_ram_was_valid_) {
   d6388:	d002      	beq.n	d6390 <module_user_init_hook+0x1c>
        system_initialize_user_backup_ram();
   d638a:	f7ff ffbf 	bl	d630c <_Z33system_initialize_user_backup_ramv>
        __backup_sram_signature = signature;
   d638e:	6025      	str	r5, [r4, #0]
    }
#endif

#if HAL_PLATFORM_RNG
    // Initialize the default stdlib PRNG using hardware RNG as a seed
    const uint32_t seed = HAL_RNG_GetRandomNumber();
   d6390:	f7ff fb6c 	bl	d5a6c <HAL_RNG_GetRandomNumber>
   d6394:	4604      	mov	r4, r0
    srand(seed);
   d6396:	f001 fd0d 	bl	d7db4 <srand>

    // If the user defines random_seed_from_cloud, call it with a seed value
    // generated by a hardware RNG as well.
    if (random_seed_from_cloud) {
   d639a:	4b0a      	ldr	r3, [pc, #40]	; (d63c4 <module_user_init_hook+0x50>)
   d639c:	b113      	cbz	r3, d63a4 <module_user_init_hook+0x30>
        random_seed_from_cloud(seed);
   d639e:	4620      	mov	r0, r4
   d63a0:	f3af 8000 	nop.w
    }
#endif
    // Register the random_seed_from_cloud handler
    spark_set_random_seed_from_cloud_handler(&random_seed_from_cloud, nullptr);
   d63a4:	2100      	movs	r1, #0
   d63a6:	4807      	ldr	r0, [pc, #28]	; (d63c4 <module_user_init_hook+0x50>)
   d63a8:	f7ff fd1c 	bl	d5de4 <spark_set_random_seed_from_cloud_handler>

    // Register application handler for the control requests
    system_ctrl_set_app_request_handler(ctrl_request_handler, nullptr);
   d63ac:	2100      	movs	r1, #0
   d63ae:	4806      	ldr	r0, [pc, #24]	; (d63c8 <module_user_init_hook+0x54>)
}
   d63b0:	e8bd 4038 	ldmia.w	sp!, {r3, r4, r5, lr}
#endif
    // Register the random_seed_from_cloud handler
    spark_set_random_seed_from_cloud_handler(&random_seed_from_cloud, nullptr);

    // Register application handler for the control requests
    system_ctrl_set_app_request_handler(ctrl_request_handler, nullptr);
   d63b4:	f7ff bca2 	b.w	d5cfc <system_ctrl_set_app_request_handler>
   d63b8:	2003f400 	.word	0x2003f400
   d63bc:	9a271c1e 	.word	0x9a271c1e
   d63c0:	2003e3e8 	.word	0x2003e3e8
   d63c4:	00000000 	.word	0x00000000
   d63c8:	000d633d 	.word	0x000d633d

000d63cc <_ZNSt15_Sp_counted_ptrIPN8particle6detail10FutureImplIbNS1_13FutureContextEEELN9__gnu_cxx12_Lock_policyE0EED1Ev>:
    class __shared_count;


  // Counted ptr with no deleter or allocator support
  template<typename _Ptr, _Lock_policy _Lp>
    class _Sp_counted_ptr final : public _Sp_counted_base<_Lp>
   d63cc:	4770      	bx	lr

000d63ce <_ZNSt15_Sp_counted_ptrIPN8particle6detail10FutureImplIbNS1_13FutureContextEEELN9__gnu_cxx12_Lock_policyE0EE14_M_get_deleterERKSt9type_info>:
      _M_destroy() noexcept
      { delete this; }

      virtual void*
      _M_get_deleter(const std::type_info&) noexcept
      { return nullptr; }
   d63ce:	2000      	movs	r0, #0
   d63d0:	4770      	bx	lr

000d63d2 <_ZNSt15_Sp_counted_ptrIPN8particle6detail10FutureImplIbNS1_13FutureContextEEELN9__gnu_cxx12_Lock_policyE0EED0Ev>:
    class __shared_count;


  // Counted ptr with no deleter or allocator support
  template<typename _Ptr, _Lock_policy _Lp>
    class _Sp_counted_ptr final : public _Sp_counted_base<_Lp>
   d63d2:	b510      	push	{r4, lr}
   d63d4:	2110      	movs	r1, #16
   d63d6:	4604      	mov	r4, r0
   d63d8:	f000 ff4e 	bl	d7278 <_ZdlPvj>
   d63dc:	4620      	mov	r0, r4
   d63de:	bd10      	pop	{r4, pc}

000d63e0 <_ZNSt15_Sp_counted_ptrIPN8particle6detail10FutureImplIbNS1_13FutureContextEEELN9__gnu_cxx12_Lock_policyE0EE10_M_destroyEv>:
      virtual void
      _M_dispose() noexcept
      { delete _M_ptr; }

      virtual void
      _M_destroy() noexcept
   d63e0:	b508      	push	{r3, lr}
      { delete this; }
   d63e2:	b108      	cbz	r0, d63e8 <_ZNSt15_Sp_counted_ptrIPN8particle6detail10FutureImplIbNS1_13FutureContextEEELN9__gnu_cxx12_Lock_policyE0EE10_M_destroyEv+0x8>
   d63e4:	f7ff fff5 	bl	d63d2 <_ZNSt15_Sp_counted_ptrIPN8particle6detail10FutureImplIbNS1_13FutureContextEEELN9__gnu_cxx12_Lock_policyE0EED0Ev>
   d63e8:	bd08      	pop	{r3, pc}

000d63ea <_ZN8particle5ErrorC1EOS0_>:

} // namespace particle

inline particle::Error::Error(Type type) :
        msg_(nullptr),
        type_(type) {
   d63ea:	2200      	movs	r2, #0
   d63ec:	6002      	str	r2, [r0, #0]

inline particle::Error::Error(const Error& error) :
        Error(error.type_, error.msg_) {
}

inline particle::Error::Error(Error&& error) :
   d63ee:	b510      	push	{r4, lr}

} // namespace particle

inline particle::Error::Error(Type type) :
        msg_(nullptr),
        type_(type) {
   d63f0:	f64f 729c 	movw	r2, #65436	; 0xff9c
   d63f4:	8082      	strh	r2, [r0, #4]
    {
      // concept requirements
      __glibcxx_function_requires(_SGIAssignableConcept<_Tp>)

      _Tp __tmp = _GLIBCXX_MOVE(__a);
      __a = _GLIBCXX_MOVE(__b);
   d63f6:	f9b1 4004 	ldrsh.w	r4, [r1, #4]
   d63fa:	8084      	strh	r4, [r0, #4]
      __b = _GLIBCXX_MOVE(__tmp);
   d63fc:	808a      	strh	r2, [r1, #4]
#endif
    {
      // concept requirements
      __glibcxx_function_requires(_SGIAssignableConcept<_Tp>)

      _Tp __tmp = _GLIBCXX_MOVE(__a);
   d63fe:	6802      	ldr	r2, [r0, #0]
      __a = _GLIBCXX_MOVE(__b);
   d6400:	680c      	ldr	r4, [r1, #0]
   d6402:	6004      	str	r4, [r0, #0]
      __b = _GLIBCXX_MOVE(__tmp);
   d6404:	600a      	str	r2, [r1, #0]
}

inline particle::Error::Error(Error&& error) :
        Error() {
    swap(*this, error);
}
   d6406:	bd10      	pop	{r4, pc}

000d6408 <_ZN8particle5ErrorD1Ev>:

inline particle::Error::~Error() {
   d6408:	b510      	push	{r4, lr}
   d640a:	4604      	mov	r4, r0
    free((void*)msg_);
   d640c:	6800      	ldr	r0, [r0, #0]
   d640e:	f7ff fcf9 	bl	d5e04 <free>
}
   d6412:	4620      	mov	r0, r4
   d6414:	bd10      	pop	{r4, pc}

000d6416 <_ZNSt15_Sp_counted_ptrIPN8particle6detail10FutureImplIbNS1_13FutureContextEEELN9__gnu_cxx12_Lock_policyE0EE10_M_disposeEv>:
      explicit
      _Sp_counted_ptr(_Ptr __p) noexcept
      : _M_ptr(__p) { }

      virtual void
      _M_dispose() noexcept
   d6416:	b538      	push	{r3, r4, r5, lr}
      { delete _M_ptr; }
   d6418:	68c4      	ldr	r4, [r0, #12]
   d641a:	b1f4      	cbz	r4, d645a <_ZNSt15_Sp_counted_ptrIPN8particle6detail10FutureImplIbNS1_13FutureContextEEELN9__gnu_cxx12_Lock_policyE0EE10_M_disposeEv+0x44>

      _Tp
      load(memory_order __m = memory_order_seq_cst) const noexcept
      { 
        _Tp tmp;
	__atomic_load(&_M_i, &tmp, __m);
   d641c:	7823      	ldrb	r3, [r4, #0]
    ~FutureImpl() {
        // Call destructor of the appropriate unnamed enum's field
        const State s = this->state();
        if (s == State::SUCCEEDED) {
            result_.~ResultT();
        } else if (s == State::FAILED) {
   d641e:	2b02      	cmp	r3, #2
   d6420:	d103      	bne.n	d642a <_ZNSt15_Sp_counted_ptrIPN8particle6detail10FutureImplIbNS1_13FutureContextEEELN9__gnu_cxx12_Lock_policyE0EE10_M_disposeEv+0x14>
            error_.~Error();
   d6422:	f104 000c 	add.w	r0, r4, #12
   d6426:	f7ff ffef 	bl	d6408 <_ZN8particle5ErrorD1Ev>
      {
        memory_order __b = __m & __memory_order_mask;
	__glibcxx_assert(__b != memory_order_release);
	__glibcxx_assert(__b != memory_order_acq_rel);

	return __atomic_load_n(&_M_p, __m);
   d642a:	6865      	ldr	r5, [r4, #4]
    // Completion callback types
    typedef typename detail::FutureCallbackTypes<ResultT>::OnSuccess OnSuccessCallback;
    typedef typename detail::FutureCallbackTypes<ResultT>::OnError OnErrorCallback;

    ~FutureImplBase() {
        delete onSuccess_.load(std::memory_order_relaxed);
   d642c:	b135      	cbz	r5, d643c <_ZNSt15_Sp_counted_ptrIPN8particle6detail10FutureImplIbNS1_13FutureContextEEELN9__gnu_cxx12_Lock_policyE0EE10_M_disposeEv+0x26>
   *  @ingroup functors
   *
   *  Polymorphic function wrapper.
   */
  template<typename _Res, typename... _ArgTypes>
    class function<_Res(_ArgTypes...)>
   d642e:	4628      	mov	r0, r5
   d6430:	f7ff ff17 	bl	d6262 <_ZNSt14_Function_baseD1Ev>
   d6434:	2110      	movs	r1, #16
   d6436:	4628      	mov	r0, r5
   d6438:	f000 ff1e 	bl	d7278 <_ZdlPvj>
   d643c:	68a5      	ldr	r5, [r4, #8]
        delete onError_.load(std::memory_order_relaxed);
   d643e:	b135      	cbz	r5, d644e <_ZNSt15_Sp_counted_ptrIPN8particle6detail10FutureImplIbNS1_13FutureContextEEELN9__gnu_cxx12_Lock_policyE0EE10_M_disposeEv+0x38>
   d6440:	4628      	mov	r0, r5
   d6442:	f7ff ff0e 	bl	d6262 <_ZNSt14_Function_baseD1Ev>
   d6446:	2110      	movs	r1, #16
   d6448:	4628      	mov	r0, r5
   d644a:	f000 ff15 	bl	d7278 <_ZdlPvj>
   d644e:	4620      	mov	r0, r4
   d6450:	2114      	movs	r1, #20
   d6452:	e8bd 4038 	ldmia.w	sp!, {r3, r4, r5, lr}
   d6456:	f000 bf0f 	b.w	d7278 <_ZdlPvj>
   d645a:	bd38      	pop	{r3, r4, r5, pc}

000d645c <_ZN8particle6FutureIbNS_6detail13FutureContextEEC1ESt10shared_ptrINS1_10FutureImplIbS2_EEE>:
};

template<typename ResultT, typename ContextT = detail::FutureContext>
class Future: public FutureBase<ResultT, ContextT> {
public:
    using FutureBase<ResultT, ContextT>::FutureBase;
   d645c:	b513      	push	{r0, r1, r4, lr}
   d645e:	4604      	mov	r4, r0
      }

      void
      _M_swap(__shared_count& __r) noexcept
      {
	_Sp_counted_base<_Lp>* __tmp = __r._M_pi;
   d6460:	e891 0005 	ldmia.w	r1, {r0, r2}
	__r._M_pi = _M_pi;
   d6464:	2300      	movs	r3, #0
   d6466:	604b      	str	r3, [r1, #4]

      __shared_ptr(__shared_ptr&& __r) noexcept
      : _M_ptr(__r._M_ptr), _M_refcount()
      {
	_M_refcount._M_swap(__r._M_refcount);
	__r._M_ptr = 0;
   d6468:	600b      	str	r3, [r1, #0]
	__shared_ptr(const __shared_ptr<_Tp1, _Lp>& __r) noexcept
	: _M_ptr(__r._M_ptr), _M_refcount(__r._M_refcount)
	{ }

      __shared_ptr(__shared_ptr&& __r) noexcept
      : _M_ptr(__r._M_ptr), _M_refcount()
   d646a:	6020      	str	r0, [r4, #0]
      void
      _M_swap(__shared_count& __r) noexcept
      {
	_Sp_counted_base<_Lp>* __tmp = __r._M_pi;
	__r._M_pi = _M_pi;
	_M_pi = __tmp;
   d646c:	6062      	str	r2, [r4, #4]
	: _M_ptr(__p), _M_refcount(__r._M_refcount) // never throws
	{ }

      __shared_ptr(const __shared_ptr&) noexcept = default;
      __shared_ptr& operator=(const __shared_ptr&) noexcept = default;
      ~__shared_ptr() = default;
   d646e:	a801      	add	r0, sp, #4

      void
      _M_swap(__shared_count& __r) noexcept
      {
	_Sp_counted_base<_Lp>* __tmp = __r._M_pi;
	__r._M_pi = _M_pi;
   d6470:	9301      	str	r3, [sp, #4]

      __shared_ptr(__shared_ptr&& __r) noexcept
      : _M_ptr(__r._M_ptr), _M_refcount()
      {
	_M_refcount._M_swap(__r._M_refcount);
	__r._M_ptr = 0;
   d6472:	9300      	str	r3, [sp, #0]
	: _M_ptr(__p), _M_refcount(__r._M_refcount) // never throws
	{ }

      __shared_ptr(const __shared_ptr&) noexcept = default;
      __shared_ptr& operator=(const __shared_ptr&) noexcept = default;
      ~__shared_ptr() = default;
   d6474:	f7ff fe25 	bl	d60c2 <_ZNSt14__shared_countILN9__gnu_cxx12_Lock_policyE0EED1Ev>
   d6478:	4620      	mov	r0, r4
   d647a:	b002      	add	sp, #8
   d647c:	bd10      	pop	{r4, pc}

000d647e <_ZN8particle11PromiseBaseIbNS_6detail13FutureContextEE11fromDataPtrEPv>:
        // TODO: Use custom reference counting object to avoid unnecessary memory allocation
        return new detail::FutureImplPtr<ResultT, ContextT>(p_);
    }

    // Unwraps promise from an object pointer created via dataPtr() method
    static Promise<ResultT, ContextT> fromDataPtr(void* data) {
   d647e:	b5f7      	push	{r0, r1, r2, r4, r5, r6, r7, lr}
      template<typename _Tp1>
	__shared_ptr(const __shared_ptr<_Tp1, _Lp>& __r, _Tp* __p) noexcept
	: _M_ptr(__p), _M_refcount(__r._M_refcount) // never throws
	{ }

      __shared_ptr(const __shared_ptr&) noexcept = default;
   d6480:	460c      	mov	r4, r1
   d6482:	ad02      	add	r5, sp, #8
   d6484:	f854 3b04 	ldr.w	r3, [r4], #4
   d6488:	f845 3d08 	str.w	r3, [r5, #-8]!
   d648c:	4606      	mov	r6, r0
   d648e:	460f      	mov	r7, r1
   d6490:	a801      	add	r0, sp, #4
   d6492:	4621      	mov	r1, r4
   d6494:	f7ff fe0e 	bl	d60b4 <_ZNSt14__shared_countILN9__gnu_cxx12_Lock_policyE0EEC1ERKS2_>
        auto d = static_cast<detail::FutureImplPtr<ResultT, ContextT>*>(data);
        const Promise<ResultT, ContextT> p(*d);
   d6498:	4629      	mov	r1, r5
   d649a:	4630      	mov	r0, r6
   d649c:	f7ff ffde 	bl	d645c <_ZN8particle6FutureIbNS_6detail13FutureContextEEC1ESt10shared_ptrINS1_10FutureImplIbS2_EEE>
      __shared_ptr& operator=(const __shared_ptr&) noexcept = default;
      ~__shared_ptr() = default;
   d64a0:	a801      	add	r0, sp, #4
   d64a2:	f7ff fe0e 	bl	d60c2 <_ZNSt14__shared_countILN9__gnu_cxx12_Lock_policyE0EED1Ev>
   d64a6:	4620      	mov	r0, r4
   d64a8:	f7ff fe0b 	bl	d60c2 <_ZNSt14__shared_countILN9__gnu_cxx12_Lock_policyE0EED1Ev>
        delete d;
   d64ac:	4638      	mov	r0, r7
   d64ae:	2108      	movs	r1, #8
   d64b0:	f000 fee2 	bl	d7278 <_ZdlPvj>
        return p;
    }
   d64b4:	4630      	mov	r0, r6
   d64b6:	b003      	add	sp, #12
   d64b8:	bdf0      	pop	{r4, r5, r6, r7, pc}
	...

000d64bc <_ZNSt14__shared_countILN9__gnu_cxx12_Lock_policyE0EEC1IPN8particle6detail10FutureImplIbNS5_13FutureContextEEEEET_>:
      constexpr __shared_count() noexcept : _M_pi(0)
      { }

      template<typename _Ptr>
        explicit
	__shared_count(_Ptr __p) : _M_pi(0)
   d64bc:	b538      	push	{r3, r4, r5, lr}
   d64be:	2300      	movs	r3, #0
   d64c0:	4604      	mov	r4, r0
   d64c2:	6003      	str	r3, [r0, #0]
	{
	  __try
	    {
	      _M_pi = new _Sp_counted_ptr<_Ptr, _Lp>(__p);
   d64c4:	2010      	movs	r0, #16
      constexpr __shared_count() noexcept : _M_pi(0)
      { }

      template<typename _Ptr>
        explicit
	__shared_count(_Ptr __p) : _M_pi(0)
   d64c6:	460d      	mov	r5, r1
	{
	  __try
	    {
	      _M_pi = new _Sp_counted_ptr<_Ptr, _Lp>(__p);
   d64c8:	f7fd fde7 	bl	d409a <_Znwj>
   d64cc:	b128      	cbz	r0, d64da <_ZNSt14__shared_countILN9__gnu_cxx12_Lock_policyE0EEC1IPN8particle6detail10FutureImplIbNS5_13FutureContextEEEEET_+0x1e>
    class _Sp_counted_base
    : public _Mutex_base<_Lp>
    {
    public:  
      _Sp_counted_base() noexcept
      : _M_use_count(1), _M_weak_count(1) { }
   d64ce:	2301      	movs	r3, #1
   d64d0:	6043      	str	r3, [r0, #4]
   d64d2:	6083      	str	r3, [r0, #8]
    class _Sp_counted_ptr final : public _Sp_counted_base<_Lp>
    {
    public:
      explicit
      _Sp_counted_ptr(_Ptr __p) noexcept
      : _M_ptr(__p) { }
   d64d4:	4b02      	ldr	r3, [pc, #8]	; (d64e0 <_ZNSt14__shared_countILN9__gnu_cxx12_Lock_policyE0EEC1IPN8particle6detail10FutureImplIbNS5_13FutureContextEEEEET_+0x24>)
   d64d6:	6003      	str	r3, [r0, #0]
   d64d8:	60c5      	str	r5, [r0, #12]
        explicit
	__shared_count(_Ptr __p) : _M_pi(0)
	{
	  __try
	    {
	      _M_pi = new _Sp_counted_ptr<_Ptr, _Lp>(__p);
   d64da:	6020      	str	r0, [r4, #0]
	  __catch(...)
	    {
	      delete __p;
	      __throw_exception_again;
	    }
	}
   d64dc:	4620      	mov	r0, r4
   d64de:	bd38      	pop	{r3, r4, r5, pc}
   d64e0:	000d8878 	.word	0x000d8878

000d64e4 <_ZNKSt8functionIFvRKN8particle5ErrorEEEclES3_>:
  template<typename _Res, typename... _ArgTypes>
    _Res
    function<_Res(_ArgTypes...)>::
    operator()(_ArgTypes... __args) const
    {
      if (_M_empty())
   d64e4:	6882      	ldr	r2, [r0, #8]
	  }
      }

  template<typename _Res, typename... _ArgTypes>
    _Res
    function<_Res(_ArgTypes...)>::
   d64e6:	b510      	push	{r4, lr}
    operator()(_ArgTypes... __args) const
    {
      if (_M_empty())
   d64e8:	b90a      	cbnz	r2, d64ee <_ZNKSt8functionIFvRKN8particle5ErrorEEEclES3_+0xa>
	__throw_bad_function_call();
   d64ea:	f000 fed8 	bl	d729e <_ZSt25__throw_bad_function_callv>
      return _M_invoker(_M_functor, std::forward<_ArgTypes>(__args)...);
   d64ee:	68c3      	ldr	r3, [r0, #12]
    }
   d64f0:	e8bd 4010 	ldmia.w	sp!, {r4, lr}
    function<_Res(_ArgTypes...)>::
    operator()(_ArgTypes... __args) const
    {
      if (_M_empty())
	__throw_bad_function_call();
      return _M_invoker(_M_functor, std::forward<_ArgTypes>(__args)...);
   d64f4:	4718      	bx	r3

000d64f6 <_ZNSt17_Function_handlerIFvvESt5_BindIFSt8functionIFvRKN8particle5ErrorEEES4_EEE9_M_invokeERKSt9_Any_data>:
    {
      typedef _Function_base::_Base_manager<_Functor> _Base;

     public:
      static void
      _M_invoke(const _Any_data& __functor, _ArgTypes&&... __args)
   d64f6:	b508      	push	{r3, lr}
	static _Functor*
	_M_get_pointer(const _Any_data& __source)
	{
	  const _Functor* __ptr =
	    __stored_locally? std::__addressof(__source._M_access<_Functor>())
	    /* have stored a pointer */ : __source._M_access<_Functor*>();
   d64f8:	6800      	ldr	r0, [r0, #0]
      template<typename _Result, typename... _Args, std::size_t... _Indexes>
	_Result
	__call(tuple<_Args...>&& __args, _Index_tuple<_Indexes...>)
	{
	  return _M_f(_Mu<_Bound_args>()
		      (std::get<_Indexes>(_M_bound_args), __args)...);
   d64fa:	f100 0110 	add.w	r1, r0, #16
   d64fe:	f7ff fff1 	bl	d64e4 <_ZNKSt8functionIFvRKN8particle5ErrorEEEclES3_>
   d6502:	bd08      	pop	{r3, pc}

000d6504 <_ZNKSt8functionIFvRKbEEclES1_>:
  template<typename _Res, typename... _ArgTypes>
    _Res
    function<_Res(_ArgTypes...)>::
    operator()(_ArgTypes... __args) const
    {
      if (_M_empty())
   d6504:	6882      	ldr	r2, [r0, #8]
	  }
      }

  template<typename _Res, typename... _ArgTypes>
    _Res
    function<_Res(_ArgTypes...)>::
   d6506:	b510      	push	{r4, lr}
    operator()(_ArgTypes... __args) const
    {
      if (_M_empty())
   d6508:	b90a      	cbnz	r2, d650e <_ZNKSt8functionIFvRKbEEclES1_+0xa>
	__throw_bad_function_call();
   d650a:	f000 fec8 	bl	d729e <_ZSt25__throw_bad_function_callv>
      return _M_invoker(_M_functor, std::forward<_ArgTypes>(__args)...);
   d650e:	68c3      	ldr	r3, [r0, #12]
    }
   d6510:	e8bd 4010 	ldmia.w	sp!, {r4, lr}
    function<_Res(_ArgTypes...)>::
    operator()(_ArgTypes... __args) const
    {
      if (_M_empty())
	__throw_bad_function_call();
      return _M_invoker(_M_functor, std::forward<_ArgTypes>(__args)...);
   d6514:	4718      	bx	r3

000d6516 <_ZNSt17_Function_handlerIFvvESt5_BindIFSt8functionIFvRKbEEbEEE9_M_invokeERKSt9_Any_data>:
    {
      typedef _Function_base::_Base_manager<_Functor> _Base;

     public:
      static void
      _M_invoke(const _Any_data& __functor, _ArgTypes&&... __args)
   d6516:	b508      	push	{r3, lr}
	static _Functor*
	_M_get_pointer(const _Any_data& __source)
	{
	  const _Functor* __ptr =
	    __stored_locally? std::__addressof(__source._M_access<_Functor>())
	    /* have stored a pointer */ : __source._M_access<_Functor*>();
   d6518:	6800      	ldr	r0, [r0, #0]
      template<typename _Result, typename... _Args, std::size_t... _Indexes>
	_Result
	__call(tuple<_Args...>&& __args, _Index_tuple<_Indexes...>)
	{
	  return _M_f(_Mu<_Bound_args>()
		      (std::get<_Indexes>(_M_bound_args), __args)...);
   d651a:	f100 0110 	add.w	r1, r0, #16
   d651e:	f7ff fff1 	bl	d6504 <_ZNKSt8functionIFvRKbEEclES1_>
   d6522:	bd08      	pop	{r3, pc}

000d6524 <_ZNSt8functionIFvRKN8particle5ErrorEEEC1ERKS5_>:
      _Invoker_type _M_invoker;
  };

  // Out-of-line member definitions.
  template<typename _Res, typename... _ArgTypes>
    function<_Res(_ArgTypes...)>::
   d6524:	b538      	push	{r3, r4, r5, lr}
	{
	  _Base::_M_init_functor(__functor, std::__addressof(__f.get()));
	}
      };

    _Function_base() : _M_manager(nullptr) { }
   d6526:	2300      	movs	r3, #0
   d6528:	6083      	str	r3, [r0, #8]
   d652a:	688b      	ldr	r3, [r1, #8]
      _Invoker_type _M_invoker;
  };

  // Out-of-line member definitions.
  template<typename _Res, typename... _ArgTypes>
    function<_Res(_ArgTypes...)>::
   d652c:	4604      	mov	r4, r0
   d652e:	460d      	mov	r5, r1
    function(const function& __x)
    : _Function_base()
    {
      if (static_cast<bool>(__x))
   d6530:	b12b      	cbz	r3, d653e <_ZNSt8functionIFvRKN8particle5ErrorEEEC1ERKS5_+0x1a>
	{
	  __x._M_manager(_M_functor, __x._M_functor, __clone_functor);
   d6532:	2202      	movs	r2, #2
   d6534:	4798      	blx	r3
	  _M_invoker = __x._M_invoker;
   d6536:	68eb      	ldr	r3, [r5, #12]
   d6538:	60e3      	str	r3, [r4, #12]
	  _M_manager = __x._M_manager;
   d653a:	68ab      	ldr	r3, [r5, #8]
   d653c:	60a3      	str	r3, [r4, #8]
	}
    }
   d653e:	4620      	mov	r0, r4
   d6540:	bd38      	pop	{r3, r4, r5, pc}
	...

000d6544 <_ZN8particle11PromiseBaseIbNS_6detail13FutureContextEE8setErrorENS_5ErrorE>:

    explicit PromiseBase(detail::FutureImplPtr<ResultT, ContextT> ptr) :
            p_(std::move(ptr)) {
    }

    void setError(Error error) {
   d6544:	b5f0      	push	{r4, r5, r6, r7, lr}
   d6546:	b089      	sub	sp, #36	; 0x24
   d6548:	6804      	ldr	r4, [r0, #0]
        p_->setError(std::move(error));
   d654a:	4668      	mov	r0, sp
   d654c:	f7ff ff4d 	bl	d63ea <_ZN8particle5ErrorC1EOS0_>
            onSuccess_(nullptr),
            onError_(nullptr) {
    }

    bool changeState(State state) {
        State s = State::RUNNING; // Expected state
   d6550:	2300      	movs	r3, #0
   d6552:	f88d 3008 	strb.w	r3, [sp, #8]

      bool
      compare_exchange_strong(_Tp& __e, _Tp __i, memory_order __s, 
			      memory_order __f) noexcept
      {
	return __atomic_compare_exchange(&_M_i, &__e, &__i, false, __s, __f);
   d6556:	f04f 0202 	mov.w	r2, #2
   d655a:	e8d4 3f4f 	ldrexb	r3, [r4]
   d655e:	2b00      	cmp	r3, #0
   d6560:	d103      	bne.n	d656a <_ZN8particle11PromiseBaseIbNS_6detail13FutureContextEE8setErrorENS_5ErrorE+0x26>
   d6562:	e8c4 2f41 	strexb	r1, r2, [r4]
   d6566:	2900      	cmp	r1, #0
   d6568:	d1f7      	bne.n	d655a <_ZN8particle11PromiseBaseIbNS_6detail13FutureContextEE8setErrorENS_5ErrorE+0x16>
   d656a:	d002      	beq.n	d6572 <_ZN8particle11PromiseBaseIbNS_6detail13FutureContextEE8setErrorENS_5ErrorE+0x2e>
   d656c:	f88d 3008 	strb.w	r3, [sp, #8]
   d6570:	e063      	b.n	d663a <_ZN8particle11PromiseBaseIbNS_6detail13FutureContextEE8setErrorENS_5ErrorE+0xf6>
        return std::move(defaultValue);
    }

    void setError(Error error) {
        if (this->changeState(State::FAILED)) {
            new(&error_) Error(std::move(error));
   d6572:	f114 050c 	adds.w	r5, r4, #12
   d6576:	d003      	beq.n	d6580 <_ZN8particle11PromiseBaseIbNS_6detail13FutureContextEE8setErrorENS_5ErrorE+0x3c>
   d6578:	4669      	mov	r1, sp
   d657a:	4628      	mov	r0, r5
   d657c:	f7ff ff35 	bl	d63ea <_ZN8particle5ErrorC1EOS0_>
        memory_order __b = __m & __memory_order_mask;
	__glibcxx_assert(__b != memory_order_acquire);
	__glibcxx_assert(__b != memory_order_acq_rel);
	__glibcxx_assert(__b != memory_order_consume);

	__atomic_store_n(&_M_i, __i, __m);
   d6580:	f3bf 8f5f 	dmb	sy
   d6584:	2301      	movs	r3, #1
   d6586:	7063      	strb	r3, [r4, #1]

      _GLIBCXX_ALWAYS_INLINE __pointer_type
      exchange(__pointer_type __p,
	       memory_order __m = memory_order_seq_cst) noexcept
      {
	return __atomic_exchange_n(&_M_p, __p, __m);
   d6588:	2000      	movs	r0, #0
   d658a:	f104 0308 	add.w	r3, r4, #8
   d658e:	f3bf 8f5f 	dmb	sy
   d6592:	e853 6f00 	ldrex	r6, [r3]
   d6596:	e843 0200 	strex	r2, r0, [r3]
   d659a:	2a00      	cmp	r2, #0
   d659c:	d1f9      	bne.n	d6592 <_ZN8particle11PromiseBaseIbNS_6detail13FutureContextEE8setErrorENS_5ErrorE+0x4e>
   d659e:	f3bf 8f5f 	dmb	sy

    // Takes a callback from its atomic wrapper and invokes it
    template<typename FunctionT, typename... ArgsT>
    static void invokeCallback(std::atomic<std::function<FunctionT>*>& wrapper, ArgsT&&... args) {
        std::function<FunctionT>* callbackPtr = wrapper.exchange(nullptr, std::memory_order_acq_rel);
        if (callbackPtr) {
   d65a2:	2e00      	cmp	r6, #0
   d65a4:	d049      	beq.n	d663a <_ZN8particle11PromiseBaseIbNS_6detail13FutureContextEE8setErrorENS_5ErrorE+0xf6>
        return (application_thread_invoke(callback, data, nullptr) == 0);
    }

    // Returns true if current thread is the application thread
    static bool isApplicationThreadCurrent() {
        return (application_thread_current(nullptr) != 0);
   d65a6:	f7ff fb99 	bl	d5cdc <application_thread_current>
    }

    // Invokes std::function in the application context
    template<typename FunctionT, typename... ArgsT>
    static void invokeCallback(const std::function<FunctionT>& callback, ArgsT&&... args) {
        if (ContextT::isApplicationThreadCurrent()) {
   d65aa:	b120      	cbz	r0, d65b6 <_ZN8particle11PromiseBaseIbNS_6detail13FutureContextEE8setErrorENS_5ErrorE+0x72>
            callback(std::forward<ArgsT>(args)...); // Synchronous call
   d65ac:	4629      	mov	r1, r5
   d65ae:	4630      	mov	r0, r6
   d65b0:	f7ff ff98 	bl	d64e4 <_ZNKSt8functionIFvRKN8particle5ErrorEEEclES3_>
   d65b4:	e03a      	b.n	d662c <_ZN8particle11PromiseBaseIbNS_6detail13FutureContextEE8setErrorENS_5ErrorE+0xe8>
	}

     public:
      template<typename... _Args>
	explicit _Bind(const _Functor& __f, _Args&&... __args)
	: _M_f(__f), _M_bound_args(std::forward<_Args>(__args)...)
   d65b6:	4631      	mov	r1, r6
   d65b8:	a802      	add	r0, sp, #8
   d65ba:	f7ff ffb3 	bl	d6524 <_ZNSt8functionIFvRKN8particle5ErrorEEEC1ERKS5_>
inline particle::Error::Error(const char* msg) :
        Error(UNKNOWN, msg) {
}

inline particle::Error::Error(const Error& error) :
        Error(error.type_, error.msg_) {
   d65be:	68e0      	ldr	r0, [r4, #12]
   d65c0:	f9b4 5010 	ldrsh.w	r5, [r4, #16]
        type_(type) {
}

inline particle::Error::Error(Type type, const char* msg) :
        msg_(msg ? (const char*)strdup(msg) : nullptr),
        type_(type) {
   d65c4:	b108      	cbz	r0, d65ca <_ZN8particle11PromiseBaseIbNS_6detail13FutureContextEE8setErrorENS_5ErrorE+0x86>
   d65c6:	f001 fc69 	bl	d7e9c <strdup>
   d65ca:	9006      	str	r0, [sp, #24]
        } else {
            // Bind all arguments and wrap resulting function into a pointer
            auto callbackPtr = new std::function<void()>(std::bind(callback, std::forward<ArgsT>(args)...));
   d65cc:	2010      	movs	r0, #16
   d65ce:	f8ad 501c 	strh.w	r5, [sp, #28]
   d65d2:	f7fd fd62 	bl	d409a <_Znwj>
   d65d6:	4605      	mov	r5, r0
   d65d8:	b1e8      	cbz	r0, d6616 <_ZN8particle11PromiseBaseIbNS_6detail13FutureContextEE8setErrorENS_5ErrorE+0xd2>
	{
	  _Base::_M_init_functor(__functor, std::__addressof(__f.get()));
	}
      };

    _Function_base() : _M_manager(nullptr) { }
   d65da:	2700      	movs	r7, #0
   d65dc:	6087      	str	r7, [r0, #8]
	_M_init_functor(_Any_data& __functor, _Functor&& __f, true_type)
	{ new (__functor._M_access()) _Functor(std::move(__f)); }

	static void
	_M_init_functor(_Any_data& __functor, _Functor&& __f, false_type)
	{ __functor._M_access<_Functor*>() = new _Functor(std::move(__f)); }
   d65de:	2018      	movs	r0, #24
   d65e0:	f7fd fd5b 	bl	d409a <_Znwj>
   d65e4:	4604      	mov	r4, r0
   d65e6:	b188      	cbz	r0, d660c <_ZN8particle11PromiseBaseIbNS_6detail13FutureContextEE8setErrorENS_5ErrorE+0xc8>
       *  Swap the targets of @c this function object and @a __f. This
       *  function will not throw an %exception.
       */
      void swap(function& __x)
      {
	std::swap(_M_functor, __x._M_functor);
   d65e8:	4601      	mov	r1, r0
	{
	  _Base::_M_init_functor(__functor, std::__addressof(__f.get()));
	}
      };

    _Function_base() : _M_manager(nullptr) { }
   d65ea:	6087      	str	r7, [r0, #8]
       *  Swap the targets of @c this function object and @a __f. This
       *  function will not throw an %exception.
       */
      void swap(function& __x)
      {
	std::swap(_M_functor, __x._M_functor);
   d65ec:	a802      	add	r0, sp, #8
   d65ee:	f7ff fe47 	bl	d6280 <_ZSt4swapISt9_Any_dataEvRT_S2_>
#endif
    {
      // concept requirements
      __glibcxx_function_requires(_SGIAssignableConcept<_Tp>)

      _Tp __tmp = _GLIBCXX_MOVE(__a);
   d65f2:	9b04      	ldr	r3, [sp, #16]
      __a = _GLIBCXX_MOVE(__b);
   d65f4:	68a2      	ldr	r2, [r4, #8]
      __b = _GLIBCXX_MOVE(__tmp);
   d65f6:	60a3      	str	r3, [r4, #8]
#endif
    {
      // concept requirements
      __glibcxx_function_requires(_SGIAssignableConcept<_Tp>)

      _Tp __tmp = _GLIBCXX_MOVE(__a);
   d65f8:	9b05      	ldr	r3, [sp, #20]
      __a = _GLIBCXX_MOVE(__b);
   d65fa:	9204      	str	r2, [sp, #16]
      constexpr _Head_base(const _Head_base&) = default;
      constexpr _Head_base(_Head_base&&) = default;

      template<typename _UHead>
        constexpr _Head_base(_UHead&& __h)
	: _M_head_impl(std::forward<_UHead>(__h)) { }
   d65fc:	a906      	add	r1, sp, #24
   d65fe:	68e2      	ldr	r2, [r4, #12]
      __b = _GLIBCXX_MOVE(__tmp);
   d6600:	60e3      	str	r3, [r4, #12]
   d6602:	f104 0010 	add.w	r0, r4, #16
    {
      // concept requirements
      __glibcxx_function_requires(_SGIAssignableConcept<_Tp>)

      _Tp __tmp = _GLIBCXX_MOVE(__a);
      __a = _GLIBCXX_MOVE(__b);
   d6606:	9205      	str	r2, [sp, #20]
   d6608:	f7ff feef 	bl	d63ea <_ZN8particle5ErrorC1EOS0_>
	typedef _Function_handler<_Signature_type, _Functor> _My_handler;

	if (_My_handler::_M_not_empty_function(__f))
	  {
	    _My_handler::_M_init_functor(_M_functor, std::move(__f));
	    _M_invoker = &_My_handler::_M_invoke;
   d660c:	4b0d      	ldr	r3, [pc, #52]	; (d6644 <_ZN8particle11PromiseBaseIbNS_6detail13FutureContextEE8setErrorENS_5ErrorE+0x100>)
   d660e:	60eb      	str	r3, [r5, #12]
	    _M_manager = &_My_handler::_M_manager;
   d6610:	4b0d      	ldr	r3, [pc, #52]	; (d6648 <_ZN8particle11PromiseBaseIbNS_6detail13FutureContextEE8setErrorENS_5ErrorE+0x104>)
	_M_init_functor(_Any_data& __functor, _Functor&& __f, true_type)
	{ new (__functor._M_access()) _Functor(std::move(__f)); }

	static void
	_M_init_functor(_Any_data& __functor, _Functor&& __f, false_type)
	{ __functor._M_access<_Functor*>() = new _Functor(std::move(__f)); }
   d6612:	602c      	str	r4, [r5, #0]

	if (_My_handler::_M_not_empty_function(__f))
	  {
	    _My_handler::_M_init_functor(_M_functor, std::move(__f));
	    _M_invoker = &_My_handler::_M_invoke;
	    _M_manager = &_My_handler::_M_manager;
   d6614:	60ab      	str	r3, [r5, #8]
      static constexpr const _Head&
      _M_head(const _Head_base& __b) noexcept { return __b; }
    };

  template<std::size_t _Idx, typename _Head>
    struct _Head_base<_Idx, _Head, false>
   d6616:	a806      	add	r0, sp, #24
   d6618:	f7ff fef6 	bl	d6408 <_ZN8particle5ErrorD1Ev>
   *  @ingroup functors
   *
   *  Polymorphic function wrapper.
   */
  template<typename _Res, typename... _ArgTypes>
    class function<_Res(_ArgTypes...)>
   d661c:	a802      	add	r0, sp, #8
   d661e:	f7ff fe20 	bl	d6262 <_ZNSt14_Function_baseD1Ev>
        spark_process();
    }

    // Asynchronously invokes a callback in the application context
    static bool invokeApplicationCallback(void (*callback)(void* data), void* data) {
        return (application_thread_invoke(callback, data, nullptr) == 0);
   d6622:	2200      	movs	r2, #0
   d6624:	4629      	mov	r1, r5
   d6626:	4809      	ldr	r0, [pc, #36]	; (d664c <_ZN8particle11PromiseBaseIbNS_6detail13FutureContextEE8setErrorENS_5ErrorE+0x108>)
   d6628:	f7ff fb60 	bl	d5cec <application_thread_invoke>
   d662c:	4630      	mov	r0, r6
   d662e:	f7ff fe18 	bl	d6262 <_ZNSt14_Function_baseD1Ev>
    template<typename FunctionT, typename... ArgsT>
    static void invokeCallback(std::atomic<std::function<FunctionT>*>& wrapper, ArgsT&&... args) {
        std::function<FunctionT>* callbackPtr = wrapper.exchange(nullptr, std::memory_order_acq_rel);
        if (callbackPtr) {
            invokeCallback(*callbackPtr, std::forward<ArgsT>(args)...);
            delete callbackPtr;
   d6632:	2110      	movs	r1, #16
   d6634:	4630      	mov	r0, r6
   d6636:	f000 fe1f 	bl	d7278 <_ZdlPvj>
    explicit PromiseBase(detail::FutureImplPtr<ResultT, ContextT> ptr) :
            p_(std::move(ptr)) {
    }

    void setError(Error error) {
        p_->setError(std::move(error));
   d663a:	4668      	mov	r0, sp
   d663c:	f7ff fee4 	bl	d6408 <_ZN8particle5ErrorD1Ev>
    }
   d6640:	b009      	add	sp, #36	; 0x24
   d6642:	bdf0      	pop	{r4, r5, r6, r7, pc}
   d6644:	000d64f7 	.word	0x000d64f7
   d6648:	000d676d 	.word	0x000d676d
   d664c:	000d6cf1 	.word	0x000d6cf1

000d6650 <_ZN10CloudClass13publish_eventEPKcS1_iN8particle5FlagsI15PublishFlagTypehEE>:
    desc.data = (void*)data;
    desc.funcKey = funcKey;
    return spark_function(NULL, (user_function_int_str_t*)&desc, NULL);
}

Future<bool> CloudClass::publish_event(const char *eventName, const char *eventData, int ttl, PublishFlags flags) {
   d6650:	e92d 4ff0 	stmdb	sp!, {r4, r5, r6, r7, r8, r9, sl, fp, lr}
   d6654:	b08b      	sub	sp, #44	; 0x2c
   d6656:	4606      	mov	r6, r0
   d6658:	460f      	mov	r7, r1
   d665a:	4690      	mov	r8, r2
   d665c:	4699      	mov	r9, r3
   d665e:	f89d a050 	ldrb.w	sl, [sp, #80]	; 0x50
    static void sleep(Spark_Sleep_TypeDef sleepMode, long seconds=0) __attribute__ ((deprecated("Please use System.sleep() instead.")))
    { SystemClass::sleep(sleepMode, seconds); }
    static void sleep(uint16_t wakeUpPin, InterruptMode edgeTriggerMode, long seconds=0) __attribute__ ((deprecated("Please use System.sleep() instead.")))
    { SystemClass::sleep(wakeUpPin, edgeTriggerMode, seconds); }

    static bool connected(void) { return spark_cloud_flag_connected(); }
   d6662:	f7ff fbaf 	bl	d5dc4 <spark_cloud_flag_connected>
   d6666:	ad07      	add	r5, sp, #28
    if (!connected()) {
   d6668:	4683      	mov	fp, r0
   d666a:	bb30      	cbnz	r0, d66ba <_ZN10CloudClass13publish_eventEPKcS1_iN8particle5FlagsI15PublishFlagTypehEE+0x6a>

} // namespace particle

inline particle::Error::Error(Type type) :
        msg_(nullptr),
        type_(type) {
   d666c:	f64f 732e 	movw	r3, #65326	; 0xff2e
   d6670:	9005      	str	r0, [sp, #20]
    typedef typename detail::FutureImpl<ResultT, ContextT>::OnSuccessCallback OnSuccessCallback;
    typedef typename detail::FutureImpl<ResultT, ContextT>::OnErrorCallback OnErrorCallback;

    // Construct failed future
    explicit FutureBase(Error error) :
            p_(new detail::FutureImpl<ResultT, ContextT>(std::move(error))) {
   d6672:	a905      	add	r1, sp, #20
   d6674:	4628      	mov	r0, r5
   d6676:	f8ad 3018 	strh.w	r3, [sp, #24]
   d667a:	f7ff feb6 	bl	d63ea <_ZN8particle5ErrorC1EOS0_>
   d667e:	2014      	movs	r0, #20
   d6680:	f7fd fd0b 	bl	d409a <_Znwj>
   d6684:	4604      	mov	r4, r0
   d6686:	b158      	cbz	r0, d66a0 <_ZN10CloudClass13publish_eventEPKcS1_iN8particle5FlagsI15PublishFlagTypehEE+0x50>
      ~atomic() noexcept = default;
      atomic(const atomic&) = delete;
      atomic& operator=(const atomic&) = delete;
      atomic& operator=(const atomic&) volatile = delete;

      constexpr atomic(_Tp __i) noexcept : _M_i(__i) { }
   d6688:	2302      	movs	r3, #2
   d668a:	7003      	strb	r3, [r0, #0]
      __atomic_base(const __atomic_base&) = delete;
      __atomic_base& operator=(const __atomic_base&) = delete;
      __atomic_base& operator=(const __atomic_base&) volatile = delete;

      // Requires __int_type convertible to _M_i.
      constexpr __atomic_base(__int_type __i) noexcept : _M_i (__i) { }
   d668c:	2301      	movs	r3, #1
   d668e:	7043      	strb	r3, [r0, #1]
      __atomic_base(const __atomic_base&) = delete;
      __atomic_base& operator=(const __atomic_base&) = delete;
      __atomic_base& operator=(const __atomic_base&) volatile = delete;

      // Requires __pointer_type convertible to _M_p.
      constexpr __atomic_base(__pointer_type __p) noexcept : _M_p (__p) { }
   d6690:	f8c0 b004 	str.w	fp, [r0, #4]
   d6694:	f8c0 b008 	str.w	fp, [r0, #8]
            result_(std::move(result)) {
    }

    explicit FutureImpl(Error error) :
            FutureImplBase<ResultT, ContextT>(State::FAILED),
            error_(std::move(error)) {
   d6698:	4629      	mov	r1, r5
   d669a:	300c      	adds	r0, #12
   d669c:	f7ff fea5 	bl	d63ea <_ZN8particle5ErrorC1EOS0_>
      : _M_ptr(0), _M_refcount()
      { }

      template<typename _Tp1>
	explicit __shared_ptr(_Tp1* __p)
        : _M_ptr(__p), _M_refcount(__p)
   d66a0:	4630      	mov	r0, r6
   d66a2:	4621      	mov	r1, r4
   d66a4:	f840 4b04 	str.w	r4, [r0], #4
   d66a8:	f7ff ff08 	bl	d64bc <_ZNSt14__shared_countILN9__gnu_cxx12_Lock_policyE0EEC1IPN8particle6detail10FutureImplIbNS5_13FutureContextEEEEET_>
    typedef typename detail::FutureImpl<ResultT, ContextT>::OnSuccessCallback OnSuccessCallback;
    typedef typename detail::FutureImpl<ResultT, ContextT>::OnErrorCallback OnErrorCallback;

    // Construct failed future
    explicit FutureBase(Error error) :
            p_(new detail::FutureImpl<ResultT, ContextT>(std::move(error))) {
   d66ac:	4628      	mov	r0, r5
   d66ae:	f7ff feab 	bl	d6408 <_ZN8particle5ErrorD1Ev>
    }

    explicit FutureBase(Error::Type error) :
            FutureBase(Error(error)) {
   d66b2:	a805      	add	r0, sp, #20
   d66b4:	f7ff fea8 	bl	d6408 <_ZN8particle5ErrorD1Ev>
   d66b8:	e052      	b.n	d6760 <_ZN10CloudClass13publish_eventEPKcS1_iN8particle5FlagsI15PublishFlagTypehEE+0x110>
        return Future<bool>(Error::INVALID_STATE);
    }
    spark_send_event_data d = { sizeof(spark_send_event_data) };
   d66ba:	2400      	movs	r4, #0
   d66bc:	230c      	movs	r3, #12
// can be acquired via Future
template<typename ResultT, typename ContextT>
class PromiseBase {
public:
    PromiseBase() :
            p_(new detail::FutureImpl<ResultT, ContextT>(State::RUNNING)) {
   d66be:	2014      	movs	r0, #20
   d66c0:	606c      	str	r4, [r5, #4]
   d66c2:	60ac      	str	r4, [r5, #8]
   d66c4:	9307      	str	r3, [sp, #28]
   d66c6:	f7fd fce8 	bl	d409a <_Znwj>
   d66ca:	4601      	mov	r1, r0
   d66cc:	b118      	cbz	r0, d66d6 <_ZN10CloudClass13publish_eventEPKcS1_iN8particle5FlagsI15PublishFlagTypehEE+0x86>
   d66ce:	7004      	strb	r4, [r0, #0]
      __atomic_base(const __atomic_base&) = delete;
      __atomic_base& operator=(const __atomic_base&) = delete;
      __atomic_base& operator=(const __atomic_base&) volatile = delete;

      // Requires __int_type convertible to _M_i.
      constexpr __atomic_base(__int_type __i) noexcept : _M_i (__i) { }
   d66d0:	7044      	strb	r4, [r0, #1]
      __atomic_base(const __atomic_base&) = delete;
      __atomic_base& operator=(const __atomic_base&) = delete;
      __atomic_base& operator=(const __atomic_base&) volatile = delete;

      // Requires __pointer_type convertible to _M_p.
      constexpr __atomic_base(__pointer_type __p) noexcept : _M_p (__p) { }
   d66d2:	6044      	str	r4, [r0, #4]
   d66d4:	6084      	str	r4, [r0, #8]
   d66d6:	a804      	add	r0, sp, #16
   d66d8:	9103      	str	r1, [sp, #12]
   d66da:	f7ff feef 	bl	d64bc <_ZNSt14__shared_countILN9__gnu_cxx12_Lock_policyE0EEC1IPN8particle6detail10FutureImplIbNS5_13FutureContextEEEEET_>

    // Completion handler
    Promise<bool> p;
    d.handler_callback = publishCompletionCallback;
   d66de:	4b22      	ldr	r3, [pc, #136]	; (d6768 <_ZN10CloudClass13publish_eventEPKcS1_iN8particle5FlagsI15PublishFlagTypehEE+0x118>)
   d66e0:	9308      	str	r3, [sp, #32]
    }

    // Wraps this promise into an object pointer that can be passed to a C function
    void* dataPtr() const {
        // TODO: Use custom reference counting object to avoid unnecessary memory allocation
        return new detail::FutureImplPtr<ResultT, ContextT>(p_);
   d66e2:	2008      	movs	r0, #8
   d66e4:	f7fd fcd9 	bl	d409a <_Znwj>
   d66e8:	4604      	mov	r4, r0
   d66ea:	b128      	cbz	r0, d66f8 <_ZN10CloudClass13publish_eventEPKcS1_iN8particle5FlagsI15PublishFlagTypehEE+0xa8>
      template<typename _Tp1>
	__shared_ptr(const __shared_ptr<_Tp1, _Lp>& __r, _Tp* __p) noexcept
	: _M_ptr(__p), _M_refcount(__r._M_refcount) // never throws
	{ }

      __shared_ptr(const __shared_ptr&) noexcept = default;
   d66ec:	9b03      	ldr	r3, [sp, #12]
   d66ee:	f840 3b04 	str.w	r3, [r0], #4
   d66f2:	a904      	add	r1, sp, #16
   d66f4:	f7ff fcde 	bl	d60b4 <_ZNSt14__shared_countILN9__gnu_cxx12_Lock_policyE0EEC1ERKS2_>
    d.handler_data = p.dataPtr();

    if (!spark_send_event(eventName, eventData, ttl, flags.value(), &d) && !p.isDone()) {
   d66f8:	9500      	str	r5, [sp, #0]
   d66fa:	fa5f f38a 	uxtb.w	r3, sl
   d66fe:	464a      	mov	r2, r9
   d6700:	4641      	mov	r1, r8
   d6702:	4638      	mov	r0, r7
    spark_send_event_data d = { sizeof(spark_send_event_data) };

    // Completion handler
    Promise<bool> p;
    d.handler_callback = publishCompletionCallback;
    d.handler_data = p.dataPtr();
   d6704:	9409      	str	r4, [sp, #36]	; 0x24

    if (!spark_send_event(eventName, eventData, ttl, flags.value(), &d) && !p.isDone()) {
   d6706:	f7ff fb65 	bl	d5dd4 <spark_send_event>
   d670a:	b920      	cbnz	r0, d6716 <_ZN10CloudClass13publish_eventEPKcS1_iN8particle5FlagsI15PublishFlagTypehEE+0xc6>
      {
       memory_order __b = __m & __memory_order_mask;
	__glibcxx_assert(__b != memory_order_release);
	__glibcxx_assert(__b != memory_order_acq_rel);

	return __atomic_load_n(&_M_i, __m);
   d670c:	9b03      	ldr	r3, [sp, #12]
   d670e:	785b      	ldrb	r3, [r3, #1]
   d6710:	f003 02ff 	and.w	r2, r3, #255	; 0xff
   d6714:	b183      	cbz	r3, d6738 <_ZN10CloudClass13publish_eventEPKcS1_iN8particle5FlagsI15PublishFlagTypehEE+0xe8>
   d6716:	9b03      	ldr	r3, [sp, #12]
   d6718:	9305      	str	r3, [sp, #20]
   d671a:	a904      	add	r1, sp, #16
   d671c:	a806      	add	r0, sp, #24
   d671e:	f7ff fcc9 	bl	d60b4 <_ZNSt14__shared_countILN9__gnu_cxx12_Lock_policyE0EEC1ERKS2_>
    bool isDone() const {
        return p_->isDone();
    }

    Future<ResultT, ContextT> future() const {
        return Future<ResultT, ContextT>(p_);
   d6722:	a905      	add	r1, sp, #20
   d6724:	4630      	mov	r0, r6
   d6726:	f7ff fe99 	bl	d645c <_ZN8particle6FutureIbNS_6detail13FutureContextEEC1ESt10shared_ptrINS1_10FutureImplIbS2_EEE>
      __shared_ptr& operator=(const __shared_ptr&) noexcept = default;
      ~__shared_ptr() = default;
   d672a:	a806      	add	r0, sp, #24
   d672c:	f7ff fcc9 	bl	d60c2 <_ZNSt14__shared_countILN9__gnu_cxx12_Lock_policyE0EED1Ev>
   d6730:	a804      	add	r0, sp, #16
   d6732:	f7ff fcc6 	bl	d60c2 <_ZNSt14__shared_countILN9__gnu_cxx12_Lock_policyE0EED1Ev>
   d6736:	e013      	b.n	d6760 <_ZN10CloudClass13publish_eventEPKcS1_iN8particle5FlagsI15PublishFlagTypehEE+0x110>
   d6738:	f64f 739c 	movw	r3, #65436	; 0xff9c
        // Set generic error code in case completion callback wasn't invoked for some reason
        p.setError(Error::UNKNOWN);
   d673c:	a905      	add	r1, sp, #20
   d673e:	a803      	add	r0, sp, #12
   d6740:	9205      	str	r2, [sp, #20]
   d6742:	f8ad 3018 	strh.w	r3, [sp, #24]
   d6746:	f7ff fefd 	bl	d6544 <_ZN8particle11PromiseBaseIbNS_6detail13FutureContextEE8setErrorENS_5ErrorE>
   d674a:	a805      	add	r0, sp, #20
   d674c:	f7ff fe5c 	bl	d6408 <_ZN8particle5ErrorD1Ev>
        p.fromDataPtr(d.handler_data); // Free wrapper object
   d6750:	a805      	add	r0, sp, #20
   d6752:	9909      	ldr	r1, [sp, #36]	; 0x24
   d6754:	f7ff fe93 	bl	d647e <_ZN8particle11PromiseBaseIbNS_6detail13FutureContextEE11fromDataPtrEPv>
   d6758:	a806      	add	r0, sp, #24
   d675a:	f7ff fcb2 	bl	d60c2 <_ZNSt14__shared_countILN9__gnu_cxx12_Lock_policyE0EED1Ev>
   d675e:	e7da      	b.n	d6716 <_ZN10CloudClass13publish_eventEPKcS1_iN8particle5FlagsI15PublishFlagTypehEE+0xc6>
    }

    return p.future();
}
   d6760:	4630      	mov	r0, r6
   d6762:	b00b      	add	sp, #44	; 0x2c
   d6764:	e8bd 8ff0 	ldmia.w	sp!, {r4, r5, r6, r7, r8, r9, sl, fp, pc}
   d6768:	000d68dd 	.word	0x000d68dd

000d676c <_ZNSt14_Function_base13_Base_managerISt5_BindIFSt8functionIFvRKN8particle5ErrorEEES4_EEE10_M_managerERSt9_Any_dataRKSC_St18_Manager_operation>:
      public:
	static bool
	_M_manager(_Any_data& __dest, const _Any_data& __source,
		   _Manager_operation __op)
	{
	  switch (__op)
   d676c:	2a02      	cmp	r2, #2
	  delete __victim._M_access<_Functor*>();
	}

      public:
	static bool
	_M_manager(_Any_data& __dest, const _Any_data& __source,
   d676e:	b5f8      	push	{r3, r4, r5, r6, r7, lr}
   d6770:	4604      	mov	r4, r0
		   _Manager_operation __op)
	{
	  switch (__op)
   d6772:	d006      	beq.n	d6782 <_ZNSt14_Function_base13_Base_managerISt5_BindIFSt8functionIFvRKN8particle5ErrorEEES4_EEE10_M_managerERSt9_Any_dataRKSC_St18_Manager_operation+0x16>
   d6774:	2a03      	cmp	r2, #3
   d6776:	d017      	beq.n	d67a8 <_ZNSt14_Function_base13_Base_managerISt5_BindIFSt8functionIFvRKN8particle5ErrorEEES4_EEE10_M_managerERSt9_Any_dataRKSC_St18_Manager_operation+0x3c>
   d6778:	2a01      	cmp	r2, #1
   d677a:	d122      	bne.n	d67c2 <_ZNSt14_Function_base13_Base_managerISt5_BindIFSt8functionIFvRKN8particle5ErrorEEES4_EEE10_M_managerERSt9_Any_dataRKSC_St18_Manager_operation+0x56>
	static _Functor*
	_M_get_pointer(const _Any_data& __source)
	{
	  const _Functor* __ptr =
	    __stored_locally? std::__addressof(__source._M_access<_Functor>())
	    /* have stored a pointer */ : __source._M_access<_Functor*>();
   d677c:	680b      	ldr	r3, [r1, #0]
	    case __get_type_info:
	      __dest._M_access<const type_info*>() = &typeid(_Functor);
	      break;
#endif
	    case __get_functor_ptr:
	      __dest._M_access<_Functor*>() = _M_get_pointer(__source);
   d677e:	6003      	str	r3, [r0, #0]
	      break;
   d6780:	e01f      	b.n	d67c2 <_ZNSt14_Function_base13_Base_managerISt5_BindIFSt8functionIFvRKN8particle5ErrorEEES4_EEE10_M_managerERSt9_Any_dataRKSC_St18_Manager_operation+0x56>
	// Clone a function object that is not location-invariant or
	// that cannot fit into an _Any_data structure.
	static void
	_M_clone(_Any_data& __dest, const _Any_data& __source, false_type)
	{
	  __dest._M_access<_Functor*>() =
   d6782:	2018      	movs	r0, #24
   d6784:	680e      	ldr	r6, [r1, #0]
   d6786:	f7fd fc88 	bl	d409a <_Znwj>
   d678a:	4605      	mov	r5, r0
   d678c:	b150      	cbz	r0, d67a4 <_ZNSt14_Function_base13_Base_managerISt5_BindIFSt8functionIFvRKN8particle5ErrorEEES4_EEE10_M_managerERSt9_Any_dataRKSC_St18_Manager_operation+0x38>
      template<typename... _Args>
	explicit _Bind(_Functor&& __f, _Args&&... __args)
	: _M_f(std::move(__f)), _M_bound_args(std::forward<_Args>(__args)...)
	{ }

      _Bind(const _Bind&) = default;
   d678e:	4631      	mov	r1, r6
   d6790:	f7ff fec8 	bl	d6524 <_ZNSt8functionIFvRKN8particle5ErrorEEEC1ERKS5_>
inline particle::Error::Error(const char* msg) :
        Error(UNKNOWN, msg) {
}

inline particle::Error::Error(const Error& error) :
        Error(error.type_, error.msg_) {
   d6794:	6930      	ldr	r0, [r6, #16]
   d6796:	f9b6 7014 	ldrsh.w	r7, [r6, #20]
        type_(type) {
}

inline particle::Error::Error(Type type, const char* msg) :
        msg_(msg ? (const char*)strdup(msg) : nullptr),
        type_(type) {
   d679a:	b108      	cbz	r0, d67a0 <_ZNSt14_Function_base13_Base_managerISt5_BindIFSt8functionIFvRKN8particle5ErrorEEES4_EEE10_M_managerERSt9_Any_dataRKSC_St18_Manager_operation+0x34>
   d679c:	f001 fb7e 	bl	d7e9c <strdup>
   d67a0:	6128      	str	r0, [r5, #16]
   d67a2:	82af      	strh	r7, [r5, #20]
	// Clone a function object that is not location-invariant or
	// that cannot fit into an _Any_data structure.
	static void
	_M_clone(_Any_data& __dest, const _Any_data& __source, false_type)
	{
	  __dest._M_access<_Functor*>() =
   d67a4:	6025      	str	r5, [r4, #0]
   d67a6:	e00c      	b.n	d67c2 <_ZNSt14_Function_base13_Base_managerISt5_BindIFSt8functionIFvRKN8particle5ErrorEEES4_EEE10_M_managerERSt9_Any_dataRKSC_St18_Manager_operation+0x56>

	// Destroying an object located on the heap.
	static void
	_M_destroy(_Any_data& __victim, false_type)
	{
	  delete __victim._M_access<_Functor*>();
   d67a8:	6804      	ldr	r4, [r0, #0]
   d67aa:	b154      	cbz	r4, d67c2 <_ZNSt14_Function_base13_Base_managerISt5_BindIFSt8functionIFvRKN8particle5ErrorEEES4_EEE10_M_managerERSt9_Any_dataRKSC_St18_Manager_operation+0x56>
   d67ac:	f104 0010 	add.w	r0, r4, #16
   d67b0:	f7ff fe2a 	bl	d6408 <_ZN8particle5ErrorD1Ev>
   *  @ingroup functors
   *
   *  Polymorphic function wrapper.
   */
  template<typename _Res, typename... _ArgTypes>
    class function<_Res(_ArgTypes...)>
   d67b4:	4620      	mov	r0, r4
   d67b6:	f7ff fd54 	bl	d6262 <_ZNSt14_Function_baseD1Ev>

	// Destroying an object located on the heap.
	static void
	_M_destroy(_Any_data& __victim, false_type)
	{
	  delete __victim._M_access<_Functor*>();
   d67ba:	2118      	movs	r1, #24
   d67bc:	4620      	mov	r0, r4
   d67be:	f000 fd5b 	bl	d7278 <_ZdlPvj>
	    case __destroy_functor:
	      _M_destroy(__dest, _Local_storage());
	      break;
	    }
	  return false;
	}
   d67c2:	2000      	movs	r0, #0
   d67c4:	bdf8      	pop	{r3, r4, r5, r6, r7, pc}

000d67c6 <_ZNSt8functionIFvRKbEEC1ERKS3_>:
      _Invoker_type _M_invoker;
  };

  // Out-of-line member definitions.
  template<typename _Res, typename... _ArgTypes>
    function<_Res(_ArgTypes...)>::
   d67c6:	b538      	push	{r3, r4, r5, lr}
	{
	  _Base::_M_init_functor(__functor, std::__addressof(__f.get()));
	}
      };

    _Function_base() : _M_manager(nullptr) { }
   d67c8:	2300      	movs	r3, #0
   d67ca:	6083      	str	r3, [r0, #8]
   d67cc:	688b      	ldr	r3, [r1, #8]
      _Invoker_type _M_invoker;
  };

  // Out-of-line member definitions.
  template<typename _Res, typename... _ArgTypes>
    function<_Res(_ArgTypes...)>::
   d67ce:	4604      	mov	r4, r0
   d67d0:	460d      	mov	r5, r1
    function(const function& __x)
    : _Function_base()
    {
      if (static_cast<bool>(__x))
   d67d2:	b12b      	cbz	r3, d67e0 <_ZNSt8functionIFvRKbEEC1ERKS3_+0x1a>
	{
	  __x._M_manager(_M_functor, __x._M_functor, __clone_functor);
   d67d4:	2202      	movs	r2, #2
   d67d6:	4798      	blx	r3
	  _M_invoker = __x._M_invoker;
   d67d8:	68eb      	ldr	r3, [r5, #12]
   d67da:	60e3      	str	r3, [r4, #12]
	  _M_manager = __x._M_manager;
   d67dc:	68ab      	ldr	r3, [r5, #8]
   d67de:	60a3      	str	r3, [r4, #8]
	}
    }
   d67e0:	4620      	mov	r0, r4
   d67e2:	bd38      	pop	{r3, r4, r5, pc}

000d67e4 <_ZNSt14_Function_base13_Base_managerISt5_BindIFSt8functionIFvRKbEEbEEE10_M_managerERSt9_Any_dataRKSA_St18_Manager_operation>:
      public:
	static bool
	_M_manager(_Any_data& __dest, const _Any_data& __source,
		   _Manager_operation __op)
	{
	  switch (__op)
   d67e4:	2a02      	cmp	r2, #2
	  delete __victim._M_access<_Functor*>();
	}

      public:
	static bool
	_M_manager(_Any_data& __dest, const _Any_data& __source,
   d67e6:	b570      	push	{r4, r5, r6, lr}
   d67e8:	4604      	mov	r4, r0
		   _Manager_operation __op)
	{
	  switch (__op)
   d67ea:	d006      	beq.n	d67fa <_ZNSt14_Function_base13_Base_managerISt5_BindIFSt8functionIFvRKbEEbEEE10_M_managerERSt9_Any_dataRKSA_St18_Manager_operation+0x16>
   d67ec:	2a03      	cmp	r2, #3
   d67ee:	d011      	beq.n	d6814 <_ZNSt14_Function_base13_Base_managerISt5_BindIFSt8functionIFvRKbEEbEEE10_M_managerERSt9_Any_dataRKSA_St18_Manager_operation+0x30>
   d67f0:	2a01      	cmp	r2, #1
   d67f2:	d118      	bne.n	d6826 <_ZNSt14_Function_base13_Base_managerISt5_BindIFSt8functionIFvRKbEEbEEE10_M_managerERSt9_Any_dataRKSA_St18_Manager_operation+0x42>
	static _Functor*
	_M_get_pointer(const _Any_data& __source)
	{
	  const _Functor* __ptr =
	    __stored_locally? std::__addressof(__source._M_access<_Functor>())
	    /* have stored a pointer */ : __source._M_access<_Functor*>();
   d67f4:	680b      	ldr	r3, [r1, #0]
	    case __get_type_info:
	      __dest._M_access<const type_info*>() = &typeid(_Functor);
	      break;
#endif
	    case __get_functor_ptr:
	      __dest._M_access<_Functor*>() = _M_get_pointer(__source);
   d67f6:	6003      	str	r3, [r0, #0]
	      break;
   d67f8:	e015      	b.n	d6826 <_ZNSt14_Function_base13_Base_managerISt5_BindIFSt8functionIFvRKbEEbEEE10_M_managerERSt9_Any_dataRKSA_St18_Manager_operation+0x42>
	// Clone a function object that is not location-invariant or
	// that cannot fit into an _Any_data structure.
	static void
	_M_clone(_Any_data& __dest, const _Any_data& __source, false_type)
	{
	  __dest._M_access<_Functor*>() =
   d67fa:	2014      	movs	r0, #20
   d67fc:	680e      	ldr	r6, [r1, #0]
   d67fe:	f7fd fc4c 	bl	d409a <_Znwj>
   d6802:	4605      	mov	r5, r0
   d6804:	b120      	cbz	r0, d6810 <_ZNSt14_Function_base13_Base_managerISt5_BindIFSt8functionIFvRKbEEbEEE10_M_managerERSt9_Any_dataRKSA_St18_Manager_operation+0x2c>
      template<typename... _Args>
	explicit _Bind(_Functor&& __f, _Args&&... __args)
	: _M_f(std::move(__f)), _M_bound_args(std::forward<_Args>(__args)...)
	{ }

      _Bind(const _Bind&) = default;
   d6806:	4631      	mov	r1, r6
   d6808:	f7ff ffdd 	bl	d67c6 <_ZNSt8functionIFvRKbEEC1ERKS3_>
   d680c:	7c33      	ldrb	r3, [r6, #16]
   d680e:	742b      	strb	r3, [r5, #16]
	// Clone a function object that is not location-invariant or
	// that cannot fit into an _Any_data structure.
	static void
	_M_clone(_Any_data& __dest, const _Any_data& __source, false_type)
	{
	  __dest._M_access<_Functor*>() =
   d6810:	6025      	str	r5, [r4, #0]
   d6812:	e008      	b.n	d6826 <_ZNSt14_Function_base13_Base_managerISt5_BindIFSt8functionIFvRKbEEbEEE10_M_managerERSt9_Any_dataRKSA_St18_Manager_operation+0x42>

	// Destroying an object located on the heap.
	static void
	_M_destroy(_Any_data& __victim, false_type)
	{
	  delete __victim._M_access<_Functor*>();
   d6814:	6804      	ldr	r4, [r0, #0]
   d6816:	b134      	cbz	r4, d6826 <_ZNSt14_Function_base13_Base_managerISt5_BindIFSt8functionIFvRKbEEbEEE10_M_managerERSt9_Any_dataRKSA_St18_Manager_operation+0x42>
   *  @ingroup functors
   *
   *  Polymorphic function wrapper.
   */
  template<typename _Res, typename... _ArgTypes>
    class function<_Res(_ArgTypes...)>
   d6818:	4620      	mov	r0, r4
   d681a:	f7ff fd22 	bl	d6262 <_ZNSt14_Function_baseD1Ev>

	// Destroying an object located on the heap.
	static void
	_M_destroy(_Any_data& __victim, false_type)
	{
	  delete __victim._M_access<_Functor*>();
   d681e:	2114      	movs	r1, #20
   d6820:	4620      	mov	r0, r4
   d6822:	f000 fd29 	bl	d7278 <_ZdlPvj>
	    case __destroy_functor:
	      _M_destroy(__dest, _Local_storage());
	      break;
	    }
	  return false;
	}
   d6826:	2000      	movs	r0, #0
   d6828:	bd70      	pop	{r4, r5, r6, pc}
	...

000d682c <_ZN8particle6detail14FutureImplBaseIbNS0_13FutureContextEE14invokeCallbackIFvRKbEIRbEEEvRSt6atomicIPSt8functionIT_EEDpOT0_>:
        delete callbackPtr; // Delete old callback
    }

    // Takes a callback from its atomic wrapper and invokes it
    template<typename FunctionT, typename... ArgsT>
    static void invokeCallback(std::atomic<std::function<FunctionT>*>& wrapper, ArgsT&&... args) {
   d682c:	b5f0      	push	{r4, r5, r6, r7, lr}

      _GLIBCXX_ALWAYS_INLINE __pointer_type
      exchange(__pointer_type __p,
	       memory_order __m = memory_order_seq_cst) noexcept
      {
	return __atomic_exchange_n(&_M_p, __p, __m);
   d682e:	2300      	movs	r3, #0
   d6830:	b087      	sub	sp, #28
   d6832:	460c      	mov	r4, r1
   d6834:	f3bf 8f5f 	dmb	sy
   d6838:	e850 6f00 	ldrex	r6, [r0]
   d683c:	e840 3200 	strex	r2, r3, [r0]
   d6840:	2a00      	cmp	r2, #0
   d6842:	d1f9      	bne.n	d6838 <_ZN8particle6detail14FutureImplBaseIbNS0_13FutureContextEE14invokeCallbackIFvRKbEIRbEEEvRSt6atomicIPSt8functionIT_EEDpOT0_+0xc>
   d6844:	f3bf 8f5f 	dmb	sy
        std::function<FunctionT>* callbackPtr = wrapper.exchange(nullptr, std::memory_order_acq_rel);
        if (callbackPtr) {
   d6848:	2e00      	cmp	r6, #0
   d684a:	d03f      	beq.n	d68cc <_ZN8particle6detail14FutureImplBaseIbNS0_13FutureContextEE14invokeCallbackIFvRKbEIRbEEEvRSt6atomicIPSt8functionIT_EEDpOT0_+0xa0>
        return (application_thread_invoke(callback, data, nullptr) == 0);
    }

    // Returns true if current thread is the application thread
    static bool isApplicationThreadCurrent() {
        return (application_thread_current(nullptr) != 0);
   d684c:	4618      	mov	r0, r3
   d684e:	f7ff fa45 	bl	d5cdc <application_thread_current>
    }

    // Invokes std::function in the application context
    template<typename FunctionT, typename... ArgsT>
    static void invokeCallback(const std::function<FunctionT>& callback, ArgsT&&... args) {
        if (ContextT::isApplicationThreadCurrent()) {
   d6852:	4607      	mov	r7, r0
   d6854:	b120      	cbz	r0, d6860 <_ZN8particle6detail14FutureImplBaseIbNS0_13FutureContextEE14invokeCallbackIFvRKbEIRbEEEvRSt6atomicIPSt8functionIT_EEDpOT0_+0x34>
            callback(std::forward<ArgsT>(args)...); // Synchronous call
   d6856:	4621      	mov	r1, r4
   d6858:	4630      	mov	r0, r6
   d685a:	f7ff fe53 	bl	d6504 <_ZNKSt8functionIFvRKbEEclES1_>
   d685e:	e02e      	b.n	d68be <_ZN8particle6detail14FutureImplBaseIbNS0_13FutureContextEE14invokeCallbackIFvRKbEIRbEEEvRSt6atomicIPSt8functionIT_EEDpOT0_+0x92>
	}

     public:
      template<typename... _Args>
	explicit _Bind(const _Functor& __f, _Args&&... __args)
	: _M_f(__f), _M_bound_args(std::forward<_Args>(__args)...)
   d6860:	4631      	mov	r1, r6
   d6862:	a801      	add	r0, sp, #4
   d6864:	f7ff ffaf 	bl	d67c6 <_ZNSt8functionIFvRKbEEC1ERKS3_>
      constexpr _Head_base(const _Head_base&) = default;
      constexpr _Head_base(_Head_base&&) = default;

      template<typename _UHead>
        constexpr _Head_base(_UHead&& __h)
	: _M_head_impl(std::forward<_UHead>(__h)) { }
   d6868:	7823      	ldrb	r3, [r4, #0]
   d686a:	f88d 3014 	strb.w	r3, [sp, #20]
        } else {
            // Bind all arguments and wrap resulting function into a pointer
            auto callbackPtr = new std::function<void()>(std::bind(callback, std::forward<ArgsT>(args)...));
   d686e:	2010      	movs	r0, #16
   d6870:	f7fd fc13 	bl	d409a <_Znwj>
   d6874:	4605      	mov	r5, r0
   d6876:	b1d0      	cbz	r0, d68ae <_ZN8particle6detail14FutureImplBaseIbNS0_13FutureContextEE14invokeCallbackIFvRKbEIRbEEEvRSt6atomicIPSt8functionIT_EEDpOT0_+0x82>
	{
	  _Base::_M_init_functor(__functor, std::__addressof(__f.get()));
	}
      };

    _Function_base() : _M_manager(nullptr) { }
   d6878:	6087      	str	r7, [r0, #8]
	_M_init_functor(_Any_data& __functor, _Functor&& __f, true_type)
	{ new (__functor._M_access()) _Functor(std::move(__f)); }

	static void
	_M_init_functor(_Any_data& __functor, _Functor&& __f, false_type)
	{ __functor._M_access<_Functor*>() = new _Functor(std::move(__f)); }
   d687a:	2014      	movs	r0, #20
   d687c:	f7fd fc0d 	bl	d409a <_Znwj>
   d6880:	4604      	mov	r4, r0
   d6882:	b178      	cbz	r0, d68a4 <_ZN8particle6detail14FutureImplBaseIbNS0_13FutureContextEE14invokeCallbackIFvRKbEIRbEEEvRSt6atomicIPSt8functionIT_EEDpOT0_+0x78>
	{
	  _Base::_M_init_functor(__functor, std::__addressof(__f.get()));
	}
      };

    _Function_base() : _M_manager(nullptr) { }
   d6884:	6087      	str	r7, [r0, #8]
       *  Swap the targets of @c this function object and @a __f. This
       *  function will not throw an %exception.
       */
      void swap(function& __x)
      {
	std::swap(_M_functor, __x._M_functor);
   d6886:	4601      	mov	r1, r0
   d6888:	a801      	add	r0, sp, #4
   d688a:	f7ff fcf9 	bl	d6280 <_ZSt4swapISt9_Any_dataEvRT_S2_>
#endif
    {
      // concept requirements
      __glibcxx_function_requires(_SGIAssignableConcept<_Tp>)

      _Tp __tmp = _GLIBCXX_MOVE(__a);
   d688e:	9b03      	ldr	r3, [sp, #12]
      __a = _GLIBCXX_MOVE(__b);
   d6890:	68a2      	ldr	r2, [r4, #8]
      __b = _GLIBCXX_MOVE(__tmp);
   d6892:	60a3      	str	r3, [r4, #8]
#endif
    {
      // concept requirements
      __glibcxx_function_requires(_SGIAssignableConcept<_Tp>)

      _Tp __tmp = _GLIBCXX_MOVE(__a);
   d6894:	9b04      	ldr	r3, [sp, #16]
      __a = _GLIBCXX_MOVE(__b);
   d6896:	9203      	str	r2, [sp, #12]
   d6898:	68e2      	ldr	r2, [r4, #12]
      __b = _GLIBCXX_MOVE(__tmp);
   d689a:	60e3      	str	r3, [r4, #12]
   d689c:	f89d 3014 	ldrb.w	r3, [sp, #20]
    {
      // concept requirements
      __glibcxx_function_requires(_SGIAssignableConcept<_Tp>)

      _Tp __tmp = _GLIBCXX_MOVE(__a);
      __a = _GLIBCXX_MOVE(__b);
   d68a0:	9204      	str	r2, [sp, #16]
   d68a2:	7423      	strb	r3, [r4, #16]
	typedef _Function_handler<_Signature_type, _Functor> _My_handler;

	if (_My_handler::_M_not_empty_function(__f))
	  {
	    _My_handler::_M_init_functor(_M_functor, std::move(__f));
	    _M_invoker = &_My_handler::_M_invoke;
   d68a4:	4b0a      	ldr	r3, [pc, #40]	; (d68d0 <_ZN8particle6detail14FutureImplBaseIbNS0_13FutureContextEE14invokeCallbackIFvRKbEIRbEEEvRSt6atomicIPSt8functionIT_EEDpOT0_+0xa4>)
   d68a6:	60eb      	str	r3, [r5, #12]
	    _M_manager = &_My_handler::_M_manager;
   d68a8:	4b0a      	ldr	r3, [pc, #40]	; (d68d4 <_ZN8particle6detail14FutureImplBaseIbNS0_13FutureContextEE14invokeCallbackIFvRKbEIRbEEEvRSt6atomicIPSt8functionIT_EEDpOT0_+0xa8>)
	_M_init_functor(_Any_data& __functor, _Functor&& __f, true_type)
	{ new (__functor._M_access()) _Functor(std::move(__f)); }

	static void
	_M_init_functor(_Any_data& __functor, _Functor&& __f, false_type)
	{ __functor._M_access<_Functor*>() = new _Functor(std::move(__f)); }
   d68aa:	602c      	str	r4, [r5, #0]

	if (_My_handler::_M_not_empty_function(__f))
	  {
	    _My_handler::_M_init_functor(_M_functor, std::move(__f));
	    _M_invoker = &_My_handler::_M_invoke;
	    _M_manager = &_My_handler::_M_manager;
   d68ac:	60ab      	str	r3, [r5, #8]
   *  @ingroup functors
   *
   *  Polymorphic function wrapper.
   */
  template<typename _Res, typename... _ArgTypes>
    class function<_Res(_ArgTypes...)>
   d68ae:	a801      	add	r0, sp, #4
   d68b0:	f7ff fcd7 	bl	d6262 <_ZNSt14_Function_baseD1Ev>
        spark_process();
    }

    // Asynchronously invokes a callback in the application context
    static bool invokeApplicationCallback(void (*callback)(void* data), void* data) {
        return (application_thread_invoke(callback, data, nullptr) == 0);
   d68b4:	2200      	movs	r2, #0
   d68b6:	4629      	mov	r1, r5
   d68b8:	4807      	ldr	r0, [pc, #28]	; (d68d8 <_ZN8particle6detail14FutureImplBaseIbNS0_13FutureContextEE14invokeCallbackIFvRKbEIRbEEEvRSt6atomicIPSt8functionIT_EEDpOT0_+0xac>)
   d68ba:	f7ff fa17 	bl	d5cec <application_thread_invoke>
   d68be:	4630      	mov	r0, r6
   d68c0:	f7ff fccf 	bl	d6262 <_ZNSt14_Function_baseD1Ev>
    template<typename FunctionT, typename... ArgsT>
    static void invokeCallback(std::atomic<std::function<FunctionT>*>& wrapper, ArgsT&&... args) {
        std::function<FunctionT>* callbackPtr = wrapper.exchange(nullptr, std::memory_order_acq_rel);
        if (callbackPtr) {
            invokeCallback(*callbackPtr, std::forward<ArgsT>(args)...);
            delete callbackPtr;
   d68c4:	2110      	movs	r1, #16
   d68c6:	4630      	mov	r0, r6
   d68c8:	f000 fcd6 	bl	d7278 <_ZdlPvj>
        }
    }
   d68cc:	b007      	add	sp, #28
   d68ce:	bdf0      	pop	{r4, r5, r6, r7, pc}
   d68d0:	000d6517 	.word	0x000d6517
   d68d4:	000d67e5 	.word	0x000d67e5
   d68d8:	000d6cf1 	.word	0x000d6cf1

000d68dc <_ZN12_GLOBAL__N_125publishCompletionCallbackEiPKvPvS2_>:

namespace {

using namespace particle;

void publishCompletionCallback(int error, const void* data, void* callbackData, void* reserved) {
   d68dc:	b530      	push	{r4, r5, lr}
   d68de:	b085      	sub	sp, #20
   d68e0:	4604      	mov	r4, r0
   d68e2:	460d      	mov	r5, r1
    auto p = Promise<bool>::fromDataPtr(callbackData);
   d68e4:	4668      	mov	r0, sp
   d68e6:	4611      	mov	r1, r2
   d68e8:	f7ff fdc9 	bl	d647e <_ZN8particle11PromiseBaseIbNS_6detail13FutureContextEE11fromDataPtrEPv>
    if (error != Error::NONE) {
   d68ec:	b17c      	cbz	r4, d690e <_ZN12_GLOBAL__N_125publishCompletionCallbackEiPKvPvS2_+0x32>
        p.setError(Error((Error::Type)error, (const char*)data));
   d68ee:	b224      	sxth	r4, r4
   d68f0:	4628      	mov	r0, r5
   d68f2:	b10d      	cbz	r5, d68f8 <_ZN12_GLOBAL__N_125publishCompletionCallbackEiPKvPvS2_+0x1c>
   d68f4:	f001 fad2 	bl	d7e9c <strdup>
   d68f8:	9002      	str	r0, [sp, #8]
   d68fa:	a902      	add	r1, sp, #8
   d68fc:	4668      	mov	r0, sp
   d68fe:	f8ad 400c 	strh.w	r4, [sp, #12]
   d6902:	f7ff fe1f 	bl	d6544 <_ZN8particle11PromiseBaseIbNS_6detail13FutureContextEE8setErrorENS_5ErrorE>
   d6906:	a802      	add	r0, sp, #8
   d6908:	f7ff fd7e 	bl	d6408 <_ZN8particle5ErrorD1Ev>
   d690c:	e01d      	b.n	d694a <_ZN12_GLOBAL__N_125publishCompletionCallbackEiPKvPvS2_+0x6e>
   d690e:	9800      	ldr	r0, [sp, #0]
            onSuccess_(nullptr),
            onError_(nullptr) {
    }

    bool changeState(State state) {
        State s = State::RUNNING; // Expected state
   d6910:	f88d 4008 	strb.w	r4, [sp, #8]

      bool
      compare_exchange_strong(_Tp& __e, _Tp __i, memory_order __s, 
			      memory_order __f) noexcept
      {
	return __atomic_compare_exchange(&_M_i, &__e, &__i, false, __s, __f);
   d6914:	f04f 0201 	mov.w	r2, #1
   d6918:	e8d0 3f4f 	ldrexb	r3, [r0]
   d691c:	42a3      	cmp	r3, r4
   d691e:	d103      	bne.n	d6928 <_ZN12_GLOBAL__N_125publishCompletionCallbackEiPKvPvS2_+0x4c>
   d6920:	e8c0 2f41 	strexb	r1, r2, [r0]
   d6924:	2900      	cmp	r1, #0
   d6926:	d1f7      	bne.n	d6918 <_ZN12_GLOBAL__N_125publishCompletionCallbackEiPKvPvS2_+0x3c>
   d6928:	d002      	beq.n	d6930 <_ZN12_GLOBAL__N_125publishCompletionCallbackEiPKvPvS2_+0x54>
   d692a:	f88d 3008 	strb.w	r3, [sp, #8]
   d692e:	e00c      	b.n	d694a <_ZN12_GLOBAL__N_125publishCompletionCallbackEiPKvPvS2_+0x6e>
        }
    }

    void setResult(ResultT result) {
        if (this->changeState(State::SUCCEEDED)) {
            new(&result_) ResultT(std::move(result));
   d6930:	f110 010c 	adds.w	r1, r0, #12
   d6934:	f04f 0301 	mov.w	r3, #1
   d6938:	bf18      	it	ne
   d693a:	7303      	strbne	r3, [r0, #12]
        memory_order __b = __m & __memory_order_mask;
	__glibcxx_assert(__b != memory_order_acquire);
	__glibcxx_assert(__b != memory_order_acq_rel);
	__glibcxx_assert(__b != memory_order_consume);

	__atomic_store_n(&_M_i, __i, __m);
   d693c:	f3bf 8f5f 	dmb	sy
            this->releaseDone();
            this->invokeCallback(this->onSuccess_, result_);
   d6940:	3004      	adds	r0, #4
   d6942:	f800 3c03 	strb.w	r3, [r0, #-3]
   d6946:	f7ff ff71 	bl	d682c <_ZN8particle6detail14FutureImplBaseIbNS0_13FutureContextEE14invokeCallbackIFvRKbEIRbEEEvRSt6atomicIPSt8functionIT_EEDpOT0_>
   d694a:	a801      	add	r0, sp, #4
   d694c:	f7ff fbb9 	bl	d60c2 <_ZNSt14__shared_countILN9__gnu_cxx12_Lock_policyE0EED1Ev>
    } else {
        p.setResult(true);
    }
}
   d6950:	b005      	add	sp, #20
   d6952:	bd30      	pop	{r4, r5, pc}

000d6954 <_ZN9IPAddressD1Ev>:
    IPAddress(uint8_t first_octet, uint8_t second_octet, uint8_t third_octet, uint8_t fourth_octet);
    IPAddress(uint32_t address);
    IPAddress(const uint8_t* address);
    IPAddress(const HAL_IPAddress& address);

    virtual ~IPAddress() {}
   d6954:	4770      	bx	lr

000d6956 <_ZN9IPAddressD0Ev>:
   d6956:	b510      	push	{r4, lr}
   d6958:	2118      	movs	r1, #24
   d695a:	4604      	mov	r4, r0
   d695c:	f000 fc8c 	bl	d7278 <_ZdlPvj>
   d6960:	4620      	mov	r0, r4
   d6962:	bd10      	pop	{r4, pc}

000d6964 <_ZNK9IPAddress7printToER5Print>:
#endif // Wiring_IPv6
	return address.ipv4==that.address.ipv4;
}

size_t IPAddress::printTo(Print& p) const
{
   d6964:	b5f0      	push	{r4, r5, r6, r7, lr}
#if Wiring_IPv6
#if HAL_USE_INET_HAL_POSIX
	if (address.v==6) {
   d6966:	7d03      	ldrb	r3, [r0, #20]
   d6968:	2b06      	cmp	r3, #6
#endif // Wiring_IPv6
	return address.ipv4==that.address.ipv4;
}

size_t IPAddress::printTo(Print& p) const
{
   d696a:	b08d      	sub	sp, #52	; 0x34
   d696c:	460e      	mov	r6, r1
   d696e:	f100 0704 	add.w	r7, r0, #4
   d6972:	f04f 0400 	mov.w	r4, #0
#if Wiring_IPv6
#if HAL_USE_INET_HAL_POSIX
	if (address.v==6) {
   d6976:	d002      	beq.n	d697e <_ZNK9IPAddress7printToER5Print+0x1a>
   d6978:	f100 0508 	add.w	r5, r0, #8
   d697c:	e018      	b.n	d69b0 <_ZNK9IPAddress7printToER5Print+0x4c>
		char buf[INET6_ADDRSTRLEN+1];
		buf[0] = 0;
   d697e:	ad0c      	add	r5, sp, #48	; 0x30
		inet_inet_ntop(AF_INET6, address.ipv6, buf, sizeof(buf));
   d6980:	4639      	mov	r1, r7
{
#if Wiring_IPv6
#if HAL_USE_INET_HAL_POSIX
	if (address.v==6) {
		char buf[INET6_ADDRSTRLEN+1];
		buf[0] = 0;
   d6982:	f805 4d30 	strb.w	r4, [r5, #-48]!
		inet_inet_ntop(AF_INET6, address.ipv6, buf, sizeof(buf));
   d6986:	232f      	movs	r3, #47	; 0x2f
   d6988:	462a      	mov	r2, r5
   d698a:	200a      	movs	r0, #10
   d698c:	f7ff f8ae 	bl	d5aec <inet_inet_ntop>
    void clearWriteError() { setWriteError(0); }

    virtual size_t write(uint8_t) = 0;
    size_t write(const char *str) {
      if (str == NULL) return 0;
      return write((const uint8_t *)str, strlen(str));
   d6990:	4628      	mov	r0, r5
   d6992:	f001 fa9e 	bl	d7ed2 <strlen>
   d6996:	6833      	ldr	r3, [r6, #0]
   d6998:	4602      	mov	r2, r0
   d699a:	68db      	ldr	r3, [r3, #12]
   d699c:	4629      	mov	r1, r5
   d699e:	4630      	mov	r0, r6
   d69a0:	4798      	blx	r3
   d69a2:	e00f      	b.n	d69c4 <_ZNK9IPAddress7printToER5Print+0x60>
#endif // HAL_USE_INET_HAL_POSIX
#endif // Wiring_IPv6
    size_t n = 0;
    for (int i = 0; i < 4; i++)
    {
        if (n)
   d69a4:	b124      	cbz	r4, d69b0 <_ZNK9IPAddress7printToER5Print+0x4c>
            n += p.print('.');
   d69a6:	212e      	movs	r1, #46	; 0x2e
   d69a8:	4630      	mov	r0, r6
   d69aa:	f7ff fbd1 	bl	d6150 <_ZN5Print5printEc>
   d69ae:	4404      	add	r4, r0
            t = print('-');
            val = -n;
        } else {
            val = n;
        }
        return printNumber(val, base) + t;
   d69b0:	f815 1d01 	ldrb.w	r1, [r5, #-1]!
   d69b4:	220a      	movs	r2, #10
   d69b6:	4630      	mov	r0, r6
   d69b8:	f7ff fbe3 	bl	d6182 <_ZN5Print11printNumberEmh>
#else
#pragma message "HAL_USE_INET_HAL_POSIX is required for IPv6 support in IPAddress::printTo()"
#endif // HAL_USE_INET_HAL_POSIX
#endif // Wiring_IPv6
    size_t n = 0;
    for (int i = 0; i < 4; i++)
   d69bc:	42bd      	cmp	r5, r7
    {
        if (n)
            n += p.print('.');
        n += p.print((*this)[i], DEC);
   d69be:	4404      	add	r4, r0
#else
#pragma message "HAL_USE_INET_HAL_POSIX is required for IPv6 support in IPAddress::printTo()"
#endif // HAL_USE_INET_HAL_POSIX
#endif // Wiring_IPv6
    size_t n = 0;
    for (int i = 0; i < 4; i++)
   d69c0:	d1f0      	bne.n	d69a4 <_ZNK9IPAddress7printToER5Print+0x40>
    {
        if (n)
            n += p.print('.');
        n += p.print((*this)[i], DEC);
   d69c2:	4620      	mov	r0, r4
    }
    return n;
}
   d69c4:	b00d      	add	sp, #52	; 0x34
   d69c6:	bdf0      	pop	{r4, r5, r6, r7, pc}

000d69c8 <_ZN9IPAddressC1Ev>:

#if HAL_USE_INET_HAL_POSIX
#include <arpa/inet.h>
#endif // HAL_USE_INET_HAL_POSIX

IPAddress::IPAddress()
   d69c8:	b510      	push	{r4, lr}
   d69ca:	4b05      	ldr	r3, [pc, #20]	; (d69e0 <_ZN9IPAddressC1Ev+0x18>)
   d69cc:	4604      	mov	r4, r0
        return address;
    }

    virtual size_t printTo(Print& p) const;

    void clear() { memset(&address, 0, sizeof (address)); }
   d69ce:	2211      	movs	r2, #17
   d69d0:	f840 3b04 	str.w	r3, [r0], #4
   d69d4:	2100      	movs	r1, #0
   d69d6:	f001 f9e4 	bl	d7da2 <memset>
{
    clear();
}
   d69da:	4620      	mov	r0, r4
   d69dc:	bd10      	pop	{r4, pc}
   d69de:	bf00      	nop
   d69e0:	000d8894 	.word	0x000d8894

000d69e4 <_ZN9IPAddressC1ERK16_HAL_IPAddress_t>:

IPAddress::IPAddress(const HAL_IPAddress& address)
   d69e4:	4603      	mov	r3, r0
   d69e6:	4a07      	ldr	r2, [pc, #28]	; (d6a04 <_ZN9IPAddressC1ERK16_HAL_IPAddress_t+0x20>)
   d69e8:	b510      	push	{r4, lr}
   d69ea:	f843 2b04 	str.w	r2, [r3], #4
{
    memcpy(&this->address, &address, sizeof(address));
   d69ee:	f101 0210 	add.w	r2, r1, #16
   d69f2:	f851 4b04 	ldr.w	r4, [r1], #4
   d69f6:	f843 4b04 	str.w	r4, [r3], #4
   d69fa:	4291      	cmp	r1, r2
   d69fc:	d1f9      	bne.n	d69f2 <_ZN9IPAddressC1ERK16_HAL_IPAddress_t+0xe>
   d69fe:	780a      	ldrb	r2, [r1, #0]
   d6a00:	701a      	strb	r2, [r3, #0]
}
   d6a02:	bd10      	pop	{r4, pc}
   d6a04:	000d8894 	.word	0x000d8894

000d6a08 <_ZN9IPAddress8set_ipv4Ehhhh>:
    return address.ipv4!=0;
#endif
}

void IPAddress::set_ipv4(uint8_t b0, uint8_t b1, uint8_t b2, uint8_t b3)
{
   d6a08:	b510      	push	{r4, lr}
    address.ipv4 = b0<<24 | b1 << 16 | b2 << 8 | b3;
   d6a0a:	f89d 4008 	ldrb.w	r4, [sp, #8]
   d6a0e:	ea44 2303 	orr.w	r3, r4, r3, lsl #8
   d6a12:	ea43 4202 	orr.w	r2, r3, r2, lsl #16
   d6a16:	ea42 6101 	orr.w	r1, r2, r1, lsl #24
        return &address;
    }

    inline void setVersion(uint8_t version) {
#if HAL_IPv6
        address.v = version;
   d6a1a:	2304      	movs	r3, #4
   d6a1c:	6041      	str	r1, [r0, #4]
   d6a1e:	7503      	strb	r3, [r0, #20]
   d6a20:	bd10      	pop	{r4, pc}

000d6a22 <_ZN9IPAddressaSEPKh>:
    setVersion(4);
}

IPAddress& IPAddress::operator=(const uint8_t* address)
{
   d6a22:	b537      	push	{r0, r1, r2, r4, r5, lr}
    set_ipv4(address[0], address[1], address[2], address[3]);
   d6a24:	780d      	ldrb	r5, [r1, #0]
   d6a26:	788b      	ldrb	r3, [r1, #2]
   d6a28:	784a      	ldrb	r2, [r1, #1]
   d6a2a:	78c9      	ldrb	r1, [r1, #3]
   d6a2c:	9100      	str	r1, [sp, #0]
   d6a2e:	4629      	mov	r1, r5
   d6a30:	f7ff ffea 	bl	d6a08 <_ZN9IPAddress8set_ipv4Ehhhh>
    return *this;
}
   d6a34:	b003      	add	sp, #12
   d6a36:	bd30      	pop	{r4, r5, pc}

000d6a38 <_ZN9USBSerial14blockOnOverrunEb>:
  HAL_USB_USART_Flush_Data(_serial);
}

void USBSerial::blockOnOverrun(bool block)
{
  _blocking = block;
   d6a38:	7441      	strb	r1, [r0, #17]
   d6a3a:	4770      	bx	lr

000d6a3c <_ZN9USBSerialD1Ev>:
#include "usb_hal.h"
#include "system_task.h"
#include "spark_wiring_startup.h"
#include "concurrent_hal.h"

class USBSerial : public Stream
   d6a3c:	4770      	bx	lr

000d6a3e <_ZN9USBSerial4readEv>:
}


// Read data from buffer
int USBSerial::read()
{
   d6a3e:	b508      	push	{r3, lr}
	return std::max(-1, (int)HAL_USB_USART_Receive_Data(_serial, false));
   d6a40:	2100      	movs	r1, #0
   d6a42:	7c00      	ldrb	r0, [r0, #16]
   d6a44:	f7ff f912 	bl	d5c6c <HAL_USB_USART_Receive_Data>
}
   d6a48:	ea30 0020 	bics.w	r0, r0, r0, asr #32
   d6a4c:	bf28      	it	cs
   d6a4e:	f04f 30ff 	movcs.w	r0, #4294967295
   d6a52:	bd08      	pop	{r3, pc}

000d6a54 <_ZN9USBSerial4peekEv>:
{
  _blocking = block;
}

int USBSerial::peek()
{
   d6a54:	b508      	push	{r3, lr}
	return std::max(-1, (int)HAL_USB_USART_Receive_Data(_serial, true));
   d6a56:	2101      	movs	r1, #1
   d6a58:	7c00      	ldrb	r0, [r0, #16]
   d6a5a:	f7ff f907 	bl	d5c6c <HAL_USB_USART_Receive_Data>
}
   d6a5e:	ea30 0020 	bics.w	r0, r0, r0, asr #32
   d6a62:	bf28      	it	cs
   d6a64:	f04f 30ff 	movcs.w	r0, #4294967295
   d6a68:	bd08      	pop	{r3, pc}

000d6a6a <_ZN9USBSerial17availableForWriteEv>:
{
	return std::max(-1, (int)HAL_USB_USART_Receive_Data(_serial, false));
}

int USBSerial::availableForWrite()
{
   d6a6a:	b508      	push	{r3, lr}
  return std::max(0, (int)HAL_USB_USART_Available_Data_For_Write(_serial));
   d6a6c:	7c00      	ldrb	r0, [r0, #16]
   d6a6e:	f7ff f8f5 	bl	d5c5c <HAL_USB_USART_Available_Data_For_Write>
}
   d6a72:	ea20 70e0 	bic.w	r0, r0, r0, asr #31
   d6a76:	bd08      	pop	{r3, pc}

000d6a78 <_ZN9USBSerial9availableEv>:

int USBSerial::available()
{
   d6a78:	b508      	push	{r3, lr}
	return std::max(0, (int)HAL_USB_USART_Available_Data(_serial));
   d6a7a:	7c00      	ldrb	r0, [r0, #16]
   d6a7c:	f7ff f8e6 	bl	d5c4c <HAL_USB_USART_Available_Data>
}
   d6a80:	ea20 70e0 	bic.w	r0, r0, r0, asr #31
   d6a84:	bd08      	pop	{r3, pc}

000d6a86 <_ZN9USBSerial5flushEv>:
  return 0;
}

void USBSerial::flush()
{
  HAL_USB_USART_Flush_Data(_serial);
   d6a86:	7c00      	ldrb	r0, [r0, #16]
   d6a88:	f7ff b900 	b.w	d5c8c <HAL_USB_USART_Flush_Data>

000d6a8c <_ZN9USBSerialD0Ev>:
   d6a8c:	b510      	push	{r4, lr}
   d6a8e:	2114      	movs	r1, #20
   d6a90:	4604      	mov	r4, r0
   d6a92:	f000 fbf1 	bl	d7278 <_ZdlPvj>
   d6a96:	4620      	mov	r0, r4
   d6a98:	bd10      	pop	{r4, pc}

000d6a9a <_ZN9USBSerial5writeEh>:
{
	return std::max(0, (int)HAL_USB_USART_Available_Data(_serial));
}

size_t USBSerial::write(uint8_t byte)
{
   d6a9a:	b538      	push	{r3, r4, r5, lr}
   d6a9c:	4604      	mov	r4, r0
  if (HAL_USB_USART_Available_Data_For_Write(_serial) > 0 || _blocking) {
   d6a9e:	7c00      	ldrb	r0, [r0, #16]
{
	return std::max(0, (int)HAL_USB_USART_Available_Data(_serial));
}

size_t USBSerial::write(uint8_t byte)
{
   d6aa0:	460d      	mov	r5, r1
  if (HAL_USB_USART_Available_Data_For_Write(_serial) > 0 || _blocking) {
   d6aa2:	f7ff f8db 	bl	d5c5c <HAL_USB_USART_Available_Data_For_Write>
   d6aa6:	2800      	cmp	r0, #0
   d6aa8:	dc01      	bgt.n	d6aae <_ZN9USBSerial5writeEh+0x14>
   d6aaa:	7c60      	ldrb	r0, [r4, #17]
   d6aac:	b128      	cbz	r0, d6aba <_ZN9USBSerial5writeEh+0x20>
    return std::max(0, (int)HAL_USB_USART_Send_Data(_serial, byte));
   d6aae:	4629      	mov	r1, r5
   d6ab0:	7c20      	ldrb	r0, [r4, #16]
   d6ab2:	f7ff f8e3 	bl	d5c7c <HAL_USB_USART_Send_Data>
   d6ab6:	ea20 70e0 	bic.w	r0, r0, r0, asr #31
  }
  return 0;
}
   d6aba:	bd38      	pop	{r3, r4, r5, pc}

000d6abc <_ZN9USBSerialC1E20HAL_USB_USART_SerialRK20HAL_USB_USART_Config>:

  HAL_USB_USART_Config conf = acquireSerialBuffer();
  HAL_USB_USART_Init(_serial, &conf);
}

USBSerial::USBSerial(HAL_USB_USART_Serial serial, const HAL_USB_USART_Config& conf)
   d6abc:	b510      	push	{r4, lr}
   d6abe:	4604      	mov	r4, r0
  protected:
    void setWriteError(int err = 1) { write_error = err; }
    size_t printf_impl(bool newline, const char* format, ...);

  public:
    Print() : write_error(0) {}
   d6ac0:	2300      	movs	r3, #0
   d6ac2:	6063      	str	r3, [r4, #4]
    virtual int available() = 0;
    virtual int read() = 0;
    virtual int peek() = 0;
    virtual void flush() = 0;

    Stream() {_timeout=1000;}
   d6ac4:	f44f 737a 	mov.w	r3, #1000	; 0x3e8
   d6ac8:	60a3      	str	r3, [r4, #8]
   d6aca:	4b05      	ldr	r3, [pc, #20]	; (d6ae0 <_ZN9USBSerialC1E20HAL_USB_USART_SerialRK20HAL_USB_USART_Config+0x24>)
   d6acc:	6023      	str	r3, [r4, #0]
{
  _serial = serial;
  _blocking = true;
   d6ace:	2301      	movs	r3, #1

  HAL_USB_USART_Config conf = acquireSerialBuffer();
  HAL_USB_USART_Init(_serial, &conf);
}

USBSerial::USBSerial(HAL_USB_USART_Serial serial, const HAL_USB_USART_Config& conf)
   d6ad0:	4608      	mov	r0, r1
{
  _serial = serial;
   d6ad2:	7421      	strb	r1, [r4, #16]
  _blocking = true;
   d6ad4:	7463      	strb	r3, [r4, #17]

  HAL_USB_USART_Init(_serial, &conf);
   d6ad6:	4611      	mov	r1, r2
   d6ad8:	f7ff f8a8 	bl	d5c2c <HAL_USB_USART_Init>
}
   d6adc:	4620      	mov	r0, r4
   d6ade:	bd10      	pop	{r4, pc}
   d6ae0:	000d88a8 	.word	0x000d88a8

000d6ae4 <_ZN9USBSerial5beginEl>:
// Public methods
//

void USBSerial::begin(long speed)
{
    HAL_USB_USART_Begin(_serial, speed, NULL);
   d6ae4:	2200      	movs	r2, #0
   d6ae6:	7c00      	ldrb	r0, [r0, #16]
   d6ae8:	f7ff b8a8 	b.w	d5c3c <HAL_USB_USART_Begin>

000d6aec <_Z19acquireSerialBufferv>:

// Preinstantiate Objects //////////////////////////////////////////////////////
#ifdef SPARK_USB_SERIAL

HAL_USB_USART_Config __attribute__((weak)) acquireSerialBuffer()
{
   d6aec:	b510      	push	{r4, lr}
  HAL_USB_USART_Config conf = {0};
   d6aee:	2214      	movs	r2, #20

// Preinstantiate Objects //////////////////////////////////////////////////////
#ifdef SPARK_USB_SERIAL

HAL_USB_USART_Config __attribute__((weak)) acquireSerialBuffer()
{
   d6af0:	4604      	mov	r4, r0
  HAL_USB_USART_Config conf = {0};
   d6af2:	2100      	movs	r1, #0
   d6af4:	f001 f955 	bl	d7da2 <memset>
  conf.rx_buffer_size = USB_RX_BUFFER_SIZE;
  conf.tx_buffer_size = USB_TX_BUFFER_SIZE;
#endif

  return conf;
}
   d6af8:	4620      	mov	r0, r4
   d6afa:	bd10      	pop	{r4, pc}

000d6afc <_Z16_fetch_usbserialv>:

USBSerial& _fetch_usbserial()
{
   d6afc:	b530      	push	{r4, r5, lr}
  HAL_USB_USART_Config conf = acquireSerialBuffer();
	static USBSerial _usbserial(HAL_USB_USART_SERIAL, conf);
   d6afe:	4d0e      	ldr	r5, [pc, #56]	; (d6b38 <_Z16_fetch_usbserialv+0x3c>)

  return conf;
}

USBSerial& _fetch_usbserial()
{
   d6b00:	b087      	sub	sp, #28
  HAL_USB_USART_Config conf = acquireSerialBuffer();
   d6b02:	a801      	add	r0, sp, #4
   d6b04:	f7ff fff2 	bl	d6aec <_Z19acquireSerialBufferv>
	static USBSerial _usbserial(HAL_USB_USART_SERIAL, conf);
   d6b08:	6829      	ldr	r1, [r5, #0]
   d6b0a:	f011 0401 	ands.w	r4, r1, #1
   d6b0e:	d110      	bne.n	d6b32 <_Z16_fetch_usbserialv+0x36>
   d6b10:	4628      	mov	r0, r5
   d6b12:	f7fd fad3 	bl	d40bc <__cxa_guard_acquire>
   d6b16:	b160      	cbz	r0, d6b32 <_Z16_fetch_usbserialv+0x36>
   d6b18:	aa01      	add	r2, sp, #4
   d6b1a:	4621      	mov	r1, r4
   d6b1c:	4807      	ldr	r0, [pc, #28]	; (d6b3c <_Z16_fetch_usbserialv+0x40>)
   d6b1e:	f7ff ffcd 	bl	d6abc <_ZN9USBSerialC1E20HAL_USB_USART_SerialRK20HAL_USB_USART_Config>
   d6b22:	4628      	mov	r0, r5
   d6b24:	f7fd facf 	bl	d40c6 <__cxa_guard_release>
   d6b28:	4a05      	ldr	r2, [pc, #20]	; (d6b40 <_Z16_fetch_usbserialv+0x44>)
   d6b2a:	4906      	ldr	r1, [pc, #24]	; (d6b44 <_Z16_fetch_usbserialv+0x48>)
   d6b2c:	4803      	ldr	r0, [pc, #12]	; (d6b3c <_Z16_fetch_usbserialv+0x40>)
   d6b2e:	f000 fb95 	bl	d725c <__aeabi_atexit>
	return _usbserial;
}
   d6b32:	4802      	ldr	r0, [pc, #8]	; (d6b3c <_Z16_fetch_usbserialv+0x40>)
   d6b34:	b007      	add	sp, #28
   d6b36:	bd30      	pop	{r4, r5, pc}
   d6b38:	2003e3ec 	.word	0x2003e3ec
   d6b3c:	2003e3f0 	.word	0x2003e3f0
   d6b40:	2003e298 	.word	0x2003e298
   d6b44:	000d6a3d 	.word	0x000d6a3d

000d6b48 <_ZN5spark13CellularClass5readyEv>:
        return network_listening(*this, 0, NULL);
    }

    bool ready()
    {
        return network_ready(*this, 0,  NULL);
   d6b48:	2200      	movs	r2, #0
   d6b4a:	4611      	mov	r1, r2
   d6b4c:	6840      	ldr	r0, [r0, #4]
   d6b4e:	f7ff b901 	b.w	d5d54 <network_ready>

000d6b52 <_ZN5spark13CellularClass9listeningEv>:
    uint16_t getListenTimeout(void) {
        return network_get_listen_timeout(*this, 0, NULL);
    }

    bool listening(void) {
        return network_listening(*this, 0, NULL);
   d6b52:	2200      	movs	r2, #0
   d6b54:	4611      	mov	r1, r2
   d6b56:	6840      	ldr	r0, [r0, #4]
   d6b58:	f7ff b91c 	b.w	d5d94 <network_listening>

000d6b5c <_ZN5spark13CellularClass16getListenTimeoutEv>:
    }

    inline void setListenTimeout(std::chrono::seconds s) { setListenTimeout(s.count()); }

    uint16_t getListenTimeout(void) {
        return network_get_listen_timeout(*this, 0, NULL);
   d6b5c:	2200      	movs	r2, #0
   d6b5e:	4611      	mov	r1, r2
   d6b60:	6840      	ldr	r0, [r0, #4]
   d6b62:	f7ff b927 	b.w	d5db4 <network_get_listen_timeout>

000d6b66 <_ZN5spark13CellularClass16setListenTimeoutEt>:
    void listen(bool begin=true) {
        network_listen(*this, begin ? 0 : 1, NULL);
    }

    inline void setListenTimeout(uint16_t timeout) {
        network_set_listen_timeout(*this, timeout, NULL);
   d6b66:	2200      	movs	r2, #0
   d6b68:	6840      	ldr	r0, [r0, #4]
   d6b6a:	f7ff b91b 	b.w	d5da4 <network_set_listen_timeout>

000d6b6e <_ZN5spark13CellularClass6listenEb>:
        cellular_credentials_clear(nullptr);
    }
#endif // HAL_PLATFORM_MESH

    void listen(bool begin=true) {
        network_listen(*this, begin ? 0 : 1, NULL);
   d6b6e:	2200      	movs	r2, #0
   d6b70:	f081 0101 	eor.w	r1, r1, #1
   d6b74:	6840      	ldr	r0, [r0, #4]
   d6b76:	f7ff b905 	b.w	d5d84 <network_listen>

000d6b7a <_ZN5spark13CellularClass3offEv>:
    }
    void on() {
        network_on(*this, 0, 0, NULL);
    }
    void off() {
        network_off(*this, 0, 0, NULL);
   d6b7a:	2300      	movs	r3, #0
   d6b7c:	461a      	mov	r2, r3
   d6b7e:	4619      	mov	r1, r3
   d6b80:	6840      	ldr	r0, [r0, #4]
   d6b82:	f7ff b8f7 	b.w	d5d74 <network_off>

000d6b86 <_ZN5spark13CellularClass2onEv>:

    IPAddress localIP() {
        return IPAddress(((CellularConfig*)network_config(*this, 0, NULL))->nw.aucIP);
    }
    void on() {
        network_on(*this, 0, 0, NULL);
   d6b86:	2300      	movs	r3, #0
   d6b88:	461a      	mov	r2, r3
   d6b8a:	4619      	mov	r1, r3
   d6b8c:	6840      	ldr	r0, [r0, #4]
   d6b8e:	f7ff b8e9 	b.w	d5d64 <network_on>

000d6b92 <_ZN5spark13CellularClass10connectingEv>:
    }
    void connect(unsigned flags=0) {
        network_connect(*this, flags, 0, NULL);
    }
    bool connecting(void) {
        return network_connecting(*this, 0, NULL);
   d6b92:	2200      	movs	r2, #0
   d6b94:	4611      	mov	r1, r2
   d6b96:	6840      	ldr	r0, [r0, #4]
   d6b98:	f7ff b8cc 	b.w	d5d34 <network_connecting>

000d6b9c <_ZN5spark13CellularClass10disconnectEv>:
    }

    void disconnect() {
        network_disconnect(*this, NETWORK_DISCONNECT_REASON_USER, NULL);
   d6b9c:	2200      	movs	r2, #0
   d6b9e:	2102      	movs	r1, #2
   d6ba0:	6840      	ldr	r0, [r0, #4]
   d6ba2:	f7ff b8cf 	b.w	d5d44 <network_disconnect>

000d6ba6 <_ZN5spark13CellularClass7connectEj>:
    }
    void off() {
        network_off(*this, 0, 0, NULL);
    }
    void connect(unsigned flags=0) {
        network_connect(*this, flags, 0, NULL);
   d6ba6:	2300      	movs	r3, #0
   d6ba8:	461a      	mov	r2, r3
   d6baa:	6840      	ldr	r0, [r0, #4]
   d6bac:	f7ff b8ba 	b.w	d5d24 <network_connect>

000d6bb0 <_GLOBAL__sub_I__ZN5spark13CellularClass4RSSIEv>:
        return (band_get.ok = true);
    }

    CellularClass Cellular;
    // NetworkClass& Network = Cellular;
}
   d6bb0:	b538      	push	{r3, r4, r5, lr}
    int tx_total;
    int rx_total;

    CellularDataHal()
    {
        memset(this, 0, sizeof(*this));
   d6bb2:	4c08      	ldr	r4, [pc, #32]	; (d6bd4 <_GLOBAL__sub_I__ZN5spark13CellularClass4RSSIEv+0x24>)
   d6bb4:	2528      	movs	r5, #40	; 0x28
   d6bb6:	462a      	mov	r2, r5
   d6bb8:	2100      	movs	r1, #0
   d6bba:	4620      	mov	r0, r4
   d6bbc:	f001 f8f1 	bl	d7da2 <memset>
        cid = -1;
   d6bc0:	f04f 33ff 	mov.w	r3, #4294967295
   d6bc4:	6063      	str	r3, [r4, #4]
   d6bc6:	4b04      	ldr	r3, [pc, #16]	; (d6bd8 <_GLOBAL__sub_I__ZN5spark13CellularClass4RSSIEv+0x28>)
        size = sizeof(*this);
   d6bc8:	8025      	strh	r5, [r4, #0]
   d6bca:	2204      	movs	r2, #4
   d6bcc:	605a      	str	r2, [r3, #4]

class CellularClass : public NetworkClass
{
public:
    CellularClass() :
            NetworkClass(NETWORK_INTERFACE_CELLULAR) {
   d6bce:	4a03      	ldr	r2, [pc, #12]	; (d6bdc <_GLOBAL__sub_I__ZN5spark13CellularClass4RSSIEv+0x2c>)
   d6bd0:	601a      	str	r2, [r3, #0]
   d6bd2:	bd38      	pop	{r3, r4, r5, pc}
   d6bd4:	2003e40c 	.word	0x2003e40c
   d6bd8:	2003e404 	.word	0x2003e404
   d6bdc:	000d88d8 	.word	0x000d88d8

000d6be0 <_ZN11USARTSerialD1Ev>:
private:
  HAL_USART_Serial _serial;
  bool _blocking;
public:
  USARTSerial(HAL_USART_Serial serial, Ring_Buffer *rx_buffer, Ring_Buffer *tx_buffer);
  virtual ~USARTSerial() {};
   d6be0:	4770      	bx	lr

000d6be2 <_ZN11USARTSerial14blockOnOverrunEb>:
    HAL_USART_Half_Duplex(_serial, Enable);
}

void USARTSerial::blockOnOverrun(bool block)
{
  _blocking = block;
   d6be2:	7441      	strb	r1, [r0, #17]
   d6be4:	4770      	bx	lr

000d6be6 <_ZN11USARTSerial17availableForWriteEv>:
}


int USARTSerial::availableForWrite(void)
{
   d6be6:	b508      	push	{r3, lr}
  return std::max(0, (int)HAL_USART_Available_Data_For_Write(_serial));
   d6be8:	7c00      	ldrb	r0, [r0, #16]
   d6bea:	f7fe ffbf 	bl	d5b6c <HAL_USART_Available_Data_For_Write>
}
   d6bee:	ea20 70e0 	bic.w	r0, r0, r0, asr #31
   d6bf2:	bd08      	pop	{r3, pc}

000d6bf4 <_ZN11USARTSerial9availableEv>:

int USARTSerial::available(void)
{
   d6bf4:	b508      	push	{r3, lr}
  return std::max(0, (int)HAL_USART_Available_Data(_serial));
   d6bf6:	7c00      	ldrb	r0, [r0, #16]
   d6bf8:	f7fe ff90 	bl	d5b1c <HAL_USART_Available_Data>
}
   d6bfc:	ea20 70e0 	bic.w	r0, r0, r0, asr #31
   d6c00:	bd08      	pop	{r3, pc}

000d6c02 <_ZN11USARTSerial4peekEv>:

int USARTSerial::peek(void)
{
   d6c02:	b508      	push	{r3, lr}
  return std::max(-1, (int)HAL_USART_Peek_Data(_serial));
   d6c04:	7c00      	ldrb	r0, [r0, #16]
   d6c06:	f7fe ff99 	bl	d5b3c <HAL_USART_Peek_Data>
}
   d6c0a:	ea30 0020 	bics.w	r0, r0, r0, asr #32
   d6c0e:	bf28      	it	cs
   d6c10:	f04f 30ff 	movcs.w	r0, #4294967295
   d6c14:	bd08      	pop	{r3, pc}

000d6c16 <_ZN11USARTSerial4readEv>:

int USARTSerial::read(void)
{
   d6c16:	b508      	push	{r3, lr}
  return std::max(-1, (int)HAL_USART_Read_Data(_serial));
   d6c18:	7c00      	ldrb	r0, [r0, #16]
   d6c1a:	f7fe ff87 	bl	d5b2c <HAL_USART_Read_Data>
}
   d6c1e:	ea30 0020 	bics.w	r0, r0, r0, asr #32
   d6c22:	bf28      	it	cs
   d6c24:	f04f 30ff 	movcs.w	r0, #4294967295
   d6c28:	bd08      	pop	{r3, pc}

000d6c2a <_ZN11USARTSerial5flushEv>:

void USARTSerial::flush()
{
  HAL_USART_Flush_Data(_serial);
   d6c2a:	7c00      	ldrb	r0, [r0, #16]
   d6c2c:	f7fe bf8e 	b.w	d5b4c <HAL_USART_Flush_Data>

000d6c30 <_ZN11USARTSerialD0Ev>:
   d6c30:	b510      	push	{r4, lr}
   d6c32:	2114      	movs	r1, #20
   d6c34:	4604      	mov	r4, r0
   d6c36:	f000 fb1f 	bl	d7278 <_ZdlPvj>
   d6c3a:	4620      	mov	r0, r4
   d6c3c:	bd10      	pop	{r4, pc}

000d6c3e <_ZN11USARTSerial5writeEh>:
}

size_t USARTSerial::write(uint8_t c)
{
   d6c3e:	b570      	push	{r4, r5, r6, lr}
  // attempt a write if blocking, or for non-blocking if there is room.
  if (_blocking || HAL_USART_Available_Data_For_Write(_serial) > 0) {
   d6c40:	7c45      	ldrb	r5, [r0, #17]
{
  HAL_USART_Flush_Data(_serial);
}

size_t USARTSerial::write(uint8_t c)
{
   d6c42:	4604      	mov	r4, r0
   d6c44:	460e      	mov	r6, r1
  // attempt a write if blocking, or for non-blocking if there is room.
  if (_blocking || HAL_USART_Available_Data_For_Write(_serial) > 0) {
   d6c46:	b925      	cbnz	r5, d6c52 <_ZN11USARTSerial5writeEh+0x14>
   d6c48:	7c00      	ldrb	r0, [r0, #16]
   d6c4a:	f7fe ff8f 	bl	d5b6c <HAL_USART_Available_Data_For_Write>
   d6c4e:	2800      	cmp	r0, #0
   d6c50:	dd05      	ble.n	d6c5e <_ZN11USARTSerial5writeEh+0x20>
    // the HAL always blocks.
	  return HAL_USART_Write_Data(_serial, c);
   d6c52:	4631      	mov	r1, r6
   d6c54:	7c20      	ldrb	r0, [r4, #16]
  }
  return 0;
}
   d6c56:	e8bd 4070 	ldmia.w	sp!, {r4, r5, r6, lr}
size_t USARTSerial::write(uint8_t c)
{
  // attempt a write if blocking, or for non-blocking if there is room.
  if (_blocking || HAL_USART_Available_Data_For_Write(_serial) > 0) {
    // the HAL always blocks.
	  return HAL_USART_Write_Data(_serial, c);
   d6c5a:	f7fe bf57 	b.w	d5b0c <HAL_USART_Write_Data>
  }
  return 0;
}
   d6c5e:	4628      	mov	r0, r5
   d6c60:	bd70      	pop	{r4, r5, r6, pc}
	...

000d6c64 <_ZN11USARTSerialC1E16HAL_USART_SerialP11Ring_BufferS2_>:
#include "spark_wiring_constants.h"
#include "module_info.h"

// Constructors ////////////////////////////////////////////////////////////////

USARTSerial::USARTSerial(HAL_USART_Serial serial, Ring_Buffer *rx_buffer, Ring_Buffer *tx_buffer)
   d6c64:	b510      	push	{r4, lr}
   d6c66:	4604      	mov	r4, r0
   d6c68:	4608      	mov	r0, r1
   d6c6a:	4611      	mov	r1, r2
   d6c6c:	2200      	movs	r2, #0
   d6c6e:	6062      	str	r2, [r4, #4]
   d6c70:	f44f 727a 	mov.w	r2, #1000	; 0x3e8
   d6c74:	60a2      	str	r2, [r4, #8]
   d6c76:	4a05      	ldr	r2, [pc, #20]	; (d6c8c <_ZN11USARTSerialC1E16HAL_USART_SerialP11Ring_BufferS2_+0x28>)
   d6c78:	6022      	str	r2, [r4, #0]
{
  _serial = serial;
  // Default is blocking mode
  _blocking = true;
   d6c7a:	2201      	movs	r2, #1

// Constructors ////////////////////////////////////////////////////////////////

USARTSerial::USARTSerial(HAL_USART_Serial serial, Ring_Buffer *rx_buffer, Ring_Buffer *tx_buffer)
{
  _serial = serial;
   d6c7c:	7420      	strb	r0, [r4, #16]
  // Default is blocking mode
  _blocking = true;
   d6c7e:	7462      	strb	r2, [r4, #17]
  HAL_USART_Init(serial, rx_buffer, tx_buffer);
   d6c80:	461a      	mov	r2, r3
   d6c82:	f7fe ff3b 	bl	d5afc <HAL_USART_Init>
}
   d6c86:	4620      	mov	r0, r4
   d6c88:	bd10      	pop	{r4, pc}
   d6c8a:	bf00      	nop
   d6c8c:	000d890c 	.word	0x000d890c

000d6c90 <_ZN11USARTSerial5beginEmm>:
  begin(baud, SERIAL_8N1);
}

void USARTSerial::begin(unsigned long baud, uint32_t config)
{
  HAL_USART_BeginConfig(_serial, baud, config, 0);
   d6c90:	2300      	movs	r3, #0
   d6c92:	7c00      	ldrb	r0, [r0, #16]
   d6c94:	f7fe bf72 	b.w	d5b7c <HAL_USART_BeginConfig>

000d6c98 <_ZN11USARTSerial5beginEm>:
}
// Public Methods //////////////////////////////////////////////////////////////

void USARTSerial::begin(unsigned long baud)
{
  begin(baud, SERIAL_8N1);
   d6c98:	2200      	movs	r2, #0
   d6c9a:	f7ff bff9 	b.w	d6c90 <_ZN11USARTSerial5beginEmm>

000d6c9e <_ZN11USARTSerial9isEnabledEv>:
USARTSerial::operator bool() {
  return true;
}

bool USARTSerial::isEnabled() {
  return HAL_USART_Is_Enabled(_serial);
   d6c9e:	7c00      	ldrb	r0, [r0, #16]
   d6ca0:	f7fe bf5c 	b.w	d5b5c <HAL_USART_Is_Enabled>

000d6ca4 <_Z22__fetch_global_Serial1v>:
static Ring_Buffer* serial1_rx_buffer = NULL;
static Ring_Buffer* serial1_tx_buffer = NULL;
#endif

USARTSerial& __fetch_global_Serial1()
{
   d6ca4:	b538      	push	{r3, r4, r5, lr}
#if ((MODULE_FUNCTION == MOD_FUNC_USER_PART) || (MODULE_FUNCTION == MOD_FUNC_MONO_FIRMWARE))
	static USARTSerial serial1(HAL_USART_SERIAL1, &serial1_rx_buffer, &serial1_tx_buffer);
   d6ca6:	4d0c      	ldr	r5, [pc, #48]	; (d6cd8 <_Z22__fetch_global_Serial1v+0x34>)
   d6ca8:	6829      	ldr	r1, [r5, #0]
   d6caa:	f011 0401 	ands.w	r4, r1, #1
   d6cae:	d111      	bne.n	d6cd4 <_Z22__fetch_global_Serial1v+0x30>
   d6cb0:	4628      	mov	r0, r5
   d6cb2:	f7fd fa03 	bl	d40bc <__cxa_guard_acquire>
   d6cb6:	b168      	cbz	r0, d6cd4 <_Z22__fetch_global_Serial1v+0x30>
   d6cb8:	4a08      	ldr	r2, [pc, #32]	; (d6cdc <_Z22__fetch_global_Serial1v+0x38>)
   d6cba:	4b09      	ldr	r3, [pc, #36]	; (d6ce0 <_Z22__fetch_global_Serial1v+0x3c>)
   d6cbc:	4809      	ldr	r0, [pc, #36]	; (d6ce4 <_Z22__fetch_global_Serial1v+0x40>)
   d6cbe:	4621      	mov	r1, r4
   d6cc0:	f7ff ffd0 	bl	d6c64 <_ZN11USARTSerialC1E16HAL_USART_SerialP11Ring_BufferS2_>
   d6cc4:	4628      	mov	r0, r5
   d6cc6:	f7fd f9fe 	bl	d40c6 <__cxa_guard_release>
   d6cca:	4a07      	ldr	r2, [pc, #28]	; (d6ce8 <_Z22__fetch_global_Serial1v+0x44>)
   d6ccc:	4907      	ldr	r1, [pc, #28]	; (d6cec <_Z22__fetch_global_Serial1v+0x48>)
   d6cce:	4805      	ldr	r0, [pc, #20]	; (d6ce4 <_Z22__fetch_global_Serial1v+0x40>)
   d6cd0:	f000 fac4 	bl	d725c <__aeabi_atexit>
    serial1_tx_buffer = new Ring_Buffer();
  }
  static USARTSerial serial1(HAL_USART_SERIAL1, serial1_rx_buffer, serial1_tx_buffer);
#endif
	return serial1;
}
   d6cd4:	4803      	ldr	r0, [pc, #12]	; (d6ce4 <_Z22__fetch_global_Serial1v+0x40>)
   d6cd6:	bd38      	pop	{r3, r4, r5, pc}
   d6cd8:	2003e4cc 	.word	0x2003e4cc
   d6cdc:	2003e4d0 	.word	0x2003e4d0
   d6ce0:	2003e448 	.word	0x2003e448
   d6ce4:	2003e434 	.word	0x2003e434
   d6ce8:	2003e298 	.word	0x2003e298
   d6cec:	000d6be1 	.word	0x000d6be1

000d6cf0 <_ZN8particle6detail21futureCallbackWrapperEPv>:
 * License along with this library; if not, see <http://www.gnu.org/licenses/>.
 */

#include "spark_wiring_async.h"

void particle::detail::futureCallbackWrapper(void* data) {
   d6cf0:	b510      	push	{r4, lr}
  template<typename _Res, typename... _ArgTypes>
    _Res
    function<_Res(_ArgTypes...)>::
    operator()(_ArgTypes... __args) const
    {
      if (_M_empty())
   d6cf2:	6883      	ldr	r3, [r0, #8]
   d6cf4:	4604      	mov	r4, r0
   d6cf6:	b90b      	cbnz	r3, d6cfc <_ZN8particle6detail21futureCallbackWrapperEPv+0xc>
	__throw_bad_function_call();
   d6cf8:	f000 fad1 	bl	d729e <_ZSt25__throw_bad_function_callv>
      return _M_invoker(_M_functor, std::forward<_ArgTypes>(__args)...);
   d6cfc:	68c3      	ldr	r3, [r0, #12]
   d6cfe:	4798      	blx	r3

    _Function_base() : _M_manager(nullptr) { }

    ~_Function_base()
    {
      if (_M_manager)
   d6d00:	68a3      	ldr	r3, [r4, #8]
   d6d02:	b11b      	cbz	r3, d6d0c <_ZN8particle6detail21futureCallbackWrapperEPv+0x1c>
	_M_manager(_M_functor, _M_functor, __destroy_functor);
   d6d04:	2203      	movs	r2, #3
   d6d06:	4621      	mov	r1, r4
   d6d08:	4620      	mov	r0, r4
   d6d0a:	4798      	blx	r3
    auto callbackPtr = static_cast<const std::function<void()>*>(data);
    (*callbackPtr)();
    delete callbackPtr;
   d6d0c:	4620      	mov	r0, r4
   d6d0e:	2110      	movs	r1, #16
}
   d6d10:	e8bd 4010 	ldmia.w	sp!, {r4, lr}
#include "spark_wiring_async.h"

void particle::detail::futureCallbackWrapper(void* data) {
    auto callbackPtr = static_cast<const std::function<void()>*>(data);
    (*callbackPtr)();
    delete callbackPtr;
   d6d14:	f000 bab0 	b.w	d7278 <_ZdlPvj>

000d6d18 <_ZN7TwoWireD1Ev>:
private:
  HAL_I2C_Interface _i2c;

public:
  TwoWire(HAL_I2C_Interface i2c, const HAL_I2C_Config& config);
  virtual ~TwoWire() {};
   d6d18:	4770      	bx	lr

000d6d1a <_ZN7TwoWire5writeEPKhj>:

// must be called in:
// slave tx event callback
// or after beginTransmission(address)
size_t TwoWire::write(const uint8_t *data, size_t quantity)
{
   d6d1a:	b5f8      	push	{r3, r4, r5, r6, r7, lr}
   d6d1c:	4606      	mov	r6, r0
   d6d1e:	4615      	mov	r5, r2
   d6d20:	460c      	mov	r4, r1
   d6d22:	188f      	adds	r7, r1, r2
  // in master/slave transmitter mode
  for(size_t i = 0; i < quantity; ++i)
   d6d24:	42bc      	cmp	r4, r7
   d6d26:	d006      	beq.n	d6d36 <_ZN7TwoWire5writeEPKhj+0x1c>
  {
    write(data[i]);
   d6d28:	6833      	ldr	r3, [r6, #0]
   d6d2a:	f814 1b01 	ldrb.w	r1, [r4], #1
   d6d2e:	689b      	ldr	r3, [r3, #8]
   d6d30:	4630      	mov	r0, r6
   d6d32:	4798      	blx	r3
// slave tx event callback
// or after beginTransmission(address)
size_t TwoWire::write(const uint8_t *data, size_t quantity)
{
  // in master/slave transmitter mode
  for(size_t i = 0; i < quantity; ++i)
   d6d34:	e7f6      	b.n	d6d24 <_ZN7TwoWire5writeEPKhj+0xa>
  {
    write(data[i]);
  }

  return quantity;
}
   d6d36:	4628      	mov	r0, r5
   d6d38:	bdf8      	pop	{r3, r4, r5, r6, r7, pc}

000d6d3a <_ZN7TwoWire5writeEh>:
// must be called in:
// slave tx event callback
// or after beginTransmission(address)
size_t TwoWire::write(uint8_t data)
{
  return HAL_I2C_Write_Data(_i2c, data, NULL);
   d6d3a:	2200      	movs	r2, #0
   d6d3c:	7c00      	ldrb	r0, [r0, #16]
   d6d3e:	f7fe bf3d 	b.w	d5bbc <HAL_I2C_Write_Data>

000d6d42 <_ZN7TwoWire9availableEv>:
// must be called in:
// slave rx event callback
// or after requestFrom(address, numBytes)
int TwoWire::available(void)
{
  return HAL_I2C_Available_Data(_i2c, NULL);
   d6d42:	2100      	movs	r1, #0
   d6d44:	7c00      	ldrb	r0, [r0, #16]
   d6d46:	f7fe bf41 	b.w	d5bcc <HAL_I2C_Available_Data>

000d6d4a <_ZN7TwoWire4readEv>:
// must be called in:
// slave rx event callback
// or after requestFrom(address, numBytes)
int TwoWire::read(void)
{
  return HAL_I2C_Read_Data(_i2c, NULL);
   d6d4a:	2100      	movs	r1, #0
   d6d4c:	7c00      	ldrb	r0, [r0, #16]
   d6d4e:	f7fe bf45 	b.w	d5bdc <HAL_I2C_Read_Data>

000d6d52 <_ZN7TwoWire4peekEv>:
// must be called in:
// slave rx event callback
// or after requestFrom(address, numBytes)
int TwoWire::peek(void)
{
  return HAL_I2C_Peek_Data(_i2c, NULL);
   d6d52:	2100      	movs	r1, #0
   d6d54:	7c00      	ldrb	r0, [r0, #16]
   d6d56:	f7fe bf49 	b.w	d5bec <HAL_I2C_Peek_Data>

000d6d5a <_ZN7TwoWire5flushEv>:
}

void TwoWire::flush(void)
{
  HAL_I2C_Flush_Data(_i2c, NULL);
   d6d5a:	2100      	movs	r1, #0
   d6d5c:	7c00      	ldrb	r0, [r0, #16]
   d6d5e:	f7fe bf4d 	b.w	d5bfc <HAL_I2C_Flush_Data>

000d6d62 <_ZN7TwoWireD0Ev>:
   d6d62:	b510      	push	{r4, lr}
   d6d64:	2114      	movs	r1, #20
   d6d66:	4604      	mov	r4, r0
   d6d68:	f000 fa86 	bl	d7278 <_ZdlPvj>
   d6d6c:	4620      	mov	r0, r4
   d6d6e:	bd10      	pop	{r4, pc}

000d6d70 <_ZN7TwoWireC1E17HAL_I2C_InterfaceRK14HAL_I2C_Config>:
#include "i2c_hal.h"
#include "spark_wiring_thread.h"

// Constructors ////////////////////////////////////////////////////////////////

TwoWire::TwoWire(HAL_I2C_Interface i2c, const HAL_I2C_Config& conf)
   d6d70:	b510      	push	{r4, lr}
   d6d72:	4604      	mov	r4, r0
   d6d74:	2300      	movs	r3, #0
   d6d76:	6063      	str	r3, [r4, #4]
   d6d78:	f44f 737a 	mov.w	r3, #1000	; 0x3e8
   d6d7c:	60a3      	str	r3, [r4, #8]
   d6d7e:	4b04      	ldr	r3, [pc, #16]	; (d6d90 <_ZN7TwoWireC1E17HAL_I2C_InterfaceRK14HAL_I2C_Config+0x20>)
{
  _i2c = i2c;
   d6d80:	7421      	strb	r1, [r4, #16]
#include "i2c_hal.h"
#include "spark_wiring_thread.h"

// Constructors ////////////////////////////////////////////////////////////////

TwoWire::TwoWire(HAL_I2C_Interface i2c, const HAL_I2C_Config& conf)
   d6d82:	4608      	mov	r0, r1
   d6d84:	6023      	str	r3, [r4, #0]
{
  _i2c = i2c;
  HAL_I2C_Init(_i2c, &conf);
   d6d86:	4611      	mov	r1, r2
   d6d88:	f7fe ff48 	bl	d5c1c <HAL_I2C_Init>
}
   d6d8c:	4620      	mov	r0, r4
   d6d8e:	bd10      	pop	{r4, pc}
   d6d90:	000d893c 	.word	0x000d893c

000d6d94 <_ZN7TwoWire5beginEv>:
  HAL_I2C_Stretch_Clock(_i2c, stretch, NULL);
}

void TwoWire::begin(void)
{
	HAL_I2C_Begin(_i2c, I2C_MODE_MASTER, 0x00, NULL);
   d6d94:	2300      	movs	r3, #0
   d6d96:	461a      	mov	r2, r3
   d6d98:	4619      	mov	r1, r3
   d6d9a:	7c00      	ldrb	r0, [r0, #16]
   d6d9c:	f7fe bef6 	b.w	d5b8c <HAL_I2C_Begin>

000d6da0 <_ZN7TwoWire17beginTransmissionEh>:
  return HAL_I2C_Request_Data_Ex(_i2c, &conf, nullptr);
}

void TwoWire::beginTransmission(uint8_t address)
{
	HAL_I2C_Begin_Transmission(_i2c, address, NULL);
   d6da0:	2200      	movs	r2, #0
   d6da2:	7c00      	ldrb	r0, [r0, #16]
   d6da4:	f7fe befa 	b.w	d5b9c <HAL_I2C_Begin_Transmission>

000d6da8 <_ZN7TwoWire17beginTransmissionEi>:
}

void TwoWire::beginTransmission(int address)
{
  beginTransmission((uint8_t)address);
   d6da8:	b2c9      	uxtb	r1, r1
   d6daa:	f7ff bff9 	b.w	d6da0 <_ZN7TwoWire17beginTransmissionEh>

000d6dae <_ZN7TwoWire15endTransmissionEh>:
//	no call to endTransmission(true) is made. Some I2C
//	devices will behave oddly if they do not see a STOP.
//
uint8_t TwoWire::endTransmission(uint8_t sendStop)
{
	return HAL_I2C_End_Transmission(_i2c, sendStop, NULL);
   d6dae:	2200      	movs	r2, #0
   d6db0:	7c00      	ldrb	r0, [r0, #16]
   d6db2:	f7fe befb 	b.w	d5bac <HAL_I2C_End_Transmission>

000d6db6 <_ZN7TwoWire15endTransmissionEv>:
//	This provides backwards compatibility with the original
//	definition, and expected behaviour, of endTransmission
//
uint8_t TwoWire::endTransmission(void)
{
  return endTransmission(true);
   d6db6:	2101      	movs	r1, #1
   d6db8:	f7ff bff9 	b.w	d6dae <_ZN7TwoWire15endTransmissionEh>

000d6dbc <_ZN7TwoWire9isEnabledEv>:
  HAL_I2C_Set_Callback_On_Request(_i2c, function, NULL);
}

bool TwoWire::isEnabled()
{
  return HAL_I2C_Is_Enabled(_i2c, NULL);
   d6dbc:	2100      	movs	r1, #0
   d6dbe:	7c00      	ldrb	r0, [r0, #16]
   d6dc0:	f7fe bf24 	b.w	d5c0c <HAL_I2C_Is_Enabled>

000d6dc4 <_Z6randomi>:
#include "spark_wiring_random.h"
#include <stdlib.h>

int random(int max)
{
   d6dc4:	b510      	push	{r4, lr}
  if (0 == max) {
   d6dc6:	4604      	mov	r4, r0
   d6dc8:	b130      	cbz	r0, d6dd8 <_Z6randomi+0x14>
    return 0;
  }
  return rand() % max;
   d6dca:	f001 f81b 	bl	d7e04 <rand>
   d6dce:	fb90 f3f4 	sdiv	r3, r0, r4
   d6dd2:	fb03 0014 	mls	r0, r3, r4, r0
   d6dd6:	bd10      	pop	{r4, pc}
}
   d6dd8:	bd10      	pop	{r4, pc}

000d6dda <_Z6randomii>:

int random(int min, int max)
{
  if (min >= max) {
   d6dda:	4288      	cmp	r0, r1
  }
  return rand() % max;
}

int random(int min, int max)
{
   d6ddc:	b510      	push	{r4, lr}
   d6dde:	4604      	mov	r4, r0
  if (min >= max) {
   d6de0:	da04      	bge.n	d6dec <_Z6randomii+0x12>
    return min;
  }
  return random(max - min) + min;
   d6de2:	1a08      	subs	r0, r1, r0
   d6de4:	f7ff ffee 	bl	d6dc4 <_Z6randomi>
   d6de8:	4420      	add	r0, r4
   d6dea:	bd10      	pop	{r4, pc}
}
   d6dec:	bd10      	pop	{r4, pc}

000d6dee <_ZN5spark9MeshClass9listeningEv>:
    uint16_t getListenTimeout(void) {
        return network_get_listen_timeout(*this, 0, NULL);
    }

    bool listening(void) {
        return network_listening(*this, 0, NULL);
   d6dee:	2200      	movs	r2, #0
   d6df0:	4611      	mov	r1, r2
   d6df2:	6840      	ldr	r0, [r0, #4]
   d6df4:	f7fe bfce 	b.w	d5d94 <network_listening>

000d6df8 <_ZN5spark9MeshClass16getListenTimeoutEv>:
    void setListenTimeout(uint16_t timeout) {
        network_set_listen_timeout(*this, timeout, NULL);
    }

    uint16_t getListenTimeout(void) {
        return network_get_listen_timeout(*this, 0, NULL);
   d6df8:	2200      	movs	r2, #0
   d6dfa:	4611      	mov	r1, r2
   d6dfc:	6840      	ldr	r0, [r0, #4]
   d6dfe:	f7fe bfd9 	b.w	d5db4 <network_get_listen_timeout>

000d6e02 <_ZN5spark9MeshClass16setListenTimeoutEt>:
    void listen(bool begin=true) {
        network_listen(*this, begin ? 0 : 1, NULL);
    }

    void setListenTimeout(uint16_t timeout) {
        network_set_listen_timeout(*this, timeout, NULL);
   d6e02:	2200      	movs	r2, #0
   d6e04:	6840      	ldr	r0, [r0, #4]
   d6e06:	f7fe bfcd 	b.w	d5da4 <network_set_listen_timeout>

000d6e0a <_ZN5spark9MeshClass6listenEb>:
    void disconnect() {
        network_disconnect(*this, NETWORK_DISCONNECT_REASON_USER, NULL);
    }

    void listen(bool begin=true) {
        network_listen(*this, begin ? 0 : 1, NULL);
   d6e0a:	2200      	movs	r2, #0
   d6e0c:	f081 0101 	eor.w	r1, r1, #1
   d6e10:	6840      	ldr	r0, [r0, #4]
   d6e12:	f7fe bfb7 	b.w	d5d84 <network_listen>

000d6e16 <_ZN5spark9MeshClass3offEv>:
    void on() {
        network_on(*this, 0, 0, NULL);
    }

    void off() {
        network_off(*this, 1, 0, NULL);
   d6e16:	2300      	movs	r3, #0
   d6e18:	461a      	mov	r2, r3
   d6e1a:	2101      	movs	r1, #1
   d6e1c:	6840      	ldr	r0, [r0, #4]
   d6e1e:	f7fe bfa9 	b.w	d5d74 <network_off>

000d6e22 <_ZN5spark9MeshClass2onEv>:
    MeshClass() :
            NetworkClass(NETWORK_INTERFACE_MESH) {
    }

    void on() {
        network_on(*this, 0, 0, NULL);
   d6e22:	2300      	movs	r3, #0
   d6e24:	461a      	mov	r2, r3
   d6e26:	4619      	mov	r1, r3
   d6e28:	6840      	ldr	r0, [r0, #4]
   d6e2a:	f7fe bf9b 	b.w	d5d64 <network_on>

000d6e2e <_ZN5spark9MeshClass5readyEv>:
    bool listening(void) {
        return network_listening(*this, 0, NULL);
    }

    bool ready() {
        return network_ready(*this, 0,  NULL);
   d6e2e:	2200      	movs	r2, #0
   d6e30:	4611      	mov	r1, r2
   d6e32:	6840      	ldr	r0, [r0, #4]
   d6e34:	f7fe bf8e 	b.w	d5d54 <network_ready>

000d6e38 <_ZN5spark9MeshClass10connectingEv>:
    void connect(unsigned flags=0) {
        network_connect(*this, flags, 0, NULL);
    }

    bool connecting(void) {
        return network_connecting(*this, 0, NULL);
   d6e38:	2200      	movs	r2, #0
   d6e3a:	4611      	mov	r1, r2
   d6e3c:	6840      	ldr	r0, [r0, #4]
   d6e3e:	f7fe bf79 	b.w	d5d34 <network_connecting>

000d6e42 <_ZN5spark9MeshClass10disconnectEv>:
    }

    void disconnect() {
        network_disconnect(*this, NETWORK_DISCONNECT_REASON_USER, NULL);
   d6e42:	2200      	movs	r2, #0
   d6e44:	2102      	movs	r1, #2
   d6e46:	6840      	ldr	r0, [r0, #4]
   d6e48:	f7fe bf7c 	b.w	d5d44 <network_disconnect>

000d6e4c <_ZN5spark9MeshClass7connectEj>:
    void off() {
        network_off(*this, 1, 0, NULL);
    }

    void connect(unsigned flags=0) {
        network_connect(*this, flags, 0, NULL);
   d6e4c:	2300      	movs	r3, #0
   d6e4e:	461a      	mov	r2, r3
   d6e50:	6840      	ldr	r0, [r0, #4]
   d6e52:	f7fe bf67 	b.w	d5d24 <network_connect>

000d6e56 <_ZNKSt14default_deleteIN6Thread4DataEEclEPS1_.isra.6>:
	       enable_if<is_convertible<_Up*, _Tp*>::value>::type>
        default_delete(const default_delete<_Up>&) noexcept { }

      /// Calls @c delete @p __ptr
      void
      operator()(_Tp* __ptr) const
   d6e56:	b538      	push	{r3, r4, r5, lr}
      {
	static_assert(!is_void<_Tp>::value,
		      "can't delete pointer to incomplete type");
	static_assert(sizeof(_Tp)>0,
		      "can't delete pointer to incomplete type");
	delete __ptr;
   d6e58:	4605      	mov	r5, r0
   d6e5a:	b188      	cbz	r0, d6e80 <_ZNKSt14default_deleteIN6Thread4DataEEclEPS1_.isra.6+0x2a>

      /// Destructor, invokes the deleter if the stored pointer is not null.
      ~unique_ptr() noexcept
      {
	auto& __ptr = std::get<0>(_M_t);
	if (__ptr != nullptr)
   d6e5c:	6804      	ldr	r4, [r0, #0]
   d6e5e:	b14c      	cbz	r4, d6e74 <_ZNKSt14default_deleteIN6Thread4DataEEclEPS1_.isra.6+0x1e>

    _Function_base() : _M_manager(nullptr) { }

    ~_Function_base()
    {
      if (_M_manager)
   d6e60:	68a3      	ldr	r3, [r4, #8]
   d6e62:	b11b      	cbz	r3, d6e6c <_ZNKSt14default_deleteIN6Thread4DataEEclEPS1_.isra.6+0x16>
	_M_manager(_M_functor, _M_functor, __destroy_functor);
   d6e64:	2203      	movs	r2, #3
   d6e66:	4621      	mov	r1, r4
   d6e68:	4620      	mov	r0, r4
   d6e6a:	4798      	blx	r3
      {
	static_assert(!is_void<_Tp>::value,
		      "can't delete pointer to incomplete type");
	static_assert(sizeof(_Tp)>0,
		      "can't delete pointer to incomplete type");
	delete __ptr;
   d6e6c:	2110      	movs	r1, #16
   d6e6e:	4620      	mov	r0, r4
   d6e70:	f000 fa02 	bl	d7278 <_ZdlPvj>
   d6e74:	4628      	mov	r0, r5
   d6e76:	2114      	movs	r1, #20
      }
   d6e78:	e8bd 4038 	ldmia.w	sp!, {r3, r4, r5, lr}
      {
	static_assert(!is_void<_Tp>::value,
		      "can't delete pointer to incomplete type");
	static_assert(sizeof(_Tp)>0,
		      "can't delete pointer to incomplete type");
	delete __ptr;
   d6e7c:	f000 b9fc 	b.w	d7278 <_ZdlPvj>
   d6e80:	bd38      	pop	{r3, r4, r5, pc}

000d6e82 <_ZNKSt14default_deleteI3UDPEclEPS0_.isra.8.constprop.13>:
   d6e82:	b110      	cbz	r0, d6e8a <_ZNKSt14default_deleteI3UDPEclEPS0_.isra.8.constprop.13+0x8>
   d6e84:	6803      	ldr	r3, [r0, #0]
   d6e86:	685b      	ldr	r3, [r3, #4]
   d6e88:	4718      	bx	r3
   d6e8a:	4770      	bx	lr

000d6e8c <_ZN6ThreadD1Ev>:
    Thread(Thread&& thread)
        : d_(std::move(thread.d_))
    {
    }

    ~Thread()
   d6e8c:	b510      	push	{r4, lr}
      }

      /// Return the stored pointer.
      pointer
      get() const noexcept
      { return std::get<0>(_M_t); }
   d6e8e:	6803      	ldr	r3, [r0, #0]
   d6e90:	4604      	mov	r4, r0
        dispose();
    }

    void dispose()
    {
        if (!isValid())
   d6e92:	b1bb      	cbz	r3, d6ec4 <_ZN6ThreadD1Ev+0x38>
        return isCurrent();
    }

    bool isCurrent() const
    {
        return isValid() && os_thread_is_current(d_->handle);
   d6e94:	6858      	ldr	r0, [r3, #4]
   d6e96:	f7fe fe01 	bl	d5a9c <os_thread_is_current>
   d6e9a:	b978      	cbnz	r0, d6ebc <_ZN6ThreadD1Ev+0x30>
   d6e9c:	6823      	ldr	r3, [r4, #0]

        // We shouldn't dispose of current thread
        if (isCurrent())
            return;

        if (!d_->exited) {
   d6e9e:	7c5a      	ldrb	r2, [r3, #17]
   d6ea0:	b912      	cbnz	r2, d6ea8 <_ZN6ThreadD1Ev+0x1c>
        d_.reset();
    }

    bool join()
    {
        return isValid() && os_thread_join(d_->handle)==0;
   d6ea2:	6858      	ldr	r0, [r3, #4]
   d6ea4:	f7fe fe02 	bl	d5aac <os_thread_join>

        if (!d_->exited) {
            join();
        }

        os_thread_cleanup(d_->handle);
   d6ea8:	6823      	ldr	r3, [r4, #0]
   d6eaa:	6858      	ldr	r0, [r3, #4]
   d6eac:	f7fe fe06 	bl	d5abc <os_thread_cleanup>
#endif
    {
      // concept requirements
      __glibcxx_function_requires(_SGIAssignableConcept<_Tp>)

      _Tp __tmp = _GLIBCXX_MOVE(__a);
   d6eb0:	6820      	ldr	r0, [r4, #0]
      __a = _GLIBCXX_MOVE(__b);
   d6eb2:	2300      	movs	r3, #0
   d6eb4:	6023      	str	r3, [r4, #0]
      void
      reset(pointer __p = pointer()) noexcept
      {
	using std::swap;
	swap(std::get<0>(_M_t), __p);
	if (__p != pointer())
   d6eb6:	b128      	cbz	r0, d6ec4 <_ZN6ThreadD1Ev+0x38>
	  get_deleter()(__p);
   d6eb8:	f7ff ffcd 	bl	d6e56 <_ZNKSt14default_deleteIN6Thread4DataEEclEPS1_.isra.6>

      /// Destructor, invokes the deleter if the stored pointer is not null.
      ~unique_ptr() noexcept
      {
	auto& __ptr = std::get<0>(_M_t);
	if (__ptr != nullptr)
   d6ebc:	6820      	ldr	r0, [r4, #0]
   d6ebe:	b108      	cbz	r0, d6ec4 <_ZN6ThreadD1Ev+0x38>
	  get_deleter()(__ptr);
   d6ec0:	f7ff ffc9 	bl	d6e56 <_ZNKSt14default_deleteIN6Thread4DataEEclEPS1_.isra.6>
    }

    ~Thread()
    {
        dispose();
    }
   d6ec4:	4620      	mov	r0, r4
   d6ec6:	bd10      	pop	{r4, pc}

000d6ec8 <_ZN5spark11MeshPublishD1Ev>:
    virtual float getQualityValue() const {
        return 0.0f;
    }
};

class MeshPublish {
   d6ec8:	b538      	push	{r3, r4, r5, lr}
   d6eca:	4604      	mov	r4, r0

      /// Destructor, invokes the deleter if the stored pointer is not null.
      ~unique_ptr()
      {
	auto& __ptr = std::get<0>(_M_t);
	if (__ptr != nullptr)
   d6ecc:	f8d0 01c4 	ldr.w	r0, [r0, #452]	; 0x1c4
   d6ed0:	b108      	cbz	r0, d6ed6 <_ZN5spark11MeshPublishD1Ev+0xe>
      void
      operator()(_Tp* __ptr) const
      {
	static_assert(sizeof(_Tp)>0,
		      "can't delete pointer to incomplete type");
	delete [] __ptr;
   d6ed2:	f7fd f8e6 	bl	d40a2 <_ZdaPv>
        dispose();
    }

    void dispose()
    {
        if (handle_) {
   d6ed6:	f8d4 01c0 	ldr.w	r0, [r4, #448]	; 0x1c0
   d6eda:	b108      	cbz	r0, d6ee0 <_ZN5spark11MeshPublishD1Ev+0x18>
            os_mutex_recursive_destroy(handle_);
   d6edc:	f7fe fdfe 	bl	d5adc <os_mutex_recursive_destroy>

      /// Destructor, invokes the deleter if the stored pointer is not null.
      ~unique_ptr() noexcept
      {
	auto& __ptr = std::get<0>(_M_t);
	if (__ptr != nullptr)
   d6ee0:	f8d4 51bc 	ldr.w	r5, [r4, #444]	; 0x1bc
   d6ee4:	b135      	cbz	r5, d6ef4 <_ZN5spark11MeshPublishD1Ev+0x2c>
      {
	static_assert(!is_void<_Tp>::value,
		      "can't delete pointer to incomplete type");
	static_assert(sizeof(_Tp)>0,
		      "can't delete pointer to incomplete type");
	delete __ptr;
   d6ee6:	4628      	mov	r0, r5
   d6ee8:	f7ff ffd0 	bl	d6e8c <_ZN6ThreadD1Ev>
   d6eec:	2104      	movs	r1, #4
   d6eee:	4628      	mov	r0, r5
   d6ef0:	f000 f9c2 	bl	d7278 <_ZdlPvj>

      /// Destructor, invokes the deleter if the stored pointer is not null.
      ~unique_ptr() noexcept
      {
	auto& __ptr = std::get<0>(_M_t);
	if (__ptr != nullptr)
   d6ef4:	6820      	ldr	r0, [r4, #0]
   d6ef6:	b108      	cbz	r0, d6efc <_ZN5spark11MeshPublishD1Ev+0x34>
	  get_deleter()(__ptr);
   d6ef8:	f7ff ffc3 	bl	d6e82 <_ZNKSt14default_deleteI3UDPEclEPS0_.isra.8.constprop.13>
   d6efc:	4620      	mov	r0, r4
   d6efe:	bd38      	pop	{r3, r4, r5, pc}

000d6f00 <_ZN5spark9MeshClassD1Ev>:
    RecursiveMutex mutex_;
    std::unique_ptr<uint8_t[]> buffer_;
    std::atomic_bool exit_;
};

class MeshClass : public NetworkClass, public MeshPublish {
   d6f00:	b510      	push	{r4, lr}
   d6f02:	4b04      	ldr	r3, [pc, #16]	; (d6f14 <_ZN5spark9MeshClassD1Ev+0x14>)
   d6f04:	4604      	mov	r4, r0
   d6f06:	f840 3b08 	str.w	r3, [r0], #8
   d6f0a:	f7ff ffdd 	bl	d6ec8 <_ZN5spark11MeshPublishD1Ev>
   d6f0e:	4620      	mov	r0, r4
   d6f10:	bd10      	pop	{r4, pc}
   d6f12:	bf00      	nop
   d6f14:	000d8964 	.word	0x000d8964

000d6f18 <_GLOBAL__sub_I__ZN5spark11MeshPublish13Subscriptions20event_handler_existsEPKcPFvS3_S3_EPvN17SubscriptionScope4EnumES3_>:

    return addr;
}

MeshClass Mesh;
} // namespace spark
   d6f18:	b538      	push	{r3, r4, r5, lr}
   d6f1a:	4c0e      	ldr	r4, [pc, #56]	; (d6f54 <_GLOBAL__sub_I__ZN5spark11MeshPublish13Subscriptions20event_handler_existsEPKcPFvS3_S3_EPvN17SubscriptionScope4EnumES3_+0x3c>)
   d6f1c:	4b0e      	ldr	r3, [pc, #56]	; (d6f58 <_GLOBAL__sub_I__ZN5spark11MeshPublish13Subscriptions20event_handler_existsEPKcPFvS3_S3_EPvN17SubscriptionScope4EnumES3_+0x40>)
   d6f1e:	6023      	str	r3, [r4, #0]

  template<std::size_t _Idx, typename _Head>
    struct _Head_base<_Idx, _Head, false>
    {
      constexpr _Head_base()
      : _M_head_impl() { }
   d6f20:	2500      	movs	r5, #0
   d6f22:	2302      	movs	r3, #2
     */
    RecursiveMutex(os_mutex_recursive_t handle) : handle_(handle) {}

    RecursiveMutex() : handle_(nullptr)
    {
        os_mutex_recursive_create(&handle_);
   d6f24:	f504 70e4 	add.w	r0, r4, #456	; 0x1c8
   d6f28:	6063      	str	r3, [r4, #4]
   d6f2a:	60a5      	str	r5, [r4, #8]
   d6f2c:	f8c4 51c4 	str.w	r5, [r4, #452]	; 0x1c4
    /**
     * Creates a shared mutex.
     */
    RecursiveMutex(os_mutex_recursive_t handle) : handle_(handle) {}

    RecursiveMutex() : handle_(nullptr)
   d6f30:	f8c4 51c8 	str.w	r5, [r4, #456]	; 0x1c8
    {
        os_mutex_recursive_create(&handle_);
   d6f34:	f7fe fdca 	bl	d5acc <os_mutex_recursive_create>
public:
    MeshClass() :
            NetworkClass(NETWORK_INTERFACE_MESH) {
   d6f38:	4b08      	ldr	r3, [pc, #32]	; (d6f5c <_GLOBAL__sub_I__ZN5spark11MeshPublish13Subscriptions20event_handler_existsEPKcPFvS3_S3_EPvN17SubscriptionScope4EnumES3_+0x44>)
   d6f3a:	f8c4 51cc 	str.w	r5, [r4, #460]	; 0x1cc
      __atomic_base(const __atomic_base&) = delete;
      __atomic_base& operator=(const __atomic_base&) = delete;
      __atomic_base& operator=(const __atomic_base&) volatile = delete;

      // Requires __int_type convertible to _M_i.
      constexpr __atomic_base(__int_type __i) noexcept : _M_i (__i) { }
   d6f3e:	f884 51d0 	strb.w	r5, [r4, #464]	; 0x1d0
   d6f42:	6023      	str	r3, [r4, #0]
    }

    return addr;
}

MeshClass Mesh;
   d6f44:	4620      	mov	r0, r4
   d6f46:	4a06      	ldr	r2, [pc, #24]	; (d6f60 <_GLOBAL__sub_I__ZN5spark11MeshPublish13Subscriptions20event_handler_existsEPKcPFvS3_S3_EPvN17SubscriptionScope4EnumES3_+0x48>)
   d6f48:	4906      	ldr	r1, [pc, #24]	; (d6f64 <_GLOBAL__sub_I__ZN5spark11MeshPublish13Subscriptions20event_handler_existsEPKcPFvS3_S3_EPvN17SubscriptionScope4EnumES3_+0x4c>)
} // namespace spark
   d6f4a:	e8bd 4038 	ldmia.w	sp!, {r3, r4, r5, lr}
    }

    return addr;
}

MeshClass Mesh;
   d6f4e:	f000 b985 	b.w	d725c <__aeabi_atexit>
   d6f52:	bf00      	nop
   d6f54:	2003e554 	.word	0x2003e554
   d6f58:	000d8998 	.word	0x000d8998
   d6f5c:	000d8964 	.word	0x000d8964
   d6f60:	2003e298 	.word	0x2003e298
   d6f64:	000d6f01 	.word	0x000d6f01

000d6f68 <_ZN5spark12NetworkClass7connectEj>:
        return Network;
    }
}

void NetworkClass::connect(unsigned flags) {
    network_connect(*this, flags, 0, nullptr);
   d6f68:	2300      	movs	r3, #0
   d6f6a:	461a      	mov	r2, r3
   d6f6c:	6840      	ldr	r0, [r0, #4]
   d6f6e:	f7fe bed9 	b.w	d5d24 <network_connect>

000d6f72 <_ZN5spark12NetworkClass10disconnectEv>:
}

void NetworkClass::disconnect() {
    network_disconnect(*this, NETWORK_DISCONNECT_REASON_USER, nullptr);
   d6f72:	2200      	movs	r2, #0
   d6f74:	2102      	movs	r1, #2
   d6f76:	6840      	ldr	r0, [r0, #4]
   d6f78:	f7fe bee4 	b.w	d5d44 <network_disconnect>

000d6f7c <_ZN5spark12NetworkClass10connectingEv>:
}

bool NetworkClass::connecting() {
    return network_connecting(*this, 0, nullptr);
   d6f7c:	2200      	movs	r2, #0
   d6f7e:	4611      	mov	r1, r2
   d6f80:	6840      	ldr	r0, [r0, #4]
   d6f82:	f7fe bed7 	b.w	d5d34 <network_connecting>

000d6f86 <_ZN5spark12NetworkClass5readyEv>:
}

bool NetworkClass::ready() {
    return network_ready(*this, 0, nullptr);
   d6f86:	2200      	movs	r2, #0
   d6f88:	4611      	mov	r1, r2
   d6f8a:	6840      	ldr	r0, [r0, #4]
   d6f8c:	f7fe bee2 	b.w	d5d54 <network_ready>

000d6f90 <_ZN5spark12NetworkClass2onEv>:
}

void NetworkClass::on() {
    network_on(*this, 0, 0, nullptr);
   d6f90:	2300      	movs	r3, #0
   d6f92:	461a      	mov	r2, r3
   d6f94:	4619      	mov	r1, r3
   d6f96:	6840      	ldr	r0, [r0, #4]
   d6f98:	f7fe bee4 	b.w	d5d64 <network_on>

000d6f9c <_ZN5spark12NetworkClass3offEv>:
}

void NetworkClass::off() {
    network_off(*this, 0, 0, nullptr);
   d6f9c:	2300      	movs	r3, #0
   d6f9e:	461a      	mov	r2, r3
   d6fa0:	4619      	mov	r1, r3
   d6fa2:	6840      	ldr	r0, [r0, #4]
   d6fa4:	f7fe bee6 	b.w	d5d74 <network_off>

000d6fa8 <_ZN5spark12NetworkClass6listenEb>:
}

void NetworkClass::listen(bool begin) {
    network_listen(*this, begin ? 0 : 1, nullptr);
   d6fa8:	2200      	movs	r2, #0
   d6faa:	f081 0101 	eor.w	r1, r1, #1
   d6fae:	6840      	ldr	r0, [r0, #4]
   d6fb0:	f7fe bee8 	b.w	d5d84 <network_listen>

000d6fb4 <_ZN5spark12NetworkClass16setListenTimeoutEt>:
}

void NetworkClass::setListenTimeout(uint16_t timeout) {
    network_set_listen_timeout(*this, timeout, nullptr);
   d6fb4:	2200      	movs	r2, #0
   d6fb6:	6840      	ldr	r0, [r0, #4]
   d6fb8:	f7fe bef4 	b.w	d5da4 <network_set_listen_timeout>

000d6fbc <_ZN5spark12NetworkClass16getListenTimeoutEv>:
}

uint16_t NetworkClass::getListenTimeout() {
    return network_get_listen_timeout(*this, 0, nullptr);
   d6fbc:	2200      	movs	r2, #0
   d6fbe:	4611      	mov	r1, r2
   d6fc0:	6840      	ldr	r0, [r0, #4]
   d6fc2:	f7fe bef7 	b.w	d5db4 <network_get_listen_timeout>

000d6fc6 <_ZN5spark12NetworkClass9listeningEv>:
}

bool NetworkClass::listening() {
    return network_listening(*this, 0, nullptr);
   d6fc6:	2200      	movs	r2, #0
   d6fc8:	4611      	mov	r1, r2
   d6fca:	6840      	ldr	r0, [r0, #4]
   d6fcc:	f7fe bee2 	b.w	d5d94 <network_listening>

000d6fd0 <_ZN5spark12NetworkClass7resolveEPKc>:
}

IPAddress NetworkClass::resolve(const char* name) {
   d6fd0:	e92d 43f0 	stmdb	sp!, {r4, r5, r6, r7, r8, r9, lr}
    IPAddress addr;
#if HAL_USE_INET_HAL_POSIX
    struct addrinfo *ai = nullptr;
   d6fd4:	2400      	movs	r4, #0

bool NetworkClass::listening() {
    return network_listening(*this, 0, nullptr);
}

IPAddress NetworkClass::resolve(const char* name) {
   d6fd6:	b095      	sub	sp, #84	; 0x54
   d6fd8:	4616      	mov	r6, r2
   d6fda:	460d      	mov	r5, r1
   d6fdc:	4607      	mov	r7, r0
    IPAddress addr;
   d6fde:	f7ff fcf3 	bl	d69c8 <_ZN9IPAddressC1Ev>
#if HAL_USE_INET_HAL_POSIX
    struct addrinfo *ai = nullptr;
    struct addrinfo hints = {};
   d6fe2:	4621      	mov	r1, r4
   d6fe4:	2220      	movs	r2, #32
   d6fe6:	a80c      	add	r0, sp, #48	; 0x30
}

IPAddress NetworkClass::resolve(const char* name) {
    IPAddress addr;
#if HAL_USE_INET_HAL_POSIX
    struct addrinfo *ai = nullptr;
   d6fe8:	9400      	str	r4, [sp, #0]
    struct addrinfo hints = {};
   d6fea:	f000 feda 	bl	d7da2 <memset>
    hints.ai_flags = AI_ADDRCONFIG;
   d6fee:	2340      	movs	r3, #64	; 0x40
   d6ff0:	930c      	str	r3, [sp, #48]	; 0x30
    hints.ai_family = AF_UNSPEC;
    const int r = getaddrinfo(name, nullptr, &hints, &ai);
   d6ff2:	4621      	mov	r1, r4
   d6ff4:	466b      	mov	r3, sp
   d6ff6:	aa0c      	add	r2, sp, #48	; 0x30
   d6ff8:	4630      	mov	r0, r6
   d6ffa:	f7fe fcb7 	bl	d596c <netdb_getaddrinfo>
    if (!r) {
   d6ffe:	4604      	mov	r4, r0
   d7000:	2800      	cmp	r0, #0
   d7002:	d144      	bne.n	d708e <_ZN5spark12NetworkClass7resolveEPKc+0xbe>
        bool ok = false;
        // This is not really needed if AI_ADDRCONFIG is properly supported
        bool ipv4 = network_ready(*this, NETWORK_READY_TYPE_IPV4, nullptr);
   d7004:	4602      	mov	r2, r0
   d7006:	2101      	movs	r1, #1
   d7008:	6868      	ldr	r0, [r5, #4]
   d700a:	f7fe fea3 	bl	d5d54 <network_ready>
        bool ipv6 = network_ready(*this, NETWORK_READY_TYPE_IPV6, nullptr);
   d700e:	2102      	movs	r1, #2
    hints.ai_family = AF_UNSPEC;
    const int r = getaddrinfo(name, nullptr, &hints, &ai);
    if (!r) {
        bool ok = false;
        // This is not really needed if AI_ADDRCONFIG is properly supported
        bool ipv4 = network_ready(*this, NETWORK_READY_TYPE_IPV4, nullptr);
   d7010:	4680      	mov	r8, r0
        bool ipv6 = network_ready(*this, NETWORK_READY_TYPE_IPV6, nullptr);
   d7012:	4622      	mov	r2, r4
   d7014:	6868      	ldr	r0, [r5, #4]
   d7016:	f7fe fe9d 	bl	d5d54 <network_ready>
        for (auto cur = ai; cur != nullptr && !ok; cur = cur->ai_next) {
   d701a:	9e00      	ldr	r6, [sp, #0]
    const int r = getaddrinfo(name, nullptr, &hints, &ai);
    if (!r) {
        bool ok = false;
        // This is not really needed if AI_ADDRCONFIG is properly supported
        bool ipv4 = network_ready(*this, NETWORK_READY_TYPE_IPV4, nullptr);
        bool ipv6 = network_ready(*this, NETWORK_READY_TYPE_IPV6, nullptr);
   d701c:	4681      	mov	r9, r0
    struct addrinfo hints = {};
    hints.ai_flags = AI_ADDRCONFIG;
    hints.ai_family = AF_UNSPEC;
    const int r = getaddrinfo(name, nullptr, &hints, &ai);
    if (!r) {
        bool ok = false;
   d701e:	4621      	mov	r1, r4
        // This is not really needed if AI_ADDRCONFIG is properly supported
        bool ipv4 = network_ready(*this, NETWORK_READY_TYPE_IPV4, nullptr);
        bool ipv6 = network_ready(*this, NETWORK_READY_TYPE_IPV6, nullptr);
        for (auto cur = ai; cur != nullptr && !ok; cur = cur->ai_next) {
   d7020:	2e00      	cmp	r6, #0
   d7022:	d034      	beq.n	d708e <_ZN5spark12NetworkClass7resolveEPKc+0xbe>
   d7024:	2900      	cmp	r1, #0
   d7026:	d132      	bne.n	d708e <_ZN5spark12NetworkClass7resolveEPKc+0xbe>
            // NOTE: using only the first entry that matches the current state of IPv4/IPv6 connectivity
            switch (cur->ai_family) {
   d7028:	6873      	ldr	r3, [r6, #4]
   d702a:	2b02      	cmp	r3, #2
   d702c:	d002      	beq.n	d7034 <_ZN5spark12NetworkClass7resolveEPKc+0x64>
   d702e:	2b0a      	cmp	r3, #10
   d7030:	d009      	beq.n	d7046 <_ZN5spark12NetworkClass7resolveEPKc+0x76>
   d7032:	e02a      	b.n	d708a <_ZN5spark12NetworkClass7resolveEPKc+0xba>
                case AF_INET: {
                    if (!ipv4) {
   d7034:	f1b8 0f00 	cmp.w	r8, #0
   d7038:	d027      	beq.n	d708a <_ZN5spark12NetworkClass7resolveEPKc+0xba>
                        continue;
                    }
                    // NOTE: HAL_IPAddress is little-endian
                    auto in = (struct sockaddr_in*)cur->ai_addr;
                    addr = (const uint8_t*)(&in->sin_addr.s_addr);
   d703a:	6971      	ldr	r1, [r6, #20]
   d703c:	4638      	mov	r0, r7
   d703e:	3104      	adds	r1, #4
   d7040:	f7ff fcef 	bl	d6a22 <_ZN9IPAddressaSEPKh>
   d7044:	e020      	b.n	d7088 <_ZN5spark12NetworkClass7resolveEPKc+0xb8>
                    ok = true;
                    break;
                }
                case AF_INET6: {
                    if (!ipv6) {
   d7046:	f1b9 0f00 	cmp.w	r9, #0
   d704a:	d01e      	beq.n	d708a <_ZN5spark12NetworkClass7resolveEPKc+0xba>
                        continue;
                    }
                    auto in6 = (struct sockaddr_in6*)cur->ai_addr;
   d704c:	6974      	ldr	r4, [r6, #20]
                    HAL_IPAddress a = {};
   d704e:	2211      	movs	r2, #17
   d7050:	a801      	add	r0, sp, #4
   d7052:	f000 fea6 	bl	d7da2 <memset>
                    a.v = 6;
   d7056:	2306      	movs	r3, #6
   d7058:	f88d 3014 	strb.w	r3, [sp, #20]
                    memcpy(a.ipv6, in6->sin6_addr.s6_addr, sizeof(a.ipv6));
   d705c:	ad01      	add	r5, sp, #4
   d705e:	f104 0308 	add.w	r3, r4, #8
   d7062:	3418      	adds	r4, #24
   d7064:	6818      	ldr	r0, [r3, #0]
   d7066:	6859      	ldr	r1, [r3, #4]
   d7068:	462a      	mov	r2, r5
   d706a:	c203      	stmia	r2!, {r0, r1}
   d706c:	3308      	adds	r3, #8
   d706e:	42a3      	cmp	r3, r4
   d7070:	4615      	mov	r5, r2
   d7072:	d1f7      	bne.n	d7064 <_ZN5spark12NetworkClass7resolveEPKc+0x94>
                    addr = IPAddress(a);
   d7074:	a901      	add	r1, sp, #4
   d7076:	a806      	add	r0, sp, #24

/**
 * The IP address stored in host order.
 *
 */
class IPAddress : public Printable {
   d7078:	ad07      	add	r5, sp, #28
   d707a:	f7ff fcb3 	bl	d69e4 <_ZN9IPAddressC1ERK16_HAL_IPAddress_t>
   d707e:	cd0f      	ldmia	r5!, {r0, r1, r2, r3}
   d7080:	1d3c      	adds	r4, r7, #4
   d7082:	c40f      	stmia	r4!, {r0, r1, r2, r3}
   d7084:	682b      	ldr	r3, [r5, #0]
   d7086:	7023      	strb	r3, [r4, #0]
                    ok = true;
   d7088:	2101      	movs	r1, #1
    if (!r) {
        bool ok = false;
        // This is not really needed if AI_ADDRCONFIG is properly supported
        bool ipv4 = network_ready(*this, NETWORK_READY_TYPE_IPV4, nullptr);
        bool ipv6 = network_ready(*this, NETWORK_READY_TYPE_IPV6, nullptr);
        for (auto cur = ai; cur != nullptr && !ok; cur = cur->ai_next) {
   d708a:	69f6      	ldr	r6, [r6, #28]
   d708c:	e7c8      	b.n	d7020 <_ZN5spark12NetworkClass7resolveEPKc+0x50>
                    break;
                }
            }
        }
    }
    freeaddrinfo(ai);
   d708e:	9800      	ldr	r0, [sp, #0]
   d7090:	f7fe fc64 	bl	d595c <netdb_freeaddrinfo>
    return Cellular.resolve(name);
#endif // Wiring_Cellular

#endif // HAL_USE_INET_HAL_POSIX
    return addr;
}
   d7094:	4638      	mov	r0, r7
   d7096:	b015      	add	sp, #84	; 0x54
   d7098:	e8bd 83f0 	ldmia.w	sp!, {r4, r5, r6, r7, r8, r9, pc}

000d709c <_GLOBAL__sub_I__ZN5spark7NetworkE>:
   d709c:	4b02      	ldr	r3, [pc, #8]	; (d70a8 <_GLOBAL__sub_I__ZN5spark7NetworkE+0xc>)
   d709e:	4a03      	ldr	r2, [pc, #12]	; (d70ac <_GLOBAL__sub_I__ZN5spark7NetworkE+0x10>)
   d70a0:	601a      	str	r2, [r3, #0]
   d70a2:	2200      	movs	r2, #0
   d70a4:	605a      	str	r2, [r3, #4]
   d70a6:	4770      	bx	lr
   d70a8:	2003e728 	.word	0x2003e728
   d70ac:	000d8998 	.word	0x000d8998

000d70b0 <pinAvailable>:

/*
 * @brief Perform safety check on desired pin to see if it's already
 * being used.  Return 0 if used, otherwise return 1 if available.
 */
bool pinAvailable(uint16_t pin) {
   d70b0:	b570      	push	{r4, r5, r6, lr}

template <HAL_SPI_Interface Interface>
class SpiProxy {
public:
    static SPIClass& instance() {
        static SPIClass instance(Interface);
   d70b2:	4e18      	ldr	r6, [pc, #96]	; (d7114 <pinAvailable+0x64>)
   d70b4:	6831      	ldr	r1, [r6, #0]
   d70b6:	f011 0501 	ands.w	r5, r1, #1
   d70ba:	4604      	mov	r4, r0
   d70bc:	d10a      	bne.n	d70d4 <pinAvailable+0x24>
   d70be:	4630      	mov	r0, r6
   d70c0:	f7fc fffc 	bl	d40bc <__cxa_guard_acquire>
   d70c4:	b130      	cbz	r0, d70d4 <pinAvailable+0x24>
   d70c6:	4629      	mov	r1, r5
   d70c8:	4813      	ldr	r0, [pc, #76]	; (d7118 <pinAvailable+0x68>)
   d70ca:	f7fe feff 	bl	d5ecc <_ZN8SPIClassC1E17HAL_SPI_Interface>
   d70ce:	4630      	mov	r0, r6
   d70d0:	f7fc fff9 	bl	d40c6 <__cxa_guard_release>
    }
    void detachInterrupt() {
        instance().detachInterrupt();
    }
    bool isEnabled(void) {
        return instance().isEnabled();
   d70d4:	4810      	ldr	r0, [pc, #64]	; (d7118 <pinAvailable+0x68>)
   d70d6:	f7fe ffa9 	bl	d602c <_ZN8SPIClass9isEnabledEv>

  // SPI safety check
#ifndef SPARK_WIRING_NO_SPI
  if(SPI.isEnabled() == true && (pin == SCK || pin == MOSI || pin == MISO))
   d70da:	b128      	cbz	r0, d70e8 <pinAvailable+0x38>
   d70dc:	f1a4 030b 	sub.w	r3, r4, #11
   d70e0:	2b02      	cmp	r3, #2
   d70e2:	d801      	bhi.n	d70e8 <pinAvailable+0x38>
  {
    return 0; // 'pin' is used
   d70e4:	2000      	movs	r0, #0
   d70e6:	bd70      	pop	{r4, r5, r6, pc}
  }
#endif
  // I2C safety check
#ifndef SPARK_WIRING_NO_I2C
  if(Wire.isEnabled() == true && (pin == SCL || pin == SDA))
   d70e8:	f000 f892 	bl	d7210 <_Z19__fetch_global_Wirev>
   d70ec:	f7ff fe66 	bl	d6dbc <_ZN7TwoWire9isEnabledEv>
   d70f0:	b108      	cbz	r0, d70f6 <pinAvailable+0x46>
   d70f2:	2c01      	cmp	r4, #1
   d70f4:	d9f6      	bls.n	d70e4 <pinAvailable+0x34>
    return 0; // 'pin' is used
  }
#endif
#ifndef SPARK_WIRING_NO_USART_SERIAL
  // Serial1 safety check
  if(Serial1.isEnabled() == true && (pin == RX || pin == TX))
   d70f6:	f7ff fdd5 	bl	d6ca4 <_Z22__fetch_global_Serial1v>
   d70fa:	f7ff fdd0 	bl	d6c9e <_ZN11USARTSerial9isEnabledEv>
   d70fe:	b118      	cbz	r0, d7108 <pinAvailable+0x58>
   d7100:	f1a4 0309 	sub.w	r3, r4, #9
   d7104:	2b01      	cmp	r3, #1
   d7106:	d9ed      	bls.n	d70e4 <pinAvailable+0x34>
  {
    return 0; // 'pin' is used
  }
#endif

  if (pin >= TOTAL_PINS)
   d7108:	2c23      	cmp	r4, #35	; 0x23
   d710a:	bf8c      	ite	hi
   d710c:	2000      	movhi	r0, #0
   d710e:	2001      	movls	r0, #1
    return 0;
  else
    return 1; // 'pin' is available
}
   d7110:	bd70      	pop	{r4, r5, r6, pc}
   d7112:	bf00      	nop
   d7114:	2003e3a8 	.word	0x2003e3a8
   d7118:	2003e3ac 	.word	0x2003e3ac

000d711c <pinMode>:
 * or INPUT_PULLDOWN
 */
void pinMode(uint16_t pin, PinMode setMode)
{

  if(pin >= TOTAL_PINS || setMode == PIN_MODE_NONE )
   d711c:	2823      	cmp	r0, #35	; 0x23
/*
 * @brief Set the mode of the pin to OUTPUT, INPUT, INPUT_PULLUP,
 * or INPUT_PULLDOWN
 */
void pinMode(uint16_t pin, PinMode setMode)
{
   d711e:	b538      	push	{r3, r4, r5, lr}
   d7120:	4604      	mov	r4, r0
   d7122:	460d      	mov	r5, r1

  if(pin >= TOTAL_PINS || setMode == PIN_MODE_NONE )
   d7124:	d80a      	bhi.n	d713c <pinMode+0x20>
   d7126:	29ff      	cmp	r1, #255	; 0xff
   d7128:	d008      	beq.n	d713c <pinMode+0x20>
  {
    return;
  }

  // Safety check
  if( !pinAvailable(pin) ) {
   d712a:	f7ff ffc1 	bl	d70b0 <pinAvailable>
   d712e:	b128      	cbz	r0, d713c <pinMode+0x20>
    return;
  }

  HAL_Pin_Mode(pin, setMode);
   d7130:	4629      	mov	r1, r5
   d7132:	4620      	mov	r0, r4
}
   d7134:	e8bd 4038 	ldmia.w	sp!, {r3, r4, r5, lr}
  // Safety check
  if( !pinAvailable(pin) ) {
    return;
  }

  HAL_Pin_Mode(pin, setMode);
   d7138:	f7fe bc28 	b.w	d598c <HAL_Pin_Mode>
   d713c:	bd38      	pop	{r3, r4, r5, pc}

000d713e <digitalWrite>:

/*
 * @brief Sets a GPIO pin to HIGH or LOW.
 */
void digitalWrite(pin_t pin, uint8_t value)
{
   d713e:	b538      	push	{r3, r4, r5, lr}
   d7140:	4604      	mov	r4, r0
   d7142:	460d      	mov	r5, r1
    PinMode mode = HAL_Get_Pin_Mode(pin);
   d7144:	f7fe fc2a 	bl	d599c <HAL_Get_Pin_Mode>
    if (mode==PIN_MODE_NONE || is_input_mode(mode))
   d7148:	28ff      	cmp	r0, #255	; 0xff
   d714a:	d010      	beq.n	d716e <digitalWrite+0x30>
}

inline bool is_input_mode(PinMode mode) {
    return  mode == INPUT ||
            mode == INPUT_PULLUP ||
            mode == INPUT_PULLDOWN ||
   d714c:	2806      	cmp	r0, #6
   d714e:	d804      	bhi.n	d715a <digitalWrite+0x1c>
   d7150:	234d      	movs	r3, #77	; 0x4d
   d7152:	fa23 f000 	lsr.w	r0, r3, r0
   d7156:	07c3      	lsls	r3, r0, #31
   d7158:	d409      	bmi.n	d716e <digitalWrite+0x30>
{
    PinMode mode = HAL_Get_Pin_Mode(pin);
    if (mode==PIN_MODE_NONE || is_input_mode(mode))
        return;
  // Safety check
  if( !pinAvailable(pin) ) {
   d715a:	4620      	mov	r0, r4
   d715c:	f7ff ffa8 	bl	d70b0 <pinAvailable>
   d7160:	b128      	cbz	r0, d716e <digitalWrite+0x30>
    return;
  }

  HAL_GPIO_Write(pin, value);
   d7162:	4629      	mov	r1, r5
   d7164:	4620      	mov	r0, r4
}
   d7166:	e8bd 4038 	ldmia.w	sp!, {r3, r4, r5, lr}
  // Safety check
  if( !pinAvailable(pin) ) {
    return;
  }

  HAL_GPIO_Write(pin, value);
   d716a:	f7fe bc1f 	b.w	d59ac <HAL_GPIO_Write>
   d716e:	bd38      	pop	{r3, r4, r5, pc}

000d7170 <digitalRead>:

/*
 * @brief Reads the value of a GPIO pin. Should return either 1 (HIGH) or 0 (LOW).
 */
int32_t digitalRead(pin_t pin)
{
   d7170:	b510      	push	{r4, lr}
   d7172:	4604      	mov	r4, r0
    PinMode mode = HAL_Get_Pin_Mode(pin);
   d7174:	f7fe fc12 	bl	d599c <HAL_Get_Pin_Mode>
    if (is_af_output_mode(mode))
   d7178:	3804      	subs	r0, #4
   d717a:	b2c0      	uxtb	r0, r0
   d717c:	2801      	cmp	r0, #1
   d717e:	d908      	bls.n	d7192 <digitalRead+0x22>
        return LOW;

    // Safety check
    if( !pinAvailable(pin) ) {
   d7180:	4620      	mov	r0, r4
   d7182:	f7ff ff95 	bl	d70b0 <pinAvailable>
   d7186:	b120      	cbz	r0, d7192 <digitalRead+0x22>
      return LOW;
    }

    return HAL_GPIO_Read(pin);
   d7188:	4620      	mov	r0, r4
}
   d718a:	e8bd 4010 	ldmia.w	sp!, {r4, lr}
    // Safety check
    if( !pinAvailable(pin) ) {
      return LOW;
    }

    return HAL_GPIO_Read(pin);
   d718e:	f7fe bc15 	b.w	d59bc <HAL_GPIO_Read>
}
   d7192:	2000      	movs	r0, #0
   d7194:	bd10      	pop	{r4, pc}

000d7196 <shiftOut>:
  }
  return value;
}

void shiftOut(uint8_t dataPin, uint8_t clockPin, uint8_t bitOrder, uint8_t val)
{
   d7196:	e92d 41f0 	stmdb	sp!, {r4, r5, r6, r7, r8, lr}
   d719a:	4690      	mov	r8, r2
   d719c:	461e      	mov	r6, r3
   d719e:	2407      	movs	r4, #7
   d71a0:	4607      	mov	r7, r0
    if (bitOrder == LSBFIRST)
      digitalWrite(dataPin, !!(val & (1 << i)));
    else
      digitalWrite(dataPin, !!(val & (1 << (7 - i))));

    digitalWrite(clockPin, HIGH);
   d71a2:	460d      	mov	r5, r1
void shiftOut(uint8_t dataPin, uint8_t clockPin, uint8_t bitOrder, uint8_t val)
{
  uint8_t i;

  for (i = 0; i < 8; i++)  {
    if (bitOrder == LSBFIRST)
   d71a4:	f1b8 0f00 	cmp.w	r8, #0
   d71a8:	d104      	bne.n	d71b4 <shiftOut+0x1e>
      digitalWrite(dataPin, !!(val & (1 << i)));
   d71aa:	f1c4 0107 	rsb	r1, r4, #7
   d71ae:	fa46 f101 	asr.w	r1, r6, r1
   d71b2:	e001      	b.n	d71b8 <shiftOut+0x22>
    else
      digitalWrite(dataPin, !!(val & (1 << (7 - i))));
   d71b4:	fa46 f104 	asr.w	r1, r6, r4
   d71b8:	f001 0101 	and.w	r1, r1, #1
   d71bc:	4638      	mov	r0, r7
   d71be:	f7ff ffbe 	bl	d713e <digitalWrite>

    digitalWrite(clockPin, HIGH);
   d71c2:	2101      	movs	r1, #1
   d71c4:	4628      	mov	r0, r5
   d71c6:	f7ff ffba 	bl	d713e <digitalWrite>
    digitalWrite(clockPin, LOW);
   d71ca:	2100      	movs	r1, #0
   d71cc:	4628      	mov	r0, r5
   d71ce:	f7ff ffb6 	bl	d713e <digitalWrite>

void shiftOut(uint8_t dataPin, uint8_t clockPin, uint8_t bitOrder, uint8_t val)
{
  uint8_t i;

  for (i = 0; i < 8; i++)  {
   d71d2:	f114 34ff 	adds.w	r4, r4, #4294967295
   d71d6:	d2e5      	bcs.n	d71a4 <shiftOut+0xe>
      digitalWrite(dataPin, !!(val & (1 << (7 - i))));

    digitalWrite(clockPin, HIGH);
    digitalWrite(clockPin, LOW);
  }
}
   d71d8:	e8bd 81f0 	ldmia.w	sp!, {r4, r5, r6, r7, r8, pc}

000d71dc <_Z17acquireWireBufferv>:
   d71dc:	b570      	push	{r4, r5, r6, lr}
   d71de:	4604      	mov	r4, r0
   d71e0:	2514      	movs	r5, #20
   d71e2:	462a      	mov	r2, r5
   d71e4:	4e09      	ldr	r6, [pc, #36]	; (d720c <_Z17acquireWireBufferv+0x30>)
   d71e6:	2100      	movs	r1, #0
   d71e8:	f000 fddb 	bl	d7da2 <memset>
   d71ec:	8025      	strh	r5, [r4, #0]
   d71ee:	2520      	movs	r5, #32
   d71f0:	4631      	mov	r1, r6
   d71f2:	60a5      	str	r5, [r4, #8]
   d71f4:	6125      	str	r5, [r4, #16]
   d71f6:	4628      	mov	r0, r5
   d71f8:	f000 f840 	bl	d727c <_ZnajRKSt9nothrow_t>
   d71fc:	4631      	mov	r1, r6
   d71fe:	6060      	str	r0, [r4, #4]
   d7200:	4628      	mov	r0, r5
   d7202:	f000 f83b 	bl	d727c <_ZnajRKSt9nothrow_t>
   d7206:	60e0      	str	r0, [r4, #12]
   d7208:	4620      	mov	r0, r4
   d720a:	bd70      	pop	{r4, r5, r6, pc}
   d720c:	000d89c4 	.word	0x000d89c4

000d7210 <_Z19__fetch_global_Wirev>:
	return defaultWireConfig();
}
#endif

TwoWire& __fetch_global_Wire()
{
   d7210:	b530      	push	{r4, r5, lr}
	static TwoWire wire(HAL_I2C_INTERFACE1, acquireWireBuffer());
   d7212:	4d0e      	ldr	r5, [pc, #56]	; (d724c <_Z19__fetch_global_Wirev+0x3c>)
   d7214:	6829      	ldr	r1, [r5, #0]
   d7216:	f011 0401 	ands.w	r4, r1, #1
	return defaultWireConfig();
}
#endif

TwoWire& __fetch_global_Wire()
{
   d721a:	b087      	sub	sp, #28
	static TwoWire wire(HAL_I2C_INTERFACE1, acquireWireBuffer());
   d721c:	d113      	bne.n	d7246 <_Z19__fetch_global_Wirev+0x36>
   d721e:	4628      	mov	r0, r5
   d7220:	f7fc ff4c 	bl	d40bc <__cxa_guard_acquire>
   d7224:	b178      	cbz	r0, d7246 <_Z19__fetch_global_Wirev+0x36>
   d7226:	a801      	add	r0, sp, #4
   d7228:	f7ff ffd8 	bl	d71dc <_Z17acquireWireBufferv>
   d722c:	aa01      	add	r2, sp, #4
   d722e:	4621      	mov	r1, r4
   d7230:	4807      	ldr	r0, [pc, #28]	; (d7250 <_Z19__fetch_global_Wirev+0x40>)
   d7232:	f7ff fd9d 	bl	d6d70 <_ZN7TwoWireC1E17HAL_I2C_InterfaceRK14HAL_I2C_Config>
   d7236:	4628      	mov	r0, r5
   d7238:	f7fc ff45 	bl	d40c6 <__cxa_guard_release>
   d723c:	4a05      	ldr	r2, [pc, #20]	; (d7254 <_Z19__fetch_global_Wirev+0x44>)
   d723e:	4906      	ldr	r1, [pc, #24]	; (d7258 <_Z19__fetch_global_Wirev+0x48>)
   d7240:	4803      	ldr	r0, [pc, #12]	; (d7250 <_Z19__fetch_global_Wirev+0x40>)
   d7242:	f000 f80b 	bl	d725c <__aeabi_atexit>
	return wire;
}
   d7246:	4802      	ldr	r0, [pc, #8]	; (d7250 <_Z19__fetch_global_Wirev+0x40>)
   d7248:	b007      	add	sp, #28
   d724a:	bd30      	pop	{r4, r5, pc}
   d724c:	2003e734 	.word	0x2003e734
   d7250:	2003e738 	.word	0x2003e738
   d7254:	2003e298 	.word	0x2003e298
   d7258:	000d6d19 	.word	0x000d6d19

000d725c <__aeabi_atexit>:
   d725c:	460b      	mov	r3, r1
   d725e:	4601      	mov	r1, r0
   d7260:	4618      	mov	r0, r3
   d7262:	f000 bd85 	b.w	d7d70 <__cxa_atexit>
	...

000d7268 <_ZSt15get_new_handlerv>:
   d7268:	4b02      	ldr	r3, [pc, #8]	; (d7274 <_ZSt15get_new_handlerv+0xc>)
   d726a:	6818      	ldr	r0, [r3, #0]
   d726c:	f3bf 8f5f 	dmb	sy
   d7270:	4770      	bx	lr
   d7272:	bf00      	nop
   d7274:	2003e74c 	.word	0x2003e74c

000d7278 <_ZdlPvj>:
   d7278:	f7fc bf11 	b.w	d409e <_ZdlPv>

000d727c <_ZnajRKSt9nothrow_t>:
   d727c:	f000 b800 	b.w	d7280 <_ZnwjRKSt9nothrow_t>

000d7280 <_ZnwjRKSt9nothrow_t>:
   d7280:	b510      	push	{r4, lr}
   d7282:	2800      	cmp	r0, #0
   d7284:	bf14      	ite	ne
   d7286:	4604      	movne	r4, r0
   d7288:	2401      	moveq	r4, #1
   d728a:	4620      	mov	r0, r4
   d728c:	f7fe fdb2 	bl	d5df4 <malloc>
   d7290:	b920      	cbnz	r0, d729c <_ZnwjRKSt9nothrow_t+0x1c>
   d7292:	f7ff ffe9 	bl	d7268 <_ZSt15get_new_handlerv>
   d7296:	b108      	cbz	r0, d729c <_ZnwjRKSt9nothrow_t+0x1c>
   d7298:	4780      	blx	r0
   d729a:	e7f6      	b.n	d728a <_ZnwjRKSt9nothrow_t+0xa>
   d729c:	bd10      	pop	{r4, pc}

000d729e <_ZSt25__throw_bad_function_callv>:
   d729e:	b508      	push	{r3, lr}
   d72a0:	f7fe fdc0 	bl	d5e24 <abort>

000d72a4 <_GLOBAL__sub_I__ZNSt12ctype_bynameIcEC2ERKNSt7__cxx1112basic_stringIcSt11char_traitsIcESaIcEEEj>:
   d72a4:	4b18      	ldr	r3, [pc, #96]	; (d7308 <_GLOBAL__sub_I__ZNSt12ctype_bynameIcEC2ERKNSt7__cxx1112basic_stringIcSt11char_traitsIcESaIcEEEj+0x64>)
   d72a6:	681a      	ldr	r2, [r3, #0]
   d72a8:	07d1      	lsls	r1, r2, #31
   d72aa:	bf5c      	itt	pl
   d72ac:	2201      	movpl	r2, #1
   d72ae:	601a      	strpl	r2, [r3, #0]
   d72b0:	4b16      	ldr	r3, [pc, #88]	; (d730c <_GLOBAL__sub_I__ZNSt12ctype_bynameIcEC2ERKNSt7__cxx1112basic_stringIcSt11char_traitsIcESaIcEEEj+0x68>)
   d72b2:	681a      	ldr	r2, [r3, #0]
   d72b4:	07d2      	lsls	r2, r2, #31
   d72b6:	bf5c      	itt	pl
   d72b8:	2201      	movpl	r2, #1
   d72ba:	601a      	strpl	r2, [r3, #0]
   d72bc:	4b14      	ldr	r3, [pc, #80]	; (d7310 <_GLOBAL__sub_I__ZNSt12ctype_bynameIcEC2ERKNSt7__cxx1112basic_stringIcSt11char_traitsIcESaIcEEEj+0x6c>)
   d72be:	681a      	ldr	r2, [r3, #0]
   d72c0:	07d0      	lsls	r0, r2, #31
   d72c2:	bf5c      	itt	pl
   d72c4:	2201      	movpl	r2, #1
   d72c6:	601a      	strpl	r2, [r3, #0]
   d72c8:	4b12      	ldr	r3, [pc, #72]	; (d7314 <_GLOBAL__sub_I__ZNSt12ctype_bynameIcEC2ERKNSt7__cxx1112basic_stringIcSt11char_traitsIcESaIcEEEj+0x70>)
   d72ca:	681a      	ldr	r2, [r3, #0]
   d72cc:	07d1      	lsls	r1, r2, #31
   d72ce:	bf5c      	itt	pl
   d72d0:	2201      	movpl	r2, #1
   d72d2:	601a      	strpl	r2, [r3, #0]
   d72d4:	4b10      	ldr	r3, [pc, #64]	; (d7318 <_GLOBAL__sub_I__ZNSt12ctype_bynameIcEC2ERKNSt7__cxx1112basic_stringIcSt11char_traitsIcESaIcEEEj+0x74>)
   d72d6:	681a      	ldr	r2, [r3, #0]
   d72d8:	07d2      	lsls	r2, r2, #31
   d72da:	bf5c      	itt	pl
   d72dc:	2201      	movpl	r2, #1
   d72de:	601a      	strpl	r2, [r3, #0]
   d72e0:	4b0e      	ldr	r3, [pc, #56]	; (d731c <_GLOBAL__sub_I__ZNSt12ctype_bynameIcEC2ERKNSt7__cxx1112basic_stringIcSt11char_traitsIcESaIcEEEj+0x78>)
   d72e2:	681a      	ldr	r2, [r3, #0]
   d72e4:	07d0      	lsls	r0, r2, #31
   d72e6:	bf5c      	itt	pl
   d72e8:	2201      	movpl	r2, #1
   d72ea:	601a      	strpl	r2, [r3, #0]
   d72ec:	4b0c      	ldr	r3, [pc, #48]	; (d7320 <_GLOBAL__sub_I__ZNSt12ctype_bynameIcEC2ERKNSt7__cxx1112basic_stringIcSt11char_traitsIcESaIcEEEj+0x7c>)
   d72ee:	681a      	ldr	r2, [r3, #0]
   d72f0:	07d1      	lsls	r1, r2, #31
   d72f2:	bf5c      	itt	pl
   d72f4:	2201      	movpl	r2, #1
   d72f6:	601a      	strpl	r2, [r3, #0]
   d72f8:	4b0a      	ldr	r3, [pc, #40]	; (d7324 <_GLOBAL__sub_I__ZNSt12ctype_bynameIcEC2ERKNSt7__cxx1112basic_stringIcSt11char_traitsIcESaIcEEEj+0x80>)
   d72fa:	681a      	ldr	r2, [r3, #0]
   d72fc:	07d2      	lsls	r2, r2, #31
   d72fe:	bf5c      	itt	pl
   d7300:	2201      	movpl	r2, #1
   d7302:	601a      	strpl	r2, [r3, #0]
   d7304:	4770      	bx	lr
   d7306:	bf00      	nop
   d7308:	2003e76c 	.word	0x2003e76c
   d730c:	2003e768 	.word	0x2003e768
   d7310:	2003e764 	.word	0x2003e764
   d7314:	2003e760 	.word	0x2003e760
   d7318:	2003e75c 	.word	0x2003e75c
   d731c:	2003e758 	.word	0x2003e758
   d7320:	2003e754 	.word	0x2003e754
   d7324:	2003e750 	.word	0x2003e750

000d7328 <_GLOBAL__sub_I__ZNSt12ctype_bynameIwEC2ERKSsj>:
   d7328:	4b24      	ldr	r3, [pc, #144]	; (d73bc <_GLOBAL__sub_I__ZNSt12ctype_bynameIwEC2ERKSsj+0x94>)
   d732a:	681a      	ldr	r2, [r3, #0]
   d732c:	07d0      	lsls	r0, r2, #31
   d732e:	bf5c      	itt	pl
   d7330:	2201      	movpl	r2, #1
   d7332:	601a      	strpl	r2, [r3, #0]
   d7334:	4b22      	ldr	r3, [pc, #136]	; (d73c0 <_GLOBAL__sub_I__ZNSt12ctype_bynameIwEC2ERKSsj+0x98>)
   d7336:	681a      	ldr	r2, [r3, #0]
   d7338:	07d1      	lsls	r1, r2, #31
   d733a:	bf5c      	itt	pl
   d733c:	2201      	movpl	r2, #1
   d733e:	601a      	strpl	r2, [r3, #0]
   d7340:	4b20      	ldr	r3, [pc, #128]	; (d73c4 <_GLOBAL__sub_I__ZNSt12ctype_bynameIwEC2ERKSsj+0x9c>)
   d7342:	681a      	ldr	r2, [r3, #0]
   d7344:	07d2      	lsls	r2, r2, #31
   d7346:	bf5c      	itt	pl
   d7348:	2201      	movpl	r2, #1
   d734a:	601a      	strpl	r2, [r3, #0]
   d734c:	4b1e      	ldr	r3, [pc, #120]	; (d73c8 <_GLOBAL__sub_I__ZNSt12ctype_bynameIwEC2ERKSsj+0xa0>)
   d734e:	681a      	ldr	r2, [r3, #0]
   d7350:	07d0      	lsls	r0, r2, #31
   d7352:	bf5c      	itt	pl
   d7354:	2201      	movpl	r2, #1
   d7356:	601a      	strpl	r2, [r3, #0]
   d7358:	4b1c      	ldr	r3, [pc, #112]	; (d73cc <_GLOBAL__sub_I__ZNSt12ctype_bynameIwEC2ERKSsj+0xa4>)
   d735a:	681a      	ldr	r2, [r3, #0]
   d735c:	07d1      	lsls	r1, r2, #31
   d735e:	bf5c      	itt	pl
   d7360:	2201      	movpl	r2, #1
   d7362:	601a      	strpl	r2, [r3, #0]
   d7364:	4b1a      	ldr	r3, [pc, #104]	; (d73d0 <_GLOBAL__sub_I__ZNSt12ctype_bynameIwEC2ERKSsj+0xa8>)
   d7366:	681a      	ldr	r2, [r3, #0]
   d7368:	07d2      	lsls	r2, r2, #31
   d736a:	bf5c      	itt	pl
   d736c:	2201      	movpl	r2, #1
   d736e:	601a      	strpl	r2, [r3, #0]
   d7370:	4b18      	ldr	r3, [pc, #96]	; (d73d4 <_GLOBAL__sub_I__ZNSt12ctype_bynameIwEC2ERKSsj+0xac>)
   d7372:	681a      	ldr	r2, [r3, #0]
   d7374:	07d0      	lsls	r0, r2, #31
   d7376:	bf5c      	itt	pl
   d7378:	2201      	movpl	r2, #1
   d737a:	601a      	strpl	r2, [r3, #0]
   d737c:	4b16      	ldr	r3, [pc, #88]	; (d73d8 <_GLOBAL__sub_I__ZNSt12ctype_bynameIwEC2ERKSsj+0xb0>)
   d737e:	681a      	ldr	r2, [r3, #0]
   d7380:	07d1      	lsls	r1, r2, #31
   d7382:	bf5c      	itt	pl
   d7384:	2201      	movpl	r2, #1
   d7386:	601a      	strpl	r2, [r3, #0]
   d7388:	4b14      	ldr	r3, [pc, #80]	; (d73dc <_GLOBAL__sub_I__ZNSt12ctype_bynameIwEC2ERKSsj+0xb4>)
   d738a:	681a      	ldr	r2, [r3, #0]
   d738c:	07d2      	lsls	r2, r2, #31
   d738e:	bf5c      	itt	pl
   d7390:	2201      	movpl	r2, #1
   d7392:	601a      	strpl	r2, [r3, #0]
   d7394:	4b12      	ldr	r3, [pc, #72]	; (d73e0 <_GLOBAL__sub_I__ZNSt12ctype_bynameIwEC2ERKSsj+0xb8>)
   d7396:	681a      	ldr	r2, [r3, #0]
   d7398:	07d0      	lsls	r0, r2, #31
   d739a:	bf5c      	itt	pl
   d739c:	2201      	movpl	r2, #1
   d739e:	601a      	strpl	r2, [r3, #0]
   d73a0:	4b10      	ldr	r3, [pc, #64]	; (d73e4 <_GLOBAL__sub_I__ZNSt12ctype_bynameIwEC2ERKSsj+0xbc>)
   d73a2:	681a      	ldr	r2, [r3, #0]
   d73a4:	07d1      	lsls	r1, r2, #31
   d73a6:	bf5c      	itt	pl
   d73a8:	2201      	movpl	r2, #1
   d73aa:	601a      	strpl	r2, [r3, #0]
   d73ac:	4b0e      	ldr	r3, [pc, #56]	; (d73e8 <_GLOBAL__sub_I__ZNSt12ctype_bynameIwEC2ERKSsj+0xc0>)
   d73ae:	681a      	ldr	r2, [r3, #0]
   d73b0:	07d2      	lsls	r2, r2, #31
   d73b2:	bf5c      	itt	pl
   d73b4:	2201      	movpl	r2, #1
   d73b6:	601a      	strpl	r2, [r3, #0]
   d73b8:	4770      	bx	lr
   d73ba:	bf00      	nop
   d73bc:	2003e79c 	.word	0x2003e79c
   d73c0:	2003e798 	.word	0x2003e798
   d73c4:	2003e794 	.word	0x2003e794
   d73c8:	2003e790 	.word	0x2003e790
   d73cc:	2003e78c 	.word	0x2003e78c
   d73d0:	2003e788 	.word	0x2003e788
   d73d4:	2003e784 	.word	0x2003e784
   d73d8:	2003e780 	.word	0x2003e780
   d73dc:	2003e77c 	.word	0x2003e77c
   d73e0:	2003e778 	.word	0x2003e778
   d73e4:	2003e774 	.word	0x2003e774
   d73e8:	2003e770 	.word	0x2003e770

000d73ec <_GLOBAL__sub_I__ZNSt12ctype_bynameIcEC2ERKSsj>:
   d73ec:	4b24      	ldr	r3, [pc, #144]	; (d7480 <_GLOBAL__sub_I__ZNSt12ctype_bynameIcEC2ERKSsj+0x94>)
   d73ee:	681a      	ldr	r2, [r3, #0]
   d73f0:	07d0      	lsls	r0, r2, #31
   d73f2:	bf5c      	itt	pl
   d73f4:	2201      	movpl	r2, #1
   d73f6:	601a      	strpl	r2, [r3, #0]
   d73f8:	4b22      	ldr	r3, [pc, #136]	; (d7484 <_GLOBAL__sub_I__ZNSt12ctype_bynameIcEC2ERKSsj+0x98>)
   d73fa:	681a      	ldr	r2, [r3, #0]
   d73fc:	07d1      	lsls	r1, r2, #31
   d73fe:	bf5c      	itt	pl
   d7400:	2201      	movpl	r2, #1
   d7402:	601a      	strpl	r2, [r3, #0]
   d7404:	4b20      	ldr	r3, [pc, #128]	; (d7488 <_GLOBAL__sub_I__ZNSt12ctype_bynameIcEC2ERKSsj+0x9c>)
   d7406:	681a      	ldr	r2, [r3, #0]
   d7408:	07d2      	lsls	r2, r2, #31
   d740a:	bf5c      	itt	pl
   d740c:	2201      	movpl	r2, #1
   d740e:	601a      	strpl	r2, [r3, #0]
   d7410:	4b1e      	ldr	r3, [pc, #120]	; (d748c <_GLOBAL__sub_I__ZNSt12ctype_bynameIcEC2ERKSsj+0xa0>)
   d7412:	681a      	ldr	r2, [r3, #0]
   d7414:	07d0      	lsls	r0, r2, #31
   d7416:	bf5c      	itt	pl
   d7418:	2201      	movpl	r2, #1
   d741a:	601a      	strpl	r2, [r3, #0]
   d741c:	4b1c      	ldr	r3, [pc, #112]	; (d7490 <_GLOBAL__sub_I__ZNSt12ctype_bynameIcEC2ERKSsj+0xa4>)
   d741e:	681a      	ldr	r2, [r3, #0]
   d7420:	07d1      	lsls	r1, r2, #31
   d7422:	bf5c      	itt	pl
   d7424:	2201      	movpl	r2, #1
   d7426:	601a      	strpl	r2, [r3, #0]
   d7428:	4b1a      	ldr	r3, [pc, #104]	; (d7494 <_GLOBAL__sub_I__ZNSt12ctype_bynameIcEC2ERKSsj+0xa8>)
   d742a:	681a      	ldr	r2, [r3, #0]
   d742c:	07d2      	lsls	r2, r2, #31
   d742e:	bf5c      	itt	pl
   d7430:	2201      	movpl	r2, #1
   d7432:	601a      	strpl	r2, [r3, #0]
   d7434:	4b18      	ldr	r3, [pc, #96]	; (d7498 <_GLOBAL__sub_I__ZNSt12ctype_bynameIcEC2ERKSsj+0xac>)
   d7436:	681a      	ldr	r2, [r3, #0]
   d7438:	07d0      	lsls	r0, r2, #31
   d743a:	bf5c      	itt	pl
   d743c:	2201      	movpl	r2, #1
   d743e:	601a      	strpl	r2, [r3, #0]
   d7440:	4b16      	ldr	r3, [pc, #88]	; (d749c <_GLOBAL__sub_I__ZNSt12ctype_bynameIcEC2ERKSsj+0xb0>)
   d7442:	681a      	ldr	r2, [r3, #0]
   d7444:	07d1      	lsls	r1, r2, #31
   d7446:	bf5c      	itt	pl
   d7448:	2201      	movpl	r2, #1
   d744a:	601a      	strpl	r2, [r3, #0]
   d744c:	4b14      	ldr	r3, [pc, #80]	; (d74a0 <_GLOBAL__sub_I__ZNSt12ctype_bynameIcEC2ERKSsj+0xb4>)
   d744e:	681a      	ldr	r2, [r3, #0]
   d7450:	07d2      	lsls	r2, r2, #31
   d7452:	bf5c      	itt	pl
   d7454:	2201      	movpl	r2, #1
   d7456:	601a      	strpl	r2, [r3, #0]
   d7458:	4b12      	ldr	r3, [pc, #72]	; (d74a4 <_GLOBAL__sub_I__ZNSt12ctype_bynameIcEC2ERKSsj+0xb8>)
   d745a:	681a      	ldr	r2, [r3, #0]
   d745c:	07d0      	lsls	r0, r2, #31
   d745e:	bf5c      	itt	pl
   d7460:	2201      	movpl	r2, #1
   d7462:	601a      	strpl	r2, [r3, #0]
   d7464:	4b10      	ldr	r3, [pc, #64]	; (d74a8 <_GLOBAL__sub_I__ZNSt12ctype_bynameIcEC2ERKSsj+0xbc>)
   d7466:	681a      	ldr	r2, [r3, #0]
   d7468:	07d1      	lsls	r1, r2, #31
   d746a:	bf5c      	itt	pl
   d746c:	2201      	movpl	r2, #1
   d746e:	601a      	strpl	r2, [r3, #0]
   d7470:	4b0e      	ldr	r3, [pc, #56]	; (d74ac <_GLOBAL__sub_I__ZNSt12ctype_bynameIcEC2ERKSsj+0xc0>)
   d7472:	681a      	ldr	r2, [r3, #0]
   d7474:	07d2      	lsls	r2, r2, #31
   d7476:	bf5c      	itt	pl
   d7478:	2201      	movpl	r2, #1
   d747a:	601a      	strpl	r2, [r3, #0]
   d747c:	4770      	bx	lr
   d747e:	bf00      	nop
   d7480:	2003e7cc 	.word	0x2003e7cc
   d7484:	2003e7c8 	.word	0x2003e7c8
   d7488:	2003e7c4 	.word	0x2003e7c4
   d748c:	2003e7c0 	.word	0x2003e7c0
   d7490:	2003e7bc 	.word	0x2003e7bc
   d7494:	2003e7b8 	.word	0x2003e7b8
   d7498:	2003e7b4 	.word	0x2003e7b4
   d749c:	2003e7b0 	.word	0x2003e7b0
   d74a0:	2003e7ac 	.word	0x2003e7ac
   d74a4:	2003e7a8 	.word	0x2003e7a8
   d74a8:	2003e7a4 	.word	0x2003e7a4
   d74ac:	2003e7a0 	.word	0x2003e7a0

000d74b0 <_GLOBAL__sub_I__ZNSt12ctype_bynameIwEC2ERKNSt7__cxx1112basic_stringIcSt11char_traitsIcESaIcEEEj>:
   d74b0:	4b18      	ldr	r3, [pc, #96]	; (d7514 <_GLOBAL__sub_I__ZNSt12ctype_bynameIwEC2ERKNSt7__cxx1112basic_stringIcSt11char_traitsIcESaIcEEEj+0x64>)
   d74b2:	681a      	ldr	r2, [r3, #0]
   d74b4:	07d1      	lsls	r1, r2, #31
   d74b6:	bf5c      	itt	pl
   d74b8:	2201      	movpl	r2, #1
   d74ba:	601a      	strpl	r2, [r3, #0]
   d74bc:	4b16      	ldr	r3, [pc, #88]	; (d7518 <_GLOBAL__sub_I__ZNSt12ctype_bynameIwEC2ERKNSt7__cxx1112basic_stringIcSt11char_traitsIcESaIcEEEj+0x68>)
   d74be:	681a      	ldr	r2, [r3, #0]
   d74c0:	07d2      	lsls	r2, r2, #31
   d74c2:	bf5c      	itt	pl
   d74c4:	2201      	movpl	r2, #1
   d74c6:	601a      	strpl	r2, [r3, #0]
   d74c8:	4b14      	ldr	r3, [pc, #80]	; (d751c <_GLOBAL__sub_I__ZNSt12ctype_bynameIwEC2ERKNSt7__cxx1112basic_stringIcSt11char_traitsIcESaIcEEEj+0x6c>)
   d74ca:	681a      	ldr	r2, [r3, #0]
   d74cc:	07d0      	lsls	r0, r2, #31
   d74ce:	bf5c      	itt	pl
   d74d0:	2201      	movpl	r2, #1
   d74d2:	601a      	strpl	r2, [r3, #0]
   d74d4:	4b12      	ldr	r3, [pc, #72]	; (d7520 <_GLOBAL__sub_I__ZNSt12ctype_bynameIwEC2ERKNSt7__cxx1112basic_stringIcSt11char_traitsIcESaIcEEEj+0x70>)
   d74d6:	681a      	ldr	r2, [r3, #0]
   d74d8:	07d1      	lsls	r1, r2, #31
   d74da:	bf5c      	itt	pl
   d74dc:	2201      	movpl	r2, #1
   d74de:	601a      	strpl	r2, [r3, #0]
   d74e0:	4b10      	ldr	r3, [pc, #64]	; (d7524 <_GLOBAL__sub_I__ZNSt12ctype_bynameIwEC2ERKNSt7__cxx1112basic_stringIcSt11char_traitsIcESaIcEEEj+0x74>)
   d74e2:	681a      	ldr	r2, [r3, #0]
   d74e4:	07d2      	lsls	r2, r2, #31
   d74e6:	bf5c      	itt	pl
   d74e8:	2201      	movpl	r2, #1
   d74ea:	601a      	strpl	r2, [r3, #0]
   d74ec:	4b0e      	ldr	r3, [pc, #56]	; (d7528 <_GLOBAL__sub_I__ZNSt12ctype_bynameIwEC2ERKNSt7__cxx1112basic_stringIcSt11char_traitsIcESaIcEEEj+0x78>)
   d74ee:	681a      	ldr	r2, [r3, #0]
   d74f0:	07d0      	lsls	r0, r2, #31
   d74f2:	bf5c      	itt	pl
   d74f4:	2201      	movpl	r2, #1
   d74f6:	601a      	strpl	r2, [r3, #0]
   d74f8:	4b0c      	ldr	r3, [pc, #48]	; (d752c <_GLOBAL__sub_I__ZNSt12ctype_bynameIwEC2ERKNSt7__cxx1112basic_stringIcSt11char_traitsIcESaIcEEEj+0x7c>)
   d74fa:	681a      	ldr	r2, [r3, #0]
   d74fc:	07d1      	lsls	r1, r2, #31
   d74fe:	bf5c      	itt	pl
   d7500:	2201      	movpl	r2, #1
   d7502:	601a      	strpl	r2, [r3, #0]
   d7504:	4b0a      	ldr	r3, [pc, #40]	; (d7530 <_GLOBAL__sub_I__ZNSt12ctype_bynameIwEC2ERKNSt7__cxx1112basic_stringIcSt11char_traitsIcESaIcEEEj+0x80>)
   d7506:	681a      	ldr	r2, [r3, #0]
   d7508:	07d2      	lsls	r2, r2, #31
   d750a:	bf5c      	itt	pl
   d750c:	2201      	movpl	r2, #1
   d750e:	601a      	strpl	r2, [r3, #0]
   d7510:	4770      	bx	lr
   d7512:	bf00      	nop
   d7514:	2003e7ec 	.word	0x2003e7ec
   d7518:	2003e7e8 	.word	0x2003e7e8
   d751c:	2003e7e4 	.word	0x2003e7e4
   d7520:	2003e7e0 	.word	0x2003e7e0
   d7524:	2003e7dc 	.word	0x2003e7dc
   d7528:	2003e7d8 	.word	0x2003e7d8
   d752c:	2003e7d4 	.word	0x2003e7d4
   d7530:	2003e7d0 	.word	0x2003e7d0

000d7534 <__aeabi_drsub>:
   d7534:	f081 4100 	eor.w	r1, r1, #2147483648	; 0x80000000
   d7538:	e002      	b.n	d7540 <__adddf3>
   d753a:	bf00      	nop

000d753c <__aeabi_dsub>:
   d753c:	f083 4300 	eor.w	r3, r3, #2147483648	; 0x80000000

000d7540 <__adddf3>:
   d7540:	b530      	push	{r4, r5, lr}
   d7542:	ea4f 0441 	mov.w	r4, r1, lsl #1
   d7546:	ea4f 0543 	mov.w	r5, r3, lsl #1
   d754a:	ea94 0f05 	teq	r4, r5
   d754e:	bf08      	it	eq
   d7550:	ea90 0f02 	teqeq	r0, r2
   d7554:	bf1f      	itttt	ne
   d7556:	ea54 0c00 	orrsne.w	ip, r4, r0
   d755a:	ea55 0c02 	orrsne.w	ip, r5, r2
   d755e:	ea7f 5c64 	mvnsne.w	ip, r4, asr #21
   d7562:	ea7f 5c65 	mvnsne.w	ip, r5, asr #21
   d7566:	f000 80e2 	beq.w	d772e <__adddf3+0x1ee>
   d756a:	ea4f 5454 	mov.w	r4, r4, lsr #21
   d756e:	ebd4 5555 	rsbs	r5, r4, r5, lsr #21
   d7572:	bfb8      	it	lt
   d7574:	426d      	neglt	r5, r5
   d7576:	dd0c      	ble.n	d7592 <__adddf3+0x52>
   d7578:	442c      	add	r4, r5
   d757a:	ea80 0202 	eor.w	r2, r0, r2
   d757e:	ea81 0303 	eor.w	r3, r1, r3
   d7582:	ea82 0000 	eor.w	r0, r2, r0
   d7586:	ea83 0101 	eor.w	r1, r3, r1
   d758a:	ea80 0202 	eor.w	r2, r0, r2
   d758e:	ea81 0303 	eor.w	r3, r1, r3
   d7592:	2d36      	cmp	r5, #54	; 0x36
   d7594:	bf88      	it	hi
   d7596:	bd30      	pophi	{r4, r5, pc}
   d7598:	f011 4f00 	tst.w	r1, #2147483648	; 0x80000000
   d759c:	ea4f 3101 	mov.w	r1, r1, lsl #12
   d75a0:	f44f 1c80 	mov.w	ip, #1048576	; 0x100000
   d75a4:	ea4c 3111 	orr.w	r1, ip, r1, lsr #12
   d75a8:	d002      	beq.n	d75b0 <__adddf3+0x70>
   d75aa:	4240      	negs	r0, r0
   d75ac:	eb61 0141 	sbc.w	r1, r1, r1, lsl #1
   d75b0:	f013 4f00 	tst.w	r3, #2147483648	; 0x80000000
   d75b4:	ea4f 3303 	mov.w	r3, r3, lsl #12
   d75b8:	ea4c 3313 	orr.w	r3, ip, r3, lsr #12
   d75bc:	d002      	beq.n	d75c4 <__adddf3+0x84>
   d75be:	4252      	negs	r2, r2
   d75c0:	eb63 0343 	sbc.w	r3, r3, r3, lsl #1
   d75c4:	ea94 0f05 	teq	r4, r5
   d75c8:	f000 80a7 	beq.w	d771a <__adddf3+0x1da>
   d75cc:	f1a4 0401 	sub.w	r4, r4, #1
   d75d0:	f1d5 0e20 	rsbs	lr, r5, #32
   d75d4:	db0d      	blt.n	d75f2 <__adddf3+0xb2>
   d75d6:	fa02 fc0e 	lsl.w	ip, r2, lr
   d75da:	fa22 f205 	lsr.w	r2, r2, r5
   d75de:	1880      	adds	r0, r0, r2
   d75e0:	f141 0100 	adc.w	r1, r1, #0
   d75e4:	fa03 f20e 	lsl.w	r2, r3, lr
   d75e8:	1880      	adds	r0, r0, r2
   d75ea:	fa43 f305 	asr.w	r3, r3, r5
   d75ee:	4159      	adcs	r1, r3
   d75f0:	e00e      	b.n	d7610 <__adddf3+0xd0>
   d75f2:	f1a5 0520 	sub.w	r5, r5, #32
   d75f6:	f10e 0e20 	add.w	lr, lr, #32
   d75fa:	2a01      	cmp	r2, #1
   d75fc:	fa03 fc0e 	lsl.w	ip, r3, lr
   d7600:	bf28      	it	cs
   d7602:	f04c 0c02 	orrcs.w	ip, ip, #2
   d7606:	fa43 f305 	asr.w	r3, r3, r5
   d760a:	18c0      	adds	r0, r0, r3
   d760c:	eb51 71e3 	adcs.w	r1, r1, r3, asr #31
   d7610:	f001 4500 	and.w	r5, r1, #2147483648	; 0x80000000
   d7614:	d507      	bpl.n	d7626 <__adddf3+0xe6>
   d7616:	f04f 0e00 	mov.w	lr, #0
   d761a:	f1dc 0c00 	rsbs	ip, ip, #0
   d761e:	eb7e 0000 	sbcs.w	r0, lr, r0
   d7622:	eb6e 0101 	sbc.w	r1, lr, r1
   d7626:	f5b1 1f80 	cmp.w	r1, #1048576	; 0x100000
   d762a:	d31b      	bcc.n	d7664 <__adddf3+0x124>
   d762c:	f5b1 1f00 	cmp.w	r1, #2097152	; 0x200000
   d7630:	d30c      	bcc.n	d764c <__adddf3+0x10c>
   d7632:	0849      	lsrs	r1, r1, #1
   d7634:	ea5f 0030 	movs.w	r0, r0, rrx
   d7638:	ea4f 0c3c 	mov.w	ip, ip, rrx
   d763c:	f104 0401 	add.w	r4, r4, #1
   d7640:	ea4f 5244 	mov.w	r2, r4, lsl #21
   d7644:	f512 0f80 	cmn.w	r2, #4194304	; 0x400000
   d7648:	f080 809a 	bcs.w	d7780 <__adddf3+0x240>
   d764c:	f1bc 4f00 	cmp.w	ip, #2147483648	; 0x80000000
   d7650:	bf08      	it	eq
   d7652:	ea5f 0c50 	movseq.w	ip, r0, lsr #1
   d7656:	f150 0000 	adcs.w	r0, r0, #0
   d765a:	eb41 5104 	adc.w	r1, r1, r4, lsl #20
   d765e:	ea41 0105 	orr.w	r1, r1, r5
   d7662:	bd30      	pop	{r4, r5, pc}
   d7664:	ea5f 0c4c 	movs.w	ip, ip, lsl #1
   d7668:	4140      	adcs	r0, r0
   d766a:	eb41 0101 	adc.w	r1, r1, r1
   d766e:	f411 1f80 	tst.w	r1, #1048576	; 0x100000
   d7672:	f1a4 0401 	sub.w	r4, r4, #1
   d7676:	d1e9      	bne.n	d764c <__adddf3+0x10c>
   d7678:	f091 0f00 	teq	r1, #0
   d767c:	bf04      	itt	eq
   d767e:	4601      	moveq	r1, r0
   d7680:	2000      	moveq	r0, #0
   d7682:	fab1 f381 	clz	r3, r1
   d7686:	bf08      	it	eq
   d7688:	3320      	addeq	r3, #32
   d768a:	f1a3 030b 	sub.w	r3, r3, #11
   d768e:	f1b3 0220 	subs.w	r2, r3, #32
   d7692:	da0c      	bge.n	d76ae <__adddf3+0x16e>
   d7694:	320c      	adds	r2, #12
   d7696:	dd08      	ble.n	d76aa <__adddf3+0x16a>
   d7698:	f102 0c14 	add.w	ip, r2, #20
   d769c:	f1c2 020c 	rsb	r2, r2, #12
   d76a0:	fa01 f00c 	lsl.w	r0, r1, ip
   d76a4:	fa21 f102 	lsr.w	r1, r1, r2
   d76a8:	e00c      	b.n	d76c4 <__adddf3+0x184>
   d76aa:	f102 0214 	add.w	r2, r2, #20
   d76ae:	bfd8      	it	le
   d76b0:	f1c2 0c20 	rsble	ip, r2, #32
   d76b4:	fa01 f102 	lsl.w	r1, r1, r2
   d76b8:	fa20 fc0c 	lsr.w	ip, r0, ip
   d76bc:	bfdc      	itt	le
   d76be:	ea41 010c 	orrle.w	r1, r1, ip
   d76c2:	4090      	lslle	r0, r2
   d76c4:	1ae4      	subs	r4, r4, r3
   d76c6:	bfa2      	ittt	ge
   d76c8:	eb01 5104 	addge.w	r1, r1, r4, lsl #20
   d76cc:	4329      	orrge	r1, r5
   d76ce:	bd30      	popge	{r4, r5, pc}
   d76d0:	ea6f 0404 	mvn.w	r4, r4
   d76d4:	3c1f      	subs	r4, #31
   d76d6:	da1c      	bge.n	d7712 <__adddf3+0x1d2>
   d76d8:	340c      	adds	r4, #12
   d76da:	dc0e      	bgt.n	d76fa <__adddf3+0x1ba>
   d76dc:	f104 0414 	add.w	r4, r4, #20
   d76e0:	f1c4 0220 	rsb	r2, r4, #32
   d76e4:	fa20 f004 	lsr.w	r0, r0, r4
   d76e8:	fa01 f302 	lsl.w	r3, r1, r2
   d76ec:	ea40 0003 	orr.w	r0, r0, r3
   d76f0:	fa21 f304 	lsr.w	r3, r1, r4
   d76f4:	ea45 0103 	orr.w	r1, r5, r3
   d76f8:	bd30      	pop	{r4, r5, pc}
   d76fa:	f1c4 040c 	rsb	r4, r4, #12
   d76fe:	f1c4 0220 	rsb	r2, r4, #32
   d7702:	fa20 f002 	lsr.w	r0, r0, r2
   d7706:	fa01 f304 	lsl.w	r3, r1, r4
   d770a:	ea40 0003 	orr.w	r0, r0, r3
   d770e:	4629      	mov	r1, r5
   d7710:	bd30      	pop	{r4, r5, pc}
   d7712:	fa21 f004 	lsr.w	r0, r1, r4
   d7716:	4629      	mov	r1, r5
   d7718:	bd30      	pop	{r4, r5, pc}
   d771a:	f094 0f00 	teq	r4, #0
   d771e:	f483 1380 	eor.w	r3, r3, #1048576	; 0x100000
   d7722:	bf06      	itte	eq
   d7724:	f481 1180 	eoreq.w	r1, r1, #1048576	; 0x100000
   d7728:	3401      	addeq	r4, #1
   d772a:	3d01      	subne	r5, #1
   d772c:	e74e      	b.n	d75cc <__adddf3+0x8c>
   d772e:	ea7f 5c64 	mvns.w	ip, r4, asr #21
   d7732:	bf18      	it	ne
   d7734:	ea7f 5c65 	mvnsne.w	ip, r5, asr #21
   d7738:	d029      	beq.n	d778e <__adddf3+0x24e>
   d773a:	ea94 0f05 	teq	r4, r5
   d773e:	bf08      	it	eq
   d7740:	ea90 0f02 	teqeq	r0, r2
   d7744:	d005      	beq.n	d7752 <__adddf3+0x212>
   d7746:	ea54 0c00 	orrs.w	ip, r4, r0
   d774a:	bf04      	itt	eq
   d774c:	4619      	moveq	r1, r3
   d774e:	4610      	moveq	r0, r2
   d7750:	bd30      	pop	{r4, r5, pc}
   d7752:	ea91 0f03 	teq	r1, r3
   d7756:	bf1e      	ittt	ne
   d7758:	2100      	movne	r1, #0
   d775a:	2000      	movne	r0, #0
   d775c:	bd30      	popne	{r4, r5, pc}
   d775e:	ea5f 5c54 	movs.w	ip, r4, lsr #21
   d7762:	d105      	bne.n	d7770 <__adddf3+0x230>
   d7764:	0040      	lsls	r0, r0, #1
   d7766:	4149      	adcs	r1, r1
   d7768:	bf28      	it	cs
   d776a:	f041 4100 	orrcs.w	r1, r1, #2147483648	; 0x80000000
   d776e:	bd30      	pop	{r4, r5, pc}
   d7770:	f514 0480 	adds.w	r4, r4, #4194304	; 0x400000
   d7774:	bf3c      	itt	cc
   d7776:	f501 1180 	addcc.w	r1, r1, #1048576	; 0x100000
   d777a:	bd30      	popcc	{r4, r5, pc}
   d777c:	f001 4500 	and.w	r5, r1, #2147483648	; 0x80000000
   d7780:	f045 41fe 	orr.w	r1, r5, #2130706432	; 0x7f000000
   d7784:	f441 0170 	orr.w	r1, r1, #15728640	; 0xf00000
   d7788:	f04f 0000 	mov.w	r0, #0
   d778c:	bd30      	pop	{r4, r5, pc}
   d778e:	ea7f 5c64 	mvns.w	ip, r4, asr #21
   d7792:	bf1a      	itte	ne
   d7794:	4619      	movne	r1, r3
   d7796:	4610      	movne	r0, r2
   d7798:	ea7f 5c65 	mvnseq.w	ip, r5, asr #21
   d779c:	bf1c      	itt	ne
   d779e:	460b      	movne	r3, r1
   d77a0:	4602      	movne	r2, r0
   d77a2:	ea50 3401 	orrs.w	r4, r0, r1, lsl #12
   d77a6:	bf06      	itte	eq
   d77a8:	ea52 3503 	orrseq.w	r5, r2, r3, lsl #12
   d77ac:	ea91 0f03 	teqeq	r1, r3
   d77b0:	f441 2100 	orrne.w	r1, r1, #524288	; 0x80000
   d77b4:	bd30      	pop	{r4, r5, pc}
   d77b6:	bf00      	nop

000d77b8 <__aeabi_ui2d>:
   d77b8:	f090 0f00 	teq	r0, #0
   d77bc:	bf04      	itt	eq
   d77be:	2100      	moveq	r1, #0
   d77c0:	4770      	bxeq	lr
   d77c2:	b530      	push	{r4, r5, lr}
   d77c4:	f44f 6480 	mov.w	r4, #1024	; 0x400
   d77c8:	f104 0432 	add.w	r4, r4, #50	; 0x32
   d77cc:	f04f 0500 	mov.w	r5, #0
   d77d0:	f04f 0100 	mov.w	r1, #0
   d77d4:	e750      	b.n	d7678 <__adddf3+0x138>
   d77d6:	bf00      	nop

000d77d8 <__aeabi_i2d>:
   d77d8:	f090 0f00 	teq	r0, #0
   d77dc:	bf04      	itt	eq
   d77de:	2100      	moveq	r1, #0
   d77e0:	4770      	bxeq	lr
   d77e2:	b530      	push	{r4, r5, lr}
   d77e4:	f44f 6480 	mov.w	r4, #1024	; 0x400
   d77e8:	f104 0432 	add.w	r4, r4, #50	; 0x32
   d77ec:	f010 4500 	ands.w	r5, r0, #2147483648	; 0x80000000
   d77f0:	bf48      	it	mi
   d77f2:	4240      	negmi	r0, r0
   d77f4:	f04f 0100 	mov.w	r1, #0
   d77f8:	e73e      	b.n	d7678 <__adddf3+0x138>
   d77fa:	bf00      	nop

000d77fc <__aeabi_f2d>:
   d77fc:	0042      	lsls	r2, r0, #1
   d77fe:	ea4f 01e2 	mov.w	r1, r2, asr #3
   d7802:	ea4f 0131 	mov.w	r1, r1, rrx
   d7806:	ea4f 7002 	mov.w	r0, r2, lsl #28
   d780a:	bf1f      	itttt	ne
   d780c:	f012 437f 	andsne.w	r3, r2, #4278190080	; 0xff000000
   d7810:	f093 4f7f 	teqne	r3, #4278190080	; 0xff000000
   d7814:	f081 5160 	eorne.w	r1, r1, #939524096	; 0x38000000
   d7818:	4770      	bxne	lr
   d781a:	f092 0f00 	teq	r2, #0
   d781e:	bf14      	ite	ne
   d7820:	f093 4f7f 	teqne	r3, #4278190080	; 0xff000000
   d7824:	4770      	bxeq	lr
   d7826:	b530      	push	{r4, r5, lr}
   d7828:	f44f 7460 	mov.w	r4, #896	; 0x380
   d782c:	f001 4500 	and.w	r5, r1, #2147483648	; 0x80000000
   d7830:	f021 4100 	bic.w	r1, r1, #2147483648	; 0x80000000
   d7834:	e720      	b.n	d7678 <__adddf3+0x138>
   d7836:	bf00      	nop

000d7838 <__aeabi_ul2d>:
   d7838:	ea50 0201 	orrs.w	r2, r0, r1
   d783c:	bf08      	it	eq
   d783e:	4770      	bxeq	lr
   d7840:	b530      	push	{r4, r5, lr}
   d7842:	f04f 0500 	mov.w	r5, #0
   d7846:	e00a      	b.n	d785e <__aeabi_l2d+0x16>

000d7848 <__aeabi_l2d>:
   d7848:	ea50 0201 	orrs.w	r2, r0, r1
   d784c:	bf08      	it	eq
   d784e:	4770      	bxeq	lr
   d7850:	b530      	push	{r4, r5, lr}
   d7852:	f011 4500 	ands.w	r5, r1, #2147483648	; 0x80000000
   d7856:	d502      	bpl.n	d785e <__aeabi_l2d+0x16>
   d7858:	4240      	negs	r0, r0
   d785a:	eb61 0141 	sbc.w	r1, r1, r1, lsl #1
   d785e:	f44f 6480 	mov.w	r4, #1024	; 0x400
   d7862:	f104 0432 	add.w	r4, r4, #50	; 0x32
   d7866:	ea5f 5c91 	movs.w	ip, r1, lsr #22
   d786a:	f43f aedc 	beq.w	d7626 <__adddf3+0xe6>
   d786e:	f04f 0203 	mov.w	r2, #3
   d7872:	ea5f 0cdc 	movs.w	ip, ip, lsr #3
   d7876:	bf18      	it	ne
   d7878:	3203      	addne	r2, #3
   d787a:	ea5f 0cdc 	movs.w	ip, ip, lsr #3
   d787e:	bf18      	it	ne
   d7880:	3203      	addne	r2, #3
   d7882:	eb02 02dc 	add.w	r2, r2, ip, lsr #3
   d7886:	f1c2 0320 	rsb	r3, r2, #32
   d788a:	fa00 fc03 	lsl.w	ip, r0, r3
   d788e:	fa20 f002 	lsr.w	r0, r0, r2
   d7892:	fa01 fe03 	lsl.w	lr, r1, r3
   d7896:	ea40 000e 	orr.w	r0, r0, lr
   d789a:	fa21 f102 	lsr.w	r1, r1, r2
   d789e:	4414      	add	r4, r2
   d78a0:	e6c1      	b.n	d7626 <__adddf3+0xe6>
   d78a2:	bf00      	nop

000d78a4 <__aeabi_dmul>:
   d78a4:	b570      	push	{r4, r5, r6, lr}
   d78a6:	f04f 0cff 	mov.w	ip, #255	; 0xff
   d78aa:	f44c 6ce0 	orr.w	ip, ip, #1792	; 0x700
   d78ae:	ea1c 5411 	ands.w	r4, ip, r1, lsr #20
   d78b2:	bf1d      	ittte	ne
   d78b4:	ea1c 5513 	andsne.w	r5, ip, r3, lsr #20
   d78b8:	ea94 0f0c 	teqne	r4, ip
   d78bc:	ea95 0f0c 	teqne	r5, ip
   d78c0:	f000 f8de 	bleq	d7a80 <__aeabi_dmul+0x1dc>
   d78c4:	442c      	add	r4, r5
   d78c6:	ea81 0603 	eor.w	r6, r1, r3
   d78ca:	ea21 514c 	bic.w	r1, r1, ip, lsl #21
   d78ce:	ea23 534c 	bic.w	r3, r3, ip, lsl #21
   d78d2:	ea50 3501 	orrs.w	r5, r0, r1, lsl #12
   d78d6:	bf18      	it	ne
   d78d8:	ea52 3503 	orrsne.w	r5, r2, r3, lsl #12
   d78dc:	f441 1180 	orr.w	r1, r1, #1048576	; 0x100000
   d78e0:	f443 1380 	orr.w	r3, r3, #1048576	; 0x100000
   d78e4:	d038      	beq.n	d7958 <__aeabi_dmul+0xb4>
   d78e6:	fba0 ce02 	umull	ip, lr, r0, r2
   d78ea:	f04f 0500 	mov.w	r5, #0
   d78ee:	fbe1 e502 	umlal	lr, r5, r1, r2
   d78f2:	f006 4200 	and.w	r2, r6, #2147483648	; 0x80000000
   d78f6:	fbe0 e503 	umlal	lr, r5, r0, r3
   d78fa:	f04f 0600 	mov.w	r6, #0
   d78fe:	fbe1 5603 	umlal	r5, r6, r1, r3
   d7902:	f09c 0f00 	teq	ip, #0
   d7906:	bf18      	it	ne
   d7908:	f04e 0e01 	orrne.w	lr, lr, #1
   d790c:	f1a4 04ff 	sub.w	r4, r4, #255	; 0xff
   d7910:	f5b6 7f00 	cmp.w	r6, #512	; 0x200
   d7914:	f564 7440 	sbc.w	r4, r4, #768	; 0x300
   d7918:	d204      	bcs.n	d7924 <__aeabi_dmul+0x80>
   d791a:	ea5f 0e4e 	movs.w	lr, lr, lsl #1
   d791e:	416d      	adcs	r5, r5
   d7920:	eb46 0606 	adc.w	r6, r6, r6
   d7924:	ea42 21c6 	orr.w	r1, r2, r6, lsl #11
   d7928:	ea41 5155 	orr.w	r1, r1, r5, lsr #21
   d792c:	ea4f 20c5 	mov.w	r0, r5, lsl #11
   d7930:	ea40 505e 	orr.w	r0, r0, lr, lsr #21
   d7934:	ea4f 2ece 	mov.w	lr, lr, lsl #11
   d7938:	f1b4 0cfd 	subs.w	ip, r4, #253	; 0xfd
   d793c:	bf88      	it	hi
   d793e:	f5bc 6fe0 	cmphi.w	ip, #1792	; 0x700
   d7942:	d81e      	bhi.n	d7982 <__aeabi_dmul+0xde>
   d7944:	f1be 4f00 	cmp.w	lr, #2147483648	; 0x80000000
   d7948:	bf08      	it	eq
   d794a:	ea5f 0e50 	movseq.w	lr, r0, lsr #1
   d794e:	f150 0000 	adcs.w	r0, r0, #0
   d7952:	eb41 5104 	adc.w	r1, r1, r4, lsl #20
   d7956:	bd70      	pop	{r4, r5, r6, pc}
   d7958:	f006 4600 	and.w	r6, r6, #2147483648	; 0x80000000
   d795c:	ea46 0101 	orr.w	r1, r6, r1
   d7960:	ea40 0002 	orr.w	r0, r0, r2
   d7964:	ea81 0103 	eor.w	r1, r1, r3
   d7968:	ebb4 045c 	subs.w	r4, r4, ip, lsr #1
   d796c:	bfc2      	ittt	gt
   d796e:	ebd4 050c 	rsbsgt	r5, r4, ip
   d7972:	ea41 5104 	orrgt.w	r1, r1, r4, lsl #20
   d7976:	bd70      	popgt	{r4, r5, r6, pc}
   d7978:	f441 1180 	orr.w	r1, r1, #1048576	; 0x100000
   d797c:	f04f 0e00 	mov.w	lr, #0
   d7980:	3c01      	subs	r4, #1
   d7982:	f300 80ab 	bgt.w	d7adc <__aeabi_dmul+0x238>
   d7986:	f114 0f36 	cmn.w	r4, #54	; 0x36
   d798a:	bfde      	ittt	le
   d798c:	2000      	movle	r0, #0
   d798e:	f001 4100 	andle.w	r1, r1, #2147483648	; 0x80000000
   d7992:	bd70      	pople	{r4, r5, r6, pc}
   d7994:	f1c4 0400 	rsb	r4, r4, #0
   d7998:	3c20      	subs	r4, #32
   d799a:	da35      	bge.n	d7a08 <__aeabi_dmul+0x164>
   d799c:	340c      	adds	r4, #12
   d799e:	dc1b      	bgt.n	d79d8 <__aeabi_dmul+0x134>
   d79a0:	f104 0414 	add.w	r4, r4, #20
   d79a4:	f1c4 0520 	rsb	r5, r4, #32
   d79a8:	fa00 f305 	lsl.w	r3, r0, r5
   d79ac:	fa20 f004 	lsr.w	r0, r0, r4
   d79b0:	fa01 f205 	lsl.w	r2, r1, r5
   d79b4:	ea40 0002 	orr.w	r0, r0, r2
   d79b8:	f001 4200 	and.w	r2, r1, #2147483648	; 0x80000000
   d79bc:	f021 4100 	bic.w	r1, r1, #2147483648	; 0x80000000
   d79c0:	eb10 70d3 	adds.w	r0, r0, r3, lsr #31
   d79c4:	fa21 f604 	lsr.w	r6, r1, r4
   d79c8:	eb42 0106 	adc.w	r1, r2, r6
   d79cc:	ea5e 0e43 	orrs.w	lr, lr, r3, lsl #1
   d79d0:	bf08      	it	eq
   d79d2:	ea20 70d3 	biceq.w	r0, r0, r3, lsr #31
   d79d6:	bd70      	pop	{r4, r5, r6, pc}
   d79d8:	f1c4 040c 	rsb	r4, r4, #12
   d79dc:	f1c4 0520 	rsb	r5, r4, #32
   d79e0:	fa00 f304 	lsl.w	r3, r0, r4
   d79e4:	fa20 f005 	lsr.w	r0, r0, r5
   d79e8:	fa01 f204 	lsl.w	r2, r1, r4
   d79ec:	ea40 0002 	orr.w	r0, r0, r2
   d79f0:	f001 4100 	and.w	r1, r1, #2147483648	; 0x80000000
   d79f4:	eb10 70d3 	adds.w	r0, r0, r3, lsr #31
   d79f8:	f141 0100 	adc.w	r1, r1, #0
   d79fc:	ea5e 0e43 	orrs.w	lr, lr, r3, lsl #1
   d7a00:	bf08      	it	eq
   d7a02:	ea20 70d3 	biceq.w	r0, r0, r3, lsr #31
   d7a06:	bd70      	pop	{r4, r5, r6, pc}
   d7a08:	f1c4 0520 	rsb	r5, r4, #32
   d7a0c:	fa00 f205 	lsl.w	r2, r0, r5
   d7a10:	ea4e 0e02 	orr.w	lr, lr, r2
   d7a14:	fa20 f304 	lsr.w	r3, r0, r4
   d7a18:	fa01 f205 	lsl.w	r2, r1, r5
   d7a1c:	ea43 0302 	orr.w	r3, r3, r2
   d7a20:	fa21 f004 	lsr.w	r0, r1, r4
   d7a24:	f001 4100 	and.w	r1, r1, #2147483648	; 0x80000000
   d7a28:	fa21 f204 	lsr.w	r2, r1, r4
   d7a2c:	ea20 0002 	bic.w	r0, r0, r2
   d7a30:	eb00 70d3 	add.w	r0, r0, r3, lsr #31
   d7a34:	ea5e 0e43 	orrs.w	lr, lr, r3, lsl #1
   d7a38:	bf08      	it	eq
   d7a3a:	ea20 70d3 	biceq.w	r0, r0, r3, lsr #31
   d7a3e:	bd70      	pop	{r4, r5, r6, pc}
   d7a40:	f094 0f00 	teq	r4, #0
   d7a44:	d10f      	bne.n	d7a66 <__aeabi_dmul+0x1c2>
   d7a46:	f001 4600 	and.w	r6, r1, #2147483648	; 0x80000000
   d7a4a:	0040      	lsls	r0, r0, #1
   d7a4c:	eb41 0101 	adc.w	r1, r1, r1
   d7a50:	f411 1f80 	tst.w	r1, #1048576	; 0x100000
   d7a54:	bf08      	it	eq
   d7a56:	3c01      	subeq	r4, #1
   d7a58:	d0f7      	beq.n	d7a4a <__aeabi_dmul+0x1a6>
   d7a5a:	ea41 0106 	orr.w	r1, r1, r6
   d7a5e:	f095 0f00 	teq	r5, #0
   d7a62:	bf18      	it	ne
   d7a64:	4770      	bxne	lr
   d7a66:	f003 4600 	and.w	r6, r3, #2147483648	; 0x80000000
   d7a6a:	0052      	lsls	r2, r2, #1
   d7a6c:	eb43 0303 	adc.w	r3, r3, r3
   d7a70:	f413 1f80 	tst.w	r3, #1048576	; 0x100000
   d7a74:	bf08      	it	eq
   d7a76:	3d01      	subeq	r5, #1
   d7a78:	d0f7      	beq.n	d7a6a <__aeabi_dmul+0x1c6>
   d7a7a:	ea43 0306 	orr.w	r3, r3, r6
   d7a7e:	4770      	bx	lr
   d7a80:	ea94 0f0c 	teq	r4, ip
   d7a84:	ea0c 5513 	and.w	r5, ip, r3, lsr #20
   d7a88:	bf18      	it	ne
   d7a8a:	ea95 0f0c 	teqne	r5, ip
   d7a8e:	d00c      	beq.n	d7aaa <__aeabi_dmul+0x206>
   d7a90:	ea50 0641 	orrs.w	r6, r0, r1, lsl #1
   d7a94:	bf18      	it	ne
   d7a96:	ea52 0643 	orrsne.w	r6, r2, r3, lsl #1
   d7a9a:	d1d1      	bne.n	d7a40 <__aeabi_dmul+0x19c>
   d7a9c:	ea81 0103 	eor.w	r1, r1, r3
   d7aa0:	f001 4100 	and.w	r1, r1, #2147483648	; 0x80000000
   d7aa4:	f04f 0000 	mov.w	r0, #0
   d7aa8:	bd70      	pop	{r4, r5, r6, pc}
   d7aaa:	ea50 0641 	orrs.w	r6, r0, r1, lsl #1
   d7aae:	bf06      	itte	eq
   d7ab0:	4610      	moveq	r0, r2
   d7ab2:	4619      	moveq	r1, r3
   d7ab4:	ea52 0643 	orrsne.w	r6, r2, r3, lsl #1
   d7ab8:	d019      	beq.n	d7aee <__aeabi_dmul+0x24a>
   d7aba:	ea94 0f0c 	teq	r4, ip
   d7abe:	d102      	bne.n	d7ac6 <__aeabi_dmul+0x222>
   d7ac0:	ea50 3601 	orrs.w	r6, r0, r1, lsl #12
   d7ac4:	d113      	bne.n	d7aee <__aeabi_dmul+0x24a>
   d7ac6:	ea95 0f0c 	teq	r5, ip
   d7aca:	d105      	bne.n	d7ad8 <__aeabi_dmul+0x234>
   d7acc:	ea52 3603 	orrs.w	r6, r2, r3, lsl #12
   d7ad0:	bf1c      	itt	ne
   d7ad2:	4610      	movne	r0, r2
   d7ad4:	4619      	movne	r1, r3
   d7ad6:	d10a      	bne.n	d7aee <__aeabi_dmul+0x24a>
   d7ad8:	ea81 0103 	eor.w	r1, r1, r3
   d7adc:	f001 4100 	and.w	r1, r1, #2147483648	; 0x80000000
   d7ae0:	f041 41fe 	orr.w	r1, r1, #2130706432	; 0x7f000000
   d7ae4:	f441 0170 	orr.w	r1, r1, #15728640	; 0xf00000
   d7ae8:	f04f 0000 	mov.w	r0, #0
   d7aec:	bd70      	pop	{r4, r5, r6, pc}
   d7aee:	f041 41fe 	orr.w	r1, r1, #2130706432	; 0x7f000000
   d7af2:	f441 0178 	orr.w	r1, r1, #16252928	; 0xf80000
   d7af6:	bd70      	pop	{r4, r5, r6, pc}

000d7af8 <__aeabi_ddiv>:
   d7af8:	b570      	push	{r4, r5, r6, lr}
   d7afa:	f04f 0cff 	mov.w	ip, #255	; 0xff
   d7afe:	f44c 6ce0 	orr.w	ip, ip, #1792	; 0x700
   d7b02:	ea1c 5411 	ands.w	r4, ip, r1, lsr #20
   d7b06:	bf1d      	ittte	ne
   d7b08:	ea1c 5513 	andsne.w	r5, ip, r3, lsr #20
   d7b0c:	ea94 0f0c 	teqne	r4, ip
   d7b10:	ea95 0f0c 	teqne	r5, ip
   d7b14:	f000 f8a7 	bleq	d7c66 <__aeabi_ddiv+0x16e>
   d7b18:	eba4 0405 	sub.w	r4, r4, r5
   d7b1c:	ea81 0e03 	eor.w	lr, r1, r3
   d7b20:	ea52 3503 	orrs.w	r5, r2, r3, lsl #12
   d7b24:	ea4f 3101 	mov.w	r1, r1, lsl #12
   d7b28:	f000 8088 	beq.w	d7c3c <__aeabi_ddiv+0x144>
   d7b2c:	ea4f 3303 	mov.w	r3, r3, lsl #12
   d7b30:	f04f 5580 	mov.w	r5, #268435456	; 0x10000000
   d7b34:	ea45 1313 	orr.w	r3, r5, r3, lsr #4
   d7b38:	ea43 6312 	orr.w	r3, r3, r2, lsr #24
   d7b3c:	ea4f 2202 	mov.w	r2, r2, lsl #8
   d7b40:	ea45 1511 	orr.w	r5, r5, r1, lsr #4
   d7b44:	ea45 6510 	orr.w	r5, r5, r0, lsr #24
   d7b48:	ea4f 2600 	mov.w	r6, r0, lsl #8
   d7b4c:	f00e 4100 	and.w	r1, lr, #2147483648	; 0x80000000
   d7b50:	429d      	cmp	r5, r3
   d7b52:	bf08      	it	eq
   d7b54:	4296      	cmpeq	r6, r2
   d7b56:	f144 04fd 	adc.w	r4, r4, #253	; 0xfd
   d7b5a:	f504 7440 	add.w	r4, r4, #768	; 0x300
   d7b5e:	d202      	bcs.n	d7b66 <__aeabi_ddiv+0x6e>
   d7b60:	085b      	lsrs	r3, r3, #1
   d7b62:	ea4f 0232 	mov.w	r2, r2, rrx
   d7b66:	1ab6      	subs	r6, r6, r2
   d7b68:	eb65 0503 	sbc.w	r5, r5, r3
   d7b6c:	085b      	lsrs	r3, r3, #1
   d7b6e:	ea4f 0232 	mov.w	r2, r2, rrx
   d7b72:	f44f 1080 	mov.w	r0, #1048576	; 0x100000
   d7b76:	f44f 2c00 	mov.w	ip, #524288	; 0x80000
   d7b7a:	ebb6 0e02 	subs.w	lr, r6, r2
   d7b7e:	eb75 0e03 	sbcs.w	lr, r5, r3
   d7b82:	bf22      	ittt	cs
   d7b84:	1ab6      	subcs	r6, r6, r2
   d7b86:	4675      	movcs	r5, lr
   d7b88:	ea40 000c 	orrcs.w	r0, r0, ip
   d7b8c:	085b      	lsrs	r3, r3, #1
   d7b8e:	ea4f 0232 	mov.w	r2, r2, rrx
   d7b92:	ebb6 0e02 	subs.w	lr, r6, r2
   d7b96:	eb75 0e03 	sbcs.w	lr, r5, r3
   d7b9a:	bf22      	ittt	cs
   d7b9c:	1ab6      	subcs	r6, r6, r2
   d7b9e:	4675      	movcs	r5, lr
   d7ba0:	ea40 005c 	orrcs.w	r0, r0, ip, lsr #1
   d7ba4:	085b      	lsrs	r3, r3, #1
   d7ba6:	ea4f 0232 	mov.w	r2, r2, rrx
   d7baa:	ebb6 0e02 	subs.w	lr, r6, r2
   d7bae:	eb75 0e03 	sbcs.w	lr, r5, r3
   d7bb2:	bf22      	ittt	cs
   d7bb4:	1ab6      	subcs	r6, r6, r2
   d7bb6:	4675      	movcs	r5, lr
   d7bb8:	ea40 009c 	orrcs.w	r0, r0, ip, lsr #2
   d7bbc:	085b      	lsrs	r3, r3, #1
   d7bbe:	ea4f 0232 	mov.w	r2, r2, rrx
   d7bc2:	ebb6 0e02 	subs.w	lr, r6, r2
   d7bc6:	eb75 0e03 	sbcs.w	lr, r5, r3
   d7bca:	bf22      	ittt	cs
   d7bcc:	1ab6      	subcs	r6, r6, r2
   d7bce:	4675      	movcs	r5, lr
   d7bd0:	ea40 00dc 	orrcs.w	r0, r0, ip, lsr #3
   d7bd4:	ea55 0e06 	orrs.w	lr, r5, r6
   d7bd8:	d018      	beq.n	d7c0c <__aeabi_ddiv+0x114>
   d7bda:	ea4f 1505 	mov.w	r5, r5, lsl #4
   d7bde:	ea45 7516 	orr.w	r5, r5, r6, lsr #28
   d7be2:	ea4f 1606 	mov.w	r6, r6, lsl #4
   d7be6:	ea4f 03c3 	mov.w	r3, r3, lsl #3
   d7bea:	ea43 7352 	orr.w	r3, r3, r2, lsr #29
   d7bee:	ea4f 02c2 	mov.w	r2, r2, lsl #3
   d7bf2:	ea5f 1c1c 	movs.w	ip, ip, lsr #4
   d7bf6:	d1c0      	bne.n	d7b7a <__aeabi_ddiv+0x82>
   d7bf8:	f411 1f80 	tst.w	r1, #1048576	; 0x100000
   d7bfc:	d10b      	bne.n	d7c16 <__aeabi_ddiv+0x11e>
   d7bfe:	ea41 0100 	orr.w	r1, r1, r0
   d7c02:	f04f 0000 	mov.w	r0, #0
   d7c06:	f04f 4c00 	mov.w	ip, #2147483648	; 0x80000000
   d7c0a:	e7b6      	b.n	d7b7a <__aeabi_ddiv+0x82>
   d7c0c:	f411 1f80 	tst.w	r1, #1048576	; 0x100000
   d7c10:	bf04      	itt	eq
   d7c12:	4301      	orreq	r1, r0
   d7c14:	2000      	moveq	r0, #0
   d7c16:	f1b4 0cfd 	subs.w	ip, r4, #253	; 0xfd
   d7c1a:	bf88      	it	hi
   d7c1c:	f5bc 6fe0 	cmphi.w	ip, #1792	; 0x700
   d7c20:	f63f aeaf 	bhi.w	d7982 <__aeabi_dmul+0xde>
   d7c24:	ebb5 0c03 	subs.w	ip, r5, r3
   d7c28:	bf04      	itt	eq
   d7c2a:	ebb6 0c02 	subseq.w	ip, r6, r2
   d7c2e:	ea5f 0c50 	movseq.w	ip, r0, lsr #1
   d7c32:	f150 0000 	adcs.w	r0, r0, #0
   d7c36:	eb41 5104 	adc.w	r1, r1, r4, lsl #20
   d7c3a:	bd70      	pop	{r4, r5, r6, pc}
   d7c3c:	f00e 4e00 	and.w	lr, lr, #2147483648	; 0x80000000
   d7c40:	ea4e 3111 	orr.w	r1, lr, r1, lsr #12
   d7c44:	eb14 045c 	adds.w	r4, r4, ip, lsr #1
   d7c48:	bfc2      	ittt	gt
   d7c4a:	ebd4 050c 	rsbsgt	r5, r4, ip
   d7c4e:	ea41 5104 	orrgt.w	r1, r1, r4, lsl #20
   d7c52:	bd70      	popgt	{r4, r5, r6, pc}
   d7c54:	f441 1180 	orr.w	r1, r1, #1048576	; 0x100000
   d7c58:	f04f 0e00 	mov.w	lr, #0
   d7c5c:	3c01      	subs	r4, #1
   d7c5e:	e690      	b.n	d7982 <__aeabi_dmul+0xde>
   d7c60:	ea45 0e06 	orr.w	lr, r5, r6
   d7c64:	e68d      	b.n	d7982 <__aeabi_dmul+0xde>
   d7c66:	ea0c 5513 	and.w	r5, ip, r3, lsr #20
   d7c6a:	ea94 0f0c 	teq	r4, ip
   d7c6e:	bf08      	it	eq
   d7c70:	ea95 0f0c 	teqeq	r5, ip
   d7c74:	f43f af3b 	beq.w	d7aee <__aeabi_dmul+0x24a>
   d7c78:	ea94 0f0c 	teq	r4, ip
   d7c7c:	d10a      	bne.n	d7c94 <__aeabi_ddiv+0x19c>
   d7c7e:	ea50 3401 	orrs.w	r4, r0, r1, lsl #12
   d7c82:	f47f af34 	bne.w	d7aee <__aeabi_dmul+0x24a>
   d7c86:	ea95 0f0c 	teq	r5, ip
   d7c8a:	f47f af25 	bne.w	d7ad8 <__aeabi_dmul+0x234>
   d7c8e:	4610      	mov	r0, r2
   d7c90:	4619      	mov	r1, r3
   d7c92:	e72c      	b.n	d7aee <__aeabi_dmul+0x24a>
   d7c94:	ea95 0f0c 	teq	r5, ip
   d7c98:	d106      	bne.n	d7ca8 <__aeabi_ddiv+0x1b0>
   d7c9a:	ea52 3503 	orrs.w	r5, r2, r3, lsl #12
   d7c9e:	f43f aefd 	beq.w	d7a9c <__aeabi_dmul+0x1f8>
   d7ca2:	4610      	mov	r0, r2
   d7ca4:	4619      	mov	r1, r3
   d7ca6:	e722      	b.n	d7aee <__aeabi_dmul+0x24a>
   d7ca8:	ea50 0641 	orrs.w	r6, r0, r1, lsl #1
   d7cac:	bf18      	it	ne
   d7cae:	ea52 0643 	orrsne.w	r6, r2, r3, lsl #1
   d7cb2:	f47f aec5 	bne.w	d7a40 <__aeabi_dmul+0x19c>
   d7cb6:	ea50 0441 	orrs.w	r4, r0, r1, lsl #1
   d7cba:	f47f af0d 	bne.w	d7ad8 <__aeabi_dmul+0x234>
   d7cbe:	ea52 0543 	orrs.w	r5, r2, r3, lsl #1
   d7cc2:	f47f aeeb 	bne.w	d7a9c <__aeabi_dmul+0x1f8>
   d7cc6:	e712      	b.n	d7aee <__aeabi_dmul+0x24a>

000d7cc8 <__aeabi_d2f>:
   d7cc8:	ea4f 0241 	mov.w	r2, r1, lsl #1
   d7ccc:	f1b2 43e0 	subs.w	r3, r2, #1879048192	; 0x70000000
   d7cd0:	bf24      	itt	cs
   d7cd2:	f5b3 1c00 	subscs.w	ip, r3, #2097152	; 0x200000
   d7cd6:	f1dc 5cfe 	rsbscs	ip, ip, #532676608	; 0x1fc00000
   d7cda:	d90d      	bls.n	d7cf8 <__aeabi_d2f+0x30>
   d7cdc:	f001 4c00 	and.w	ip, r1, #2147483648	; 0x80000000
   d7ce0:	ea4f 02c0 	mov.w	r2, r0, lsl #3
   d7ce4:	ea4c 7050 	orr.w	r0, ip, r0, lsr #29
   d7ce8:	f1b2 4f00 	cmp.w	r2, #2147483648	; 0x80000000
   d7cec:	eb40 0083 	adc.w	r0, r0, r3, lsl #2
   d7cf0:	bf08      	it	eq
   d7cf2:	f020 0001 	biceq.w	r0, r0, #1
   d7cf6:	4770      	bx	lr
   d7cf8:	f011 4f80 	tst.w	r1, #1073741824	; 0x40000000
   d7cfc:	d121      	bne.n	d7d42 <__aeabi_d2f+0x7a>
   d7cfe:	f113 7238 	adds.w	r2, r3, #48234496	; 0x2e00000
   d7d02:	bfbc      	itt	lt
   d7d04:	f001 4000 	andlt.w	r0, r1, #2147483648	; 0x80000000
   d7d08:	4770      	bxlt	lr
   d7d0a:	f441 1180 	orr.w	r1, r1, #1048576	; 0x100000
   d7d0e:	ea4f 5252 	mov.w	r2, r2, lsr #21
   d7d12:	f1c2 0218 	rsb	r2, r2, #24
   d7d16:	f1c2 0c20 	rsb	ip, r2, #32
   d7d1a:	fa10 f30c 	lsls.w	r3, r0, ip
   d7d1e:	fa20 f002 	lsr.w	r0, r0, r2
   d7d22:	bf18      	it	ne
   d7d24:	f040 0001 	orrne.w	r0, r0, #1
   d7d28:	ea4f 23c1 	mov.w	r3, r1, lsl #11
   d7d2c:	ea4f 23d3 	mov.w	r3, r3, lsr #11
   d7d30:	fa03 fc0c 	lsl.w	ip, r3, ip
   d7d34:	ea40 000c 	orr.w	r0, r0, ip
   d7d38:	fa23 f302 	lsr.w	r3, r3, r2
   d7d3c:	ea4f 0343 	mov.w	r3, r3, lsl #1
   d7d40:	e7cc      	b.n	d7cdc <__aeabi_d2f+0x14>
   d7d42:	ea7f 5362 	mvns.w	r3, r2, asr #21
   d7d46:	d107      	bne.n	d7d58 <__aeabi_d2f+0x90>
   d7d48:	ea50 3301 	orrs.w	r3, r0, r1, lsl #12
   d7d4c:	bf1e      	ittt	ne
   d7d4e:	f04f 40fe 	movne.w	r0, #2130706432	; 0x7f000000
   d7d52:	f440 0040 	orrne.w	r0, r0, #12582912	; 0xc00000
   d7d56:	4770      	bxne	lr
   d7d58:	f001 4000 	and.w	r0, r1, #2147483648	; 0x80000000
   d7d5c:	f040 40fe 	orr.w	r0, r0, #2130706432	; 0x7f000000
   d7d60:	f440 0000 	orr.w	r0, r0, #8388608	; 0x800000
   d7d64:	4770      	bx	lr
   d7d66:	bf00      	nop

000d7d68 <atol>:
   d7d68:	220a      	movs	r2, #10
   d7d6a:	2100      	movs	r1, #0
   d7d6c:	f000 b952 	b.w	d8014 <strtol>

000d7d70 <__cxa_atexit>:
   d7d70:	b510      	push	{r4, lr}
   d7d72:	4c05      	ldr	r4, [pc, #20]	; (d7d88 <__cxa_atexit+0x18>)
   d7d74:	4613      	mov	r3, r2
   d7d76:	b12c      	cbz	r4, d7d84 <__cxa_atexit+0x14>
   d7d78:	460a      	mov	r2, r1
   d7d7a:	4601      	mov	r1, r0
   d7d7c:	2002      	movs	r0, #2
   d7d7e:	f3af 8000 	nop.w
   d7d82:	bd10      	pop	{r4, pc}
   d7d84:	4620      	mov	r0, r4
   d7d86:	bd10      	pop	{r4, pc}
   d7d88:	00000000 	.word	0x00000000

000d7d8c <memcpy>:
   d7d8c:	b510      	push	{r4, lr}
   d7d8e:	1e43      	subs	r3, r0, #1
   d7d90:	440a      	add	r2, r1
   d7d92:	4291      	cmp	r1, r2
   d7d94:	d004      	beq.n	d7da0 <memcpy+0x14>
   d7d96:	f811 4b01 	ldrb.w	r4, [r1], #1
   d7d9a:	f803 4f01 	strb.w	r4, [r3, #1]!
   d7d9e:	e7f8      	b.n	d7d92 <memcpy+0x6>
   d7da0:	bd10      	pop	{r4, pc}

000d7da2 <memset>:
   d7da2:	4402      	add	r2, r0
   d7da4:	4603      	mov	r3, r0
   d7da6:	4293      	cmp	r3, r2
   d7da8:	d002      	beq.n	d7db0 <memset+0xe>
   d7daa:	f803 1b01 	strb.w	r1, [r3], #1
   d7dae:	e7fa      	b.n	d7da6 <memset+0x4>
   d7db0:	4770      	bx	lr
	...

000d7db4 <srand>:
   d7db4:	b538      	push	{r3, r4, r5, lr}
   d7db6:	4b12      	ldr	r3, [pc, #72]	; (d7e00 <srand+0x4c>)
   d7db8:	681c      	ldr	r4, [r3, #0]
   d7dba:	6ba3      	ldr	r3, [r4, #56]	; 0x38
   d7dbc:	4605      	mov	r5, r0
   d7dbe:	b9d3      	cbnz	r3, d7df6 <srand+0x42>
   d7dc0:	2018      	movs	r0, #24
   d7dc2:	f7fe f817 	bl	d5df4 <malloc>
   d7dc6:	f243 330e 	movw	r3, #13070	; 0x330e
   d7dca:	63a0      	str	r0, [r4, #56]	; 0x38
   d7dcc:	8003      	strh	r3, [r0, #0]
   d7dce:	f64a 33cd 	movw	r3, #43981	; 0xabcd
   d7dd2:	8043      	strh	r3, [r0, #2]
   d7dd4:	f241 2334 	movw	r3, #4660	; 0x1234
   d7dd8:	8083      	strh	r3, [r0, #4]
   d7dda:	f24e 636d 	movw	r3, #58989	; 0xe66d
   d7dde:	80c3      	strh	r3, [r0, #6]
   d7de0:	f64d 63ec 	movw	r3, #57068	; 0xdeec
   d7de4:	8103      	strh	r3, [r0, #8]
   d7de6:	2305      	movs	r3, #5
   d7de8:	8143      	strh	r3, [r0, #10]
   d7dea:	230b      	movs	r3, #11
   d7dec:	8183      	strh	r3, [r0, #12]
   d7dee:	2201      	movs	r2, #1
   d7df0:	2300      	movs	r3, #0
   d7df2:	e9c0 2304 	strd	r2, r3, [r0, #16]
   d7df6:	6ba3      	ldr	r3, [r4, #56]	; 0x38
   d7df8:	2200      	movs	r2, #0
   d7dfa:	611d      	str	r5, [r3, #16]
   d7dfc:	615a      	str	r2, [r3, #20]
   d7dfe:	bd38      	pop	{r3, r4, r5, pc}
   d7e00:	2003e294 	.word	0x2003e294

000d7e04 <rand>:
   d7e04:	4b19      	ldr	r3, [pc, #100]	; (d7e6c <rand+0x68>)
   d7e06:	b510      	push	{r4, lr}
   d7e08:	681c      	ldr	r4, [r3, #0]
   d7e0a:	6ba3      	ldr	r3, [r4, #56]	; 0x38
   d7e0c:	b9d3      	cbnz	r3, d7e44 <rand+0x40>
   d7e0e:	2018      	movs	r0, #24
   d7e10:	f7fd fff0 	bl	d5df4 <malloc>
   d7e14:	f243 330e 	movw	r3, #13070	; 0x330e
   d7e18:	63a0      	str	r0, [r4, #56]	; 0x38
   d7e1a:	8003      	strh	r3, [r0, #0]
   d7e1c:	f64a 33cd 	movw	r3, #43981	; 0xabcd
   d7e20:	8043      	strh	r3, [r0, #2]
   d7e22:	f241 2334 	movw	r3, #4660	; 0x1234
   d7e26:	8083      	strh	r3, [r0, #4]
   d7e28:	f24e 636d 	movw	r3, #58989	; 0xe66d
   d7e2c:	80c3      	strh	r3, [r0, #6]
   d7e2e:	f64d 63ec 	movw	r3, #57068	; 0xdeec
   d7e32:	8103      	strh	r3, [r0, #8]
   d7e34:	2305      	movs	r3, #5
   d7e36:	8143      	strh	r3, [r0, #10]
   d7e38:	230b      	movs	r3, #11
   d7e3a:	8183      	strh	r3, [r0, #12]
   d7e3c:	2201      	movs	r2, #1
   d7e3e:	2300      	movs	r3, #0
   d7e40:	e9c0 2304 	strd	r2, r3, [r0, #16]
   d7e44:	6ba1      	ldr	r1, [r4, #56]	; 0x38
   d7e46:	4c0a      	ldr	r4, [pc, #40]	; (d7e70 <rand+0x6c>)
   d7e48:	690b      	ldr	r3, [r1, #16]
   d7e4a:	6948      	ldr	r0, [r1, #20]
   d7e4c:	4a09      	ldr	r2, [pc, #36]	; (d7e74 <rand+0x70>)
   d7e4e:	435c      	muls	r4, r3
   d7e50:	fb02 4000 	mla	r0, r2, r0, r4
   d7e54:	fba3 2302 	umull	r2, r3, r3, r2
   d7e58:	3201      	adds	r2, #1
   d7e5a:	4403      	add	r3, r0
   d7e5c:	f143 0300 	adc.w	r3, r3, #0
   d7e60:	e9c1 2304 	strd	r2, r3, [r1, #16]
   d7e64:	f023 4000 	bic.w	r0, r3, #2147483648	; 0x80000000
   d7e68:	bd10      	pop	{r4, pc}
   d7e6a:	bf00      	nop
   d7e6c:	2003e294 	.word	0x2003e294
   d7e70:	5851f42d 	.word	0x5851f42d
   d7e74:	4c957f2d 	.word	0x4c957f2d

000d7e78 <strcmp>:
   d7e78:	f810 2b01 	ldrb.w	r2, [r0], #1
   d7e7c:	f811 3b01 	ldrb.w	r3, [r1], #1
   d7e80:	2a01      	cmp	r2, #1
   d7e82:	bf28      	it	cs
   d7e84:	429a      	cmpcs	r2, r3
   d7e86:	d0f7      	beq.n	d7e78 <strcmp>
   d7e88:	1ad0      	subs	r0, r2, r3
   d7e8a:	4770      	bx	lr

000d7e8c <strcpy>:
   d7e8c:	4603      	mov	r3, r0
   d7e8e:	f811 2b01 	ldrb.w	r2, [r1], #1
   d7e92:	f803 2b01 	strb.w	r2, [r3], #1
   d7e96:	2a00      	cmp	r2, #0
   d7e98:	d1f9      	bne.n	d7e8e <strcpy+0x2>
   d7e9a:	4770      	bx	lr

000d7e9c <strdup>:
   d7e9c:	4b02      	ldr	r3, [pc, #8]	; (d7ea8 <strdup+0xc>)
   d7e9e:	4601      	mov	r1, r0
   d7ea0:	6818      	ldr	r0, [r3, #0]
   d7ea2:	f000 b803 	b.w	d7eac <_strdup_r>
   d7ea6:	bf00      	nop
   d7ea8:	2003e294 	.word	0x2003e294

000d7eac <_strdup_r>:
   d7eac:	b570      	push	{r4, r5, r6, lr}
   d7eae:	4606      	mov	r6, r0
   d7eb0:	4608      	mov	r0, r1
   d7eb2:	460c      	mov	r4, r1
   d7eb4:	f000 f80d 	bl	d7ed2 <strlen>
   d7eb8:	1c45      	adds	r5, r0, #1
   d7eba:	4629      	mov	r1, r5
   d7ebc:	4630      	mov	r0, r6
   d7ebe:	f7fd ffb9 	bl	d5e34 <_malloc_r>
   d7ec2:	4606      	mov	r6, r0
   d7ec4:	b118      	cbz	r0, d7ece <_strdup_r+0x22>
   d7ec6:	462a      	mov	r2, r5
   d7ec8:	4621      	mov	r1, r4
   d7eca:	f7ff ff5f 	bl	d7d8c <memcpy>
   d7ece:	4630      	mov	r0, r6
   d7ed0:	bd70      	pop	{r4, r5, r6, pc}

000d7ed2 <strlen>:
   d7ed2:	4603      	mov	r3, r0
   d7ed4:	f813 2b01 	ldrb.w	r2, [r3], #1
   d7ed8:	2a00      	cmp	r2, #0
   d7eda:	d1fb      	bne.n	d7ed4 <strlen+0x2>
   d7edc:	1a18      	subs	r0, r3, r0
   d7ede:	3801      	subs	r0, #1
   d7ee0:	4770      	bx	lr

000d7ee2 <strncpy>:
   d7ee2:	b510      	push	{r4, lr}
   d7ee4:	4603      	mov	r3, r0
   d7ee6:	b142      	cbz	r2, d7efa <strncpy+0x18>
   d7ee8:	f811 4b01 	ldrb.w	r4, [r1], #1
   d7eec:	f803 4b01 	strb.w	r4, [r3], #1
   d7ef0:	3a01      	subs	r2, #1
   d7ef2:	2c00      	cmp	r4, #0
   d7ef4:	d1f7      	bne.n	d7ee6 <strncpy+0x4>
   d7ef6:	441a      	add	r2, r3
   d7ef8:	e000      	b.n	d7efc <strncpy+0x1a>
   d7efa:	bd10      	pop	{r4, pc}
   d7efc:	4293      	cmp	r3, r2
   d7efe:	d002      	beq.n	d7f06 <strncpy+0x24>
   d7f00:	f803 4b01 	strb.w	r4, [r3], #1
   d7f04:	e7fa      	b.n	d7efc <strncpy+0x1a>
   d7f06:	bd10      	pop	{r4, pc}

000d7f08 <_strtol_r>:
   d7f08:	e92d 47f0 	stmdb	sp!, {r4, r5, r6, r7, r8, r9, sl, lr}
   d7f0c:	4680      	mov	r8, r0
   d7f0e:	4840      	ldr	r0, [pc, #256]	; (d8010 <_strtol_r+0x108>)
   d7f10:	f8d0 9000 	ldr.w	r9, [r0]
   d7f14:	460f      	mov	r7, r1
   d7f16:	463d      	mov	r5, r7
   d7f18:	f815 4b01 	ldrb.w	r4, [r5], #1
   d7f1c:	eb09 0004 	add.w	r0, r9, r4
   d7f20:	7840      	ldrb	r0, [r0, #1]
   d7f22:	f000 0008 	and.w	r0, r0, #8
   d7f26:	f000 06ff 	and.w	r6, r0, #255	; 0xff
   d7f2a:	b108      	cbz	r0, d7f30 <_strtol_r+0x28>
   d7f2c:	462f      	mov	r7, r5
   d7f2e:	e7f2      	b.n	d7f16 <_strtol_r+0xe>
   d7f30:	2c2d      	cmp	r4, #45	; 0x2d
   d7f32:	d103      	bne.n	d7f3c <_strtol_r+0x34>
   d7f34:	1cbd      	adds	r5, r7, #2
   d7f36:	787c      	ldrb	r4, [r7, #1]
   d7f38:	2601      	movs	r6, #1
   d7f3a:	e003      	b.n	d7f44 <_strtol_r+0x3c>
   d7f3c:	2c2b      	cmp	r4, #43	; 0x2b
   d7f3e:	bf04      	itt	eq
   d7f40:	787c      	ldrbeq	r4, [r7, #1]
   d7f42:	1cbd      	addeq	r5, r7, #2
   d7f44:	b113      	cbz	r3, d7f4c <_strtol_r+0x44>
   d7f46:	2b10      	cmp	r3, #16
   d7f48:	d10a      	bne.n	d7f60 <_strtol_r+0x58>
   d7f4a:	e05b      	b.n	d8004 <_strtol_r+0xfc>
   d7f4c:	2c30      	cmp	r4, #48	; 0x30
   d7f4e:	d157      	bne.n	d8000 <_strtol_r+0xf8>
   d7f50:	7828      	ldrb	r0, [r5, #0]
   d7f52:	f000 00df 	and.w	r0, r0, #223	; 0xdf
   d7f56:	2858      	cmp	r0, #88	; 0x58
   d7f58:	d14d      	bne.n	d7ff6 <_strtol_r+0xee>
   d7f5a:	786c      	ldrb	r4, [r5, #1]
   d7f5c:	2310      	movs	r3, #16
   d7f5e:	3502      	adds	r5, #2
   d7f60:	2e00      	cmp	r6, #0
   d7f62:	bf14      	ite	ne
   d7f64:	f04f 4c00 	movne.w	ip, #2147483648	; 0x80000000
   d7f68:	f06f 4c00 	mvneq.w	ip, #2147483648	; 0x80000000
   d7f6c:	2700      	movs	r7, #0
   d7f6e:	fbbc faf3 	udiv	sl, ip, r3
   d7f72:	4638      	mov	r0, r7
   d7f74:	fb03 cc1a 	mls	ip, r3, sl, ip
   d7f78:	eb09 0e04 	add.w	lr, r9, r4
   d7f7c:	f89e e001 	ldrb.w	lr, [lr, #1]
   d7f80:	f01e 0f04 	tst.w	lr, #4
   d7f84:	d001      	beq.n	d7f8a <_strtol_r+0x82>
   d7f86:	3c30      	subs	r4, #48	; 0x30
   d7f88:	e00b      	b.n	d7fa2 <_strtol_r+0x9a>
   d7f8a:	f01e 0e03 	ands.w	lr, lr, #3
   d7f8e:	d01b      	beq.n	d7fc8 <_strtol_r+0xc0>
   d7f90:	f1be 0f01 	cmp.w	lr, #1
   d7f94:	bf0c      	ite	eq
   d7f96:	f04f 0e37 	moveq.w	lr, #55	; 0x37
   d7f9a:	f04f 0e57 	movne.w	lr, #87	; 0x57
   d7f9e:	ebce 0404 	rsb	r4, lr, r4
   d7fa2:	42a3      	cmp	r3, r4
   d7fa4:	dd10      	ble.n	d7fc8 <_strtol_r+0xc0>
   d7fa6:	f1b7 3fff 	cmp.w	r7, #4294967295
   d7faa:	d00a      	beq.n	d7fc2 <_strtol_r+0xba>
   d7fac:	4550      	cmp	r0, sl
   d7fae:	d806      	bhi.n	d7fbe <_strtol_r+0xb6>
   d7fb0:	d101      	bne.n	d7fb6 <_strtol_r+0xae>
   d7fb2:	4564      	cmp	r4, ip
   d7fb4:	dc03      	bgt.n	d7fbe <_strtol_r+0xb6>
   d7fb6:	fb03 4000 	mla	r0, r3, r0, r4
   d7fba:	2701      	movs	r7, #1
   d7fbc:	e001      	b.n	d7fc2 <_strtol_r+0xba>
   d7fbe:	f04f 37ff 	mov.w	r7, #4294967295
   d7fc2:	f815 4b01 	ldrb.w	r4, [r5], #1
   d7fc6:	e7d7      	b.n	d7f78 <_strtol_r+0x70>
   d7fc8:	1c7b      	adds	r3, r7, #1
   d7fca:	d10c      	bne.n	d7fe6 <_strtol_r+0xde>
   d7fcc:	2e00      	cmp	r6, #0
   d7fce:	f04f 0322 	mov.w	r3, #34	; 0x22
   d7fd2:	bf14      	ite	ne
   d7fd4:	f04f 4000 	movne.w	r0, #2147483648	; 0x80000000
   d7fd8:	f06f 4000 	mvneq.w	r0, #2147483648	; 0x80000000
   d7fdc:	f8c8 3000 	str.w	r3, [r8]
   d7fe0:	b92a      	cbnz	r2, d7fee <_strtol_r+0xe6>
   d7fe2:	e8bd 87f0 	ldmia.w	sp!, {r4, r5, r6, r7, r8, r9, sl, pc}
   d7fe6:	b106      	cbz	r6, d7fea <_strtol_r+0xe2>
   d7fe8:	4240      	negs	r0, r0
   d7fea:	b172      	cbz	r2, d800a <_strtol_r+0x102>
   d7fec:	b107      	cbz	r7, d7ff0 <_strtol_r+0xe8>
   d7fee:	1e69      	subs	r1, r5, #1
   d7ff0:	6011      	str	r1, [r2, #0]
   d7ff2:	e8bd 87f0 	ldmia.w	sp!, {r4, r5, r6, r7, r8, r9, sl, pc}
   d7ff6:	2430      	movs	r4, #48	; 0x30
   d7ff8:	2b00      	cmp	r3, #0
   d7ffa:	d1b1      	bne.n	d7f60 <_strtol_r+0x58>
   d7ffc:	2308      	movs	r3, #8
   d7ffe:	e7af      	b.n	d7f60 <_strtol_r+0x58>
   d8000:	230a      	movs	r3, #10
   d8002:	e7ad      	b.n	d7f60 <_strtol_r+0x58>
   d8004:	2c30      	cmp	r4, #48	; 0x30
   d8006:	d0a3      	beq.n	d7f50 <_strtol_r+0x48>
   d8008:	e7aa      	b.n	d7f60 <_strtol_r+0x58>
   d800a:	e8bd 87f0 	ldmia.w	sp!, {r4, r5, r6, r7, r8, r9, sl, pc}
   d800e:	bf00      	nop
   d8010:	2003e230 	.word	0x2003e230

000d8014 <strtol>:
   d8014:	4613      	mov	r3, r2
   d8016:	460a      	mov	r2, r1
   d8018:	4601      	mov	r1, r0
   d801a:	4802      	ldr	r0, [pc, #8]	; (d8024 <strtol+0x10>)
   d801c:	6800      	ldr	r0, [r0, #0]
   d801e:	f7ff bf73 	b.w	d7f08 <_strtol_r>
   d8022:	bf00      	nop
   d8024:	2003e294 	.word	0x2003e294

000d8028 <dynalib_user>:
   d8028:	000d4021 000d405d 000d4089 000d408d     !@..]@...@...@..
   d8038:	00000000                                ....

000d803c <_ZTV16JsonWriterStaticILj256EE>:
	...
   d8044:	000d40d1 000d40e5 50472020 53200a53     .@...@..  GPS. S
   d8054:	74726174 00676e69 6974614c 65647574     tarting.Latitude
   d8064:	6e6f4c00 75746967 41006564 7469746c     .Longitude.Altit
   d8074:	00656475 72626956 6f697461 6425006e     ude.Vibration.%d
   d8084:	73706700 7461645f 75500061 73696c62     .gps_data.Publis
   d8094:	69540068 203a656d 69323025 3230253a     h.Time: %02i:%02
   d80a4:	30253a69 253a6932 20693230 202d2d2d     i:%02i:%02i --- 
   d80b4:	74616c00 6625203a 6f6c202c 203a676e     .lat: %f, long: 
   d80c4:	202c6625 3a746c61 20662520 6c25000a     %f, alt: %f ..%l
   d80d4:	696d2075 73696c6c 6e6f6365 74207364     u milliseconds t
   d80e4:	6567206f 50472074 69662053 69540078     o get GPS fix.Ti
   d80f4:	203a656d 69323025 3230253a 30253a69     me: %02i:%02i:%0
   d8104:	0a206932 74616c00 20202020 0a206625     2i ..lat    %f .
   d8114:	676e6f6c 20662520 746c610a 0a662520     long %f .alt %f.
   d8124:	74617300 74696c65 25207365 000a2069     .satelites %i ..
   d8134:	6c206f6e 7461636f 006e6f69              no location.

000d8140 <_ZTV16Adafruit_SSD1306>:
	...
   d8148:	000d40cd 000d4531 000d4fa9 000d6105     .@..1E...O...a..
   d8158:	000d4875 000d4ca9 000d46fd 000d4589     uH...L...F...E..
   d8168:	000d4d69 000d4dff 000d4e37 000d4e53     iM...M..7N..SN..

000d8178 <_ZTV12Adafruit_GFX>:
	...
   d8188:	000d4fa9 000d6105 000d40a9 000d4ca9     .O...a...@...L..
   d8198:	000d4dc9 000d4de5 000d4d69 000d4dff     .M...M..iM...M..
   d81a8:	000d4e37 000d4e53                       7N..SN..

000d81b0 <_ZL4font>:
   d81b0:	00000000 4f5b3e00 6b3e3e5b 1c3e6b4f     .....>[O[>>kOk>.
   d81c0:	1c3e7c3e 3c7e3c18 7d571c18 5e1c1c57     >|>..<~<..W}W..^
   d81d0:	001c5e7f 00183c18 e7c3e7ff 241800ff     .^...<.........$
   d81e0:	e7ff0018 30ffe7db 0e063a48 29792926     .......0H:..&)y)
   d81f0:	057f4026 7f400705 5a3f2505 5a3ce73c     &@....@..%?Z<.<Z
   d8200:	1c1c3e7f 1c1c0808 22147f3e 5f14227f     .>......>.."."._
   d8210:	5f5f005f 017f0906 8966007f 60606a95     _.__......f..j``
   d8220:	94606060 94a2ffa2 047e0408 7e201008     ```.......~... ~
   d8230:	08081020 08081c2a 08082a1c 1010101e      ...*....*......
   d8240:	0c1e0c10 38300c1e 0630383e 060e3e0e     ......08>80..>..
   d8250:	00000000 5f000000 07000000 14000700     ......._........
   d8260:	147f147f 2a7f2a24 08132312 49366264     ....$*.*.#..db6I
   d8270:	00502056 00030708 41221c00 22410000     V P......."A..A"
   d8280:	1c2a001c 082a1c7f 08083e08 30708000     ..*...*..>....p0
   d8290:	08080800 00000808 20006060 02040810     ........``. ....
   d82a0:	4549513e 7f42003e 49720040 21464949     >QIE>.B.@.rIIIF!
   d82b0:	334d4941 7f121418 45452710 4a3c3945     AIM3.....'EEE9<J
   d82c0:	41314949 07091121 49494936 49494636     II1A!...6III6FII
   d82d0:	00001e29 00000014 00003440 22140800     ).......@4....."
   d82e0:	14141441 41001414 02081422 06095901     A......A"....Y..
   d82f0:	595d413e 11127c4e 497f7c12 3e364949     >A]YN|...|.III6>
   d8300:	22414141 4141417f 49497f3e 097f4149     AAA".AAA>.IIIA..
   d8310:	3e010909 73514141 0808087f 7f41007f     ...>AAQs......A.
   d8320:	40200041 7f013f41 41221408 4040407f     A. @A?...."A.@@@
   d8330:	1c027f40 047f7f02 3e7f1008 3e414141     @..........>AAA>
   d8340:	0909097f 51413e06 097f5e21 26462919     .....>AQ!^...)F&
   d8350:	32494949 017f0103 40403f03 201f3f40     III2.....?@@@?. 
   d8360:	3f1f2040 3f403840 14081463 78040363     @ .?@8@?c...c..x
   d8370:	59610304 00434d49 4141417f 10080402     ..aYIMC..AAA....
   d8380:	41410020 02047f41 40040201 40404040      .AAA......@@@@@
   d8390:	08070300 54542000 287f4078 38384444     ..... TTx@.(DD88
   d83a0:	28444444 28444438 5454387f 08001854     DDD(8DD(.8TTT...
   d83b0:	1802097e 789ca4a4 0404087f 7d440078     ~......x....x.D}
   d83c0:	40200040 7f003d40 00442810 407f4100     @. @@=...(D..A.@
   d83d0:	78047c00 087c7804 38780404 38444444     .|.x.x|...x8DDD8
   d83e0:	242418fc 24241818 087cfc18 48080404     ..$$..$$..|....H
   d83f0:	24545454 443f0404 40403c24 201c7c20     TTT$..?D$<@@ |. 
   d8400:	3c1c2040 3c403040 28102844 90904c44     @ .<@0@<D(.(DL..
   d8410:	64447c90 00444c54 00413608 00770000     .|DdTLD..6A...w.
   d8420:	36410000 01020008 3c020402 3c262326     ..A6.......<&#&<
   d8430:	61a1a11e 40403a12 54387a20 21595554     ...a.:@@ z8TTUY!
   d8440:	41795555 78545421 54552141 54204078     UUyA!TTxA!UTx@ T
   d8450:	0c407955 1272521e 55555539 54543959     Uy@..Rr.9UUUY9TT
   d8460:	55395954 00585454 417c4500 7d450200     TY9UTTX..E|A..E}
   d8470:	45010042 29f0407c f0f02924 f0282528     B..E|@.)$)..(%(.
   d8480:	4555547c 54542000 0a7c547c 32497f09     |TUE. TT|T|...I2
   d8490:	32494949 48484832 484a3232 413a3048     III22HHH22JHH0:A
   d84a0:	3a7a2141 78204042 a0a09d00 4444397d     A!z:B@ x....}9DD
   d84b0:	403d3944 3c3d4040 2424ff24 43497e48     D9=@@@=<$.$$H~IC
   d84c0:	fc2f2b66 09ff2b2f c020f629 03097e88     f+/./+..). ..~..
   d84d0:	79545420 44000041 4830417d 38324a48      TTyA..D}A0HHJ28
   d84e0:	7a224040 0a0a7a00 190d7d72 29267d31     @@"z.z..r}..1}&)
   d84f0:	26282f29 26292929 404d4830 08083820     )/(&)))&0HM@ 8..
   d8500:	08080808 2f380808 baacc810 3428102f     ......8/..../.(4
   d8510:	7b0000fa 14080000 2222142a 08142a14     ...{....*."".*..
   d8520:	005500aa aa55aaaa 0000aa55 1000ff00     ..U...U.U.......
   d8530:	00ff1010 ff141414 ff101000 1010ff00     ................
   d8540:	14f010f0 00fc1414 00f71414 ff0000ff     ................
   d8550:	1414ff00 14fc04f4 1f101714 101f1010     ................
   d8560:	1414141f 1010001f 0000f010 101f0000     ................
   d8570:	1f101010 10101010 000010f0 1010ff00     ................
   d8580:	10101010 ff101010 00000010 000014ff     ................
   d8590:	00ff00ff 17101f00 04fc0000 171414f4     ................
   d85a0:	14141710 00f404f4 f700ff00 14141414     ................
   d85b0:	f7141414 1414f700 10141714 1f101f10     ................
   d85c0:	f4141414 f0101014 0000f010 001f101f     ................
   d85d0:	141f0000 fc000000 f0000014 1010f010     ................
   d85e0:	14ff10ff 14ff1414 1f101010 00000000     ................
   d85f0:	ffff10f0 f0ffffff f0f0f0f0 00ffffff     ................
   d8600:	00000000 0f0fffff 380f0f0f 44384444     ...........8DD8D
   d8610:	3e2a2a7c 02027e14 7e020606 63027e02     |**>.~.....~.~.c
   d8620:	63414955 3c444438 207e4004 0206201e     UIAc8DD<.@~ . ..
   d8630:	9902027e 99a5e7a5 2a492a1c 01724c1c     ~........*I*.Lr.
   d8640:	4a304c72 30304d4d 30487848 465a62bc     rL0JMM00HxH0.bZF
   d8650:	49493e3d 017e0049 2a7e0101 2a2a2a2a     =>III.~...~*****
   d8660:	445f4444 4a514044 44404044 0040514a     DD_DD@QJD@@DJQ@.
   d8670:	0301ff00 00ff80e0 6b080800 1236086b     ...........kk.6.
   d8680:	06362436 060f090f 18180000 10000000     6$6.............
   d8690:	40300010 000101ff 1e01011f 171d1900     ..0@............
   d86a0:	3c3c0012 00003c3c 00000000              ..<<<<......

000d86ac <_ZTV10JsonBuffer>:
	...
   d86b4:	000d503d 000d5059                       =P..YP..

000d86bc <_ZTV10JsonWriter>:
	...
   d86c4:	000d506d 000d5081 00756c25 78343025     mP...P..%lu.%04x
   d86d4:	25755c00 00583430 65757274 6c616600     .\u%04X.true.fal
   d86e4:	25006573 00662a2e 25006625 666c2a2e     se.%.*f.%f.%.*lf
   d86f4:	666c2500 52504700 4700434d 41474750     .%lf.GPRMC.GPGGA
   d8704:	4e004e00 4500454e 4500454e 53004553     .N.NNE.ENE.ESE.S
   d8714:	53004553 57535300 57535700 574e5700     SE.S.SSW.WSW.WNW
   d8724:	574e4e00 00000000                       .NNW....

000d872c <_ZTVN5spark13EthernetClassE>:
	...
   d8734:	000d5ea3 000d5e99 000d5e8f 000d5e85     .^...^...^...^..
   d8744:	000d5e79 000d5e6d 000d5e61 000d5e59     y^..m^..a^..Y^..
   d8754:	000d5e4f 000d5e45 000d6fd1              O^..E^...o..

000d8760 <_ZN12_GLOBAL__N_1L14clock_divisorsE>:
   d8760:	18100800 38302820 64756162 72655300     .... (08baud.Ser
   d8770:	006c6169 69726553 00316c61 65707974     ial.Serial1.type
   d8780:	72617000 63006d61 6900646d 6e680064     .param.cmd.id.hn
   d8790:	74730064 66006d72 00746c69 006c766c     d.strm.filt.lvl.
   d87a0:	48646461 6c646e61 72007265 766f6d65     addHandler.remov
   d87b0:	6e614865 72656c64 756e6500 6e61486d     eHandler.enumHan
   d87c0:	72656c64 534a0073 74534e4f 6d616572     dlers.JSONStream
   d87d0:	48676f4c 6c646e61 61007265 25007070     LogHandler.app.%
   d87e0:	75303130 205d0020 00202c00 203a2928     010u .] ., .(): 
   d87f0:	005b2000 65646f63 00203d20 64006925     . [.code = .%i.d
   d8800:	69617465 3d20736c 0a0d0020 006e6c00     etails = ....ln.
   d8810:	63006e66 0065646f 61746564 6e006c69     fn.code.detail.n
   d8820:	00656e6f 63617274 6e690065 77006f66     one.trace.info.w
   d8830:	006e7261 6f727265 61700072 0063696e     arn.error.panic.
   d8840:	006c6c61 2b25005a 3a643330 75323025     all.Z.%+03d:%02u
   d8850:	2d592500 252d6d25 48255464 3a4d253a     .%Y-%m-%dT%H:%M:
   d8860:	7a255325 63736100 656d6974 00000000     %S%z.asctime....

000d8870 <_ZTVSt15_Sp_counted_ptrIPN8particle6detail10FutureImplIbNS1_13FutureContextEEELN9__gnu_cxx12_Lock_policyE0EE>:
	...
   d8878:	000d63cd 000d63d3 000d6417 000d63e1     .c...c...d...c..
   d8888:	000d63cf                                .c..

000d888c <_ZTV9IPAddress>:
	...
   d8894:	000d6965 000d6955 000d6957              ei..Ui..Wi..

000d88a0 <_ZTV9USBSerial>:
	...
   d88a8:	000d6a3d 000d6a8d 000d6a9b 000d6105     =j...j...j...a..
   d88b8:	000d6a79 000d6a3f 000d6a55 000d6a87     yj..?j..Uj...j..
   d88c8:	000d6a6b 000d6a39                       kj..9j..

000d88d0 <_ZTVN5spark13CellularClassE>:
	...
   d88d8:	000d6ba7 000d6b9d 000d6b93 000d6b49     .k...k...k..Ik..
   d88e8:	000d6b87 000d6b7b 000d6b6f 000d6b67     .k..{k..ok..gk..
   d88f8:	000d6b5d 000d6b53 000d6fd1              ]k..Sk...o..

000d8904 <_ZTV11USARTSerial>:
	...
   d890c:	000d6be1 000d6c31 000d6c3f 000d6105     .k..1l..?l...a..
   d891c:	000d6bf5 000d6c17 000d6c03 000d6c2b     .k...l...l..+l..
   d892c:	000d6be3 000d6be7                       .k...k..

000d8934 <_ZTV7TwoWire>:
	...
   d893c:	000d6d19 000d6d63 000d6d3b 000d6d1b     .m..cm..;m...m..
   d894c:	000d6d43 000d6d4b 000d6d53 000d6d5b     Cm..Km..Sm..[m..

000d895c <_ZTVN5spark9MeshClassE>:
	...
   d8964:	000d6e4d 000d6e43 000d6e39 000d6e2f     Mn..Cn..9n../n..
   d8974:	000d6e23 000d6e17 000d6e0b 000d6e03     #n...n...n...n..
   d8984:	000d6df9 000d6def 000d6fd1              .m...m...o..

000d8990 <_ZTVN5spark12NetworkClassE>:
	...
   d8998:	000d6f69 000d6f73 000d6f7d 000d6f87     io..so..}o...o..
   d89a8:	000d6f91 000d6f9d 000d6fa9 000d6fb5     .o...o...o...o..
   d89b8:	000d6fbd 000d6fc7 000d6fd1              .o...o...o..

000d89c4 <_ZSt7nothrow>:
	...

000d89c5 <_ctype_>:
   d89c5:	20202000 20202020 28282020 20282828     .         ((((( 
   d89d5:	20202020 20202020 20202020 20202020                     
   d89e5:	10108820 10101010 10101010 10101010      ...............
   d89f5:	04040410 04040404 10040404 10101010     ................
   d8a05:	41411010 41414141 01010101 01010101     ..AAAAAA........
   d8a15:	01010101 01010101 01010101 10101010     ................
   d8a25:	42421010 42424242 02020202 02020202     ..BBBBBB........
   d8a35:	02020202 02020202 02020202 10101010     ................
   d8a45:	00000020 00000000 00000000 00000000      ...............
	...

000d8ac8 <__sf_fake_stdin>:
	...

000d8ae8 <__sf_fake_stdout>:
	...

000d8b08 <__sf_fake_stderr>:
	...

000d8b28 <link_const_variable_data_end>:
   d8b28:	000d4541 	.word	0x000d4541
   d8b2c:	000d4ca5 	.word	0x000d4ca5
   d8b30:	000d5039 	.word	0x000d5039
   d8b34:	000d5309 	.word	0x000d5309
   d8b38:	000d5959 	.word	0x000d5959
   d8b3c:	000d5ead 	.word	0x000d5ead
   d8b40:	000d6051 	.word	0x000d6051
   d8b44:	000d60dd 	.word	0x000d60dd
   d8b48:	000d6239 	.word	0x000d6239
   d8b4c:	000d6249 	.word	0x000d6249
   d8b50:	000d62a1 	.word	0x000d62a1
   d8b54:	000d6bb1 	.word	0x000d6bb1
   d8b58:	000d6f19 	.word	0x000d6f19
   d8b5c:	000d709d 	.word	0x000d709d
   d8b60:	000d72a5 	.word	0x000d72a5
   d8b64:	000d7329 	.word	0x000d7329
   d8b68:	000d73ed 	.word	0x000d73ed
   d8b6c:	000d74b1 	.word	0x000d74b1
